
kernel.elf:     file format elf32-littleriscv


Disassembly of section .text:

00000000 <_entry>:
       0:	00000093          	li	ra,0
       4:	00001137          	lui	sp,0x1
       8:	00000193          	li	gp,0
       c:	00000213          	li	tp,0
      10:	00000293          	li	t0,0
      14:	00000313          	li	t1,0
      18:	00000393          	li	t2,0
      1c:	00000413          	li	s0,0
      20:	00000493          	li	s1,0
      24:	00000513          	li	a0,0
      28:	00000593          	li	a1,0
      2c:	00000613          	li	a2,0
      30:	00000693          	li	a3,0
      34:	00000713          	li	a4,0
      38:	00000793          	li	a5,0
      3c:	00000813          	li	a6,0
      40:	00000893          	li	a7,0
      44:	00000913          	li	s2,0
      48:	00000993          	li	s3,0
      4c:	00000a13          	li	s4,0
      50:	00000a93          	li	s5,0
      54:	00000b13          	li	s6,0
      58:	00000b93          	li	s7,0
      5c:	00000c13          	li	s8,0
      60:	00000c93          	li	s9,0
      64:	00000d13          	li	s10,0
      68:	00000d93          	li	s11,0
      6c:	00000e13          	li	t3,0
      70:	00000e93          	li	t4,0
      74:	00000f13          	li	t5,0
      78:	00000f93          	li	t6,0
      7c:	1b5010ef          	jal	ra,1a30 <start>
	...

00001800 <r_mstatus>:
    1800:	fe010113          	addi	sp,sp,-32 # fe0 <_entry+0xfe0>
    1804:	00812e23          	sw	s0,28(sp)
    1808:	02010413          	addi	s0,sp,32
    180c:	300027f3          	csrr	a5,mstatus
    1810:	fef42623          	sw	a5,-20(s0)
    1814:	fec42783          	lw	a5,-20(s0)
    1818:	00078513          	mv	a0,a5
    181c:	01c12403          	lw	s0,28(sp)
    1820:	02010113          	addi	sp,sp,32
    1824:	00008067          	ret

00001828 <w_mstatus>:
    1828:	fe010113          	addi	sp,sp,-32
    182c:	00812e23          	sw	s0,28(sp)
    1830:	02010413          	addi	s0,sp,32
    1834:	fea42623          	sw	a0,-20(s0)
    1838:	fec42783          	lw	a5,-20(s0)
    183c:	30079073          	csrw	mstatus,a5
    1840:	00000013          	nop
    1844:	01c12403          	lw	s0,28(sp)
    1848:	02010113          	addi	sp,sp,32
    184c:	00008067          	ret

00001850 <w_mepc>:
    1850:	fe010113          	addi	sp,sp,-32
    1854:	00812e23          	sw	s0,28(sp)
    1858:	02010413          	addi	s0,sp,32
    185c:	fea42623          	sw	a0,-20(s0)
    1860:	fec42783          	lw	a5,-20(s0)
    1864:	34179073          	csrw	mepc,a5
    1868:	00000013          	nop
    186c:	01c12403          	lw	s0,28(sp)
    1870:	02010113          	addi	sp,sp,32
    1874:	00008067          	ret

00001878 <w_medeleg>:
    1878:	fe010113          	addi	sp,sp,-32
    187c:	00812e23          	sw	s0,28(sp)
    1880:	02010413          	addi	s0,sp,32
    1884:	fea42623          	sw	a0,-20(s0)
    1888:	fec42783          	lw	a5,-20(s0)
    188c:	30279073          	csrw	medeleg,a5
    1890:	00000013          	nop
    1894:	01c12403          	lw	s0,28(sp)
    1898:	02010113          	addi	sp,sp,32
    189c:	00008067          	ret

000018a0 <w_mideleg>:
    18a0:	fe010113          	addi	sp,sp,-32
    18a4:	00812e23          	sw	s0,28(sp)
    18a8:	02010413          	addi	s0,sp,32
    18ac:	fea42623          	sw	a0,-20(s0)
    18b0:	fec42783          	lw	a5,-20(s0)
    18b4:	30379073          	csrw	mideleg,a5
    18b8:	00000013          	nop
    18bc:	01c12403          	lw	s0,28(sp)
    18c0:	02010113          	addi	sp,sp,32
    18c4:	00008067          	ret

000018c8 <r_mie>:
    18c8:	fe010113          	addi	sp,sp,-32
    18cc:	00812e23          	sw	s0,28(sp)
    18d0:	02010413          	addi	s0,sp,32
    18d4:	304027f3          	csrr	a5,mie
    18d8:	fef42623          	sw	a5,-20(s0)
    18dc:	fec42783          	lw	a5,-20(s0)
    18e0:	00078513          	mv	a0,a5
    18e4:	01c12403          	lw	s0,28(sp)
    18e8:	02010113          	addi	sp,sp,32
    18ec:	00008067          	ret

000018f0 <w_mie>:
    18f0:	fe010113          	addi	sp,sp,-32
    18f4:	00812e23          	sw	s0,28(sp)
    18f8:	02010413          	addi	s0,sp,32
    18fc:	fea42623          	sw	a0,-20(s0)
    1900:	fec42783          	lw	a5,-20(s0)
    1904:	30479073          	csrw	mie,a5
    1908:	00000013          	nop
    190c:	01c12403          	lw	s0,28(sp)
    1910:	02010113          	addi	sp,sp,32
    1914:	00008067          	ret

00001918 <w_mscratch>:
    1918:	fe010113          	addi	sp,sp,-32
    191c:	00812e23          	sw	s0,28(sp)
    1920:	02010413          	addi	s0,sp,32
    1924:	fea42623          	sw	a0,-20(s0)
    1928:	fec42783          	lw	a5,-20(s0)
    192c:	34079073          	csrw	mscratch,a5
    1930:	00000013          	nop
    1934:	01c12403          	lw	s0,28(sp)
    1938:	02010113          	addi	sp,sp,32
    193c:	00008067          	ret

00001940 <w_mtvec>:
    1940:	fe010113          	addi	sp,sp,-32
    1944:	00812e23          	sw	s0,28(sp)
    1948:	02010413          	addi	s0,sp,32
    194c:	fea42623          	sw	a0,-20(s0)
    1950:	fec42783          	lw	a5,-20(s0)
    1954:	30579073          	csrw	mtvec,a5
    1958:	00000013          	nop
    195c:	01c12403          	lw	s0,28(sp)
    1960:	02010113          	addi	sp,sp,32
    1964:	00008067          	ret

00001968 <w_pmpaddr0>:
    1968:	fe010113          	addi	sp,sp,-32
    196c:	00812e23          	sw	s0,28(sp)
    1970:	02010413          	addi	s0,sp,32
    1974:	fea42623          	sw	a0,-20(s0)
    1978:	fec42783          	lw	a5,-20(s0)
    197c:	3b079073          	csrw	pmpaddr0,a5
    1980:	00000013          	nop
    1984:	01c12403          	lw	s0,28(sp)
    1988:	02010113          	addi	sp,sp,32
    198c:	00008067          	ret

00001990 <w_pmpcfg0>:
    1990:	fe010113          	addi	sp,sp,-32
    1994:	00812e23          	sw	s0,28(sp)
    1998:	02010413          	addi	s0,sp,32
    199c:	fea42623          	sw	a0,-20(s0)
    19a0:	fec42783          	lw	a5,-20(s0)
    19a4:	3a079073          	csrw	pmpcfg0,a5
    19a8:	00000013          	nop
    19ac:	01c12403          	lw	s0,28(sp)
    19b0:	02010113          	addi	sp,sp,32
    19b4:	00008067          	ret

000019b8 <w_satp>:
    19b8:	fe010113          	addi	sp,sp,-32
    19bc:	00812e23          	sw	s0,28(sp)
    19c0:	02010413          	addi	s0,sp,32
    19c4:	fea42623          	sw	a0,-20(s0)
    19c8:	fec42783          	lw	a5,-20(s0)
    19cc:	18079073          	csrw	satp,a5
    19d0:	00000013          	nop
    19d4:	01c12403          	lw	s0,28(sp)
    19d8:	02010113          	addi	sp,sp,32
    19dc:	00008067          	ret

000019e0 <r_sie>:
    19e0:	fe010113          	addi	sp,sp,-32
    19e4:	00812e23          	sw	s0,28(sp)
    19e8:	02010413          	addi	s0,sp,32
    19ec:	104027f3          	csrr	a5,sie
    19f0:	fef42623          	sw	a5,-20(s0)
    19f4:	fec42783          	lw	a5,-20(s0)
    19f8:	00078513          	mv	a0,a5
    19fc:	01c12403          	lw	s0,28(sp)
    1a00:	02010113          	addi	sp,sp,32
    1a04:	00008067          	ret

00001a08 <w_sie>:
    1a08:	fe010113          	addi	sp,sp,-32
    1a0c:	00812e23          	sw	s0,28(sp)
    1a10:	02010413          	addi	s0,sp,32
    1a14:	fea42623          	sw	a0,-20(s0)
    1a18:	fec42783          	lw	a5,-20(s0)
    1a1c:	10479073          	csrw	sie,a5
    1a20:	00000013          	nop
    1a24:	01c12403          	lw	s0,28(sp)
    1a28:	02010113          	addi	sp,sp,32
    1a2c:	00008067          	ret

00001a30 <start>:
    1a30:	fe010113          	addi	sp,sp,-32
    1a34:	00112e23          	sw	ra,28(sp)
    1a38:	00812c23          	sw	s0,24(sp)
    1a3c:	02010413          	addi	s0,sp,32
    1a40:	dc1ff0ef          	jal	ra,1800 <r_mstatus>
    1a44:	fea42623          	sw	a0,-20(s0)
    1a48:	fec42703          	lw	a4,-20(s0)
    1a4c:	ffffe7b7          	lui	a5,0xffffe
    1a50:	7ff78793          	addi	a5,a5,2047 # ffffe7ff <_end+0xffffc53b>
    1a54:	00f777b3          	and	a5,a4,a5
    1a58:	fef42623          	sw	a5,-20(s0)
    1a5c:	fec42703          	lw	a4,-20(s0)
    1a60:	000017b7          	lui	a5,0x1
    1a64:	80078793          	addi	a5,a5,-2048 # 800 <_entry+0x800>
    1a68:	00f767b3          	or	a5,a4,a5
    1a6c:	fef42623          	sw	a5,-20(s0)
    1a70:	fec42503          	lw	a0,-20(s0)
    1a74:	db5ff0ef          	jal	ra,1828 <w_mstatus>
    1a78:	000027b7          	lui	a5,0x2
    1a7c:	c7478793          	addi	a5,a5,-908 # 1c74 <main>
    1a80:	00078513          	mv	a0,a5
    1a84:	dcdff0ef          	jal	ra,1850 <w_mepc>
    1a88:	00000513          	li	a0,0
    1a8c:	f2dff0ef          	jal	ra,19b8 <w_satp>
    1a90:	000107b7          	lui	a5,0x10
    1a94:	fff78513          	addi	a0,a5,-1 # ffff <_end+0xdd3b>
    1a98:	de1ff0ef          	jal	ra,1878 <w_medeleg>
    1a9c:	000107b7          	lui	a5,0x10
    1aa0:	fff78513          	addi	a0,a5,-1 # ffff <_end+0xdd3b>
    1aa4:	dfdff0ef          	jal	ra,18a0 <w_mideleg>
    1aa8:	f39ff0ef          	jal	ra,19e0 <r_sie>
    1aac:	00050793          	mv	a5,a0
    1ab0:	2227e793          	ori	a5,a5,546
    1ab4:	00078513          	mv	a0,a5
    1ab8:	f51ff0ef          	jal	ra,1a08 <w_sie>
    1abc:	400007b7          	lui	a5,0x40000
    1ac0:	fff78513          	addi	a0,a5,-1 # 3fffffff <_end+0x3fffdd3b>
    1ac4:	ea5ff0ef          	jal	ra,1968 <w_pmpaddr0>
    1ac8:	00f00513          	li	a0,15
    1acc:	ec5ff0ef          	jal	ra,1990 <w_pmpcfg0>
    1ad0:	01c000ef          	jal	ra,1aec <timerinit>
    1ad4:	30200073          	mret
    1ad8:	00000013          	nop
    1adc:	01c12083          	lw	ra,28(sp)
    1ae0:	01812403          	lw	s0,24(sp)
    1ae4:	02010113          	addi	sp,sp,32
    1ae8:	00008067          	ret

00001aec <timerinit>:
    1aec:	fe010113          	addi	sp,sp,-32
    1af0:	00112e23          	sw	ra,28(sp)
    1af4:	00812c23          	sw	s0,24(sp)
    1af8:	02010413          	addi	s0,sp,32
    1afc:	000187b7          	lui	a5,0x18
    1b00:	6a078793          	addi	a5,a5,1696 # 186a0 <_end+0x163dc>
    1b04:	fef42423          	sw	a5,-24(s0)
    1b08:	f00007b7          	lui	a5,0xf0000
    1b0c:	0007a783          	lw	a5,0(a5) # f0000000 <_end+0xefffdd3c>
    1b10:	fef42223          	sw	a5,-28(s0)
    1b14:	f00007b7          	lui	a5,0xf0000
    1b18:	00478793          	addi	a5,a5,4 # f0000004 <_end+0xefffdd40>
    1b1c:	0007a783          	lw	a5,0(a5)
    1b20:	fef42623          	sw	a5,-20(s0)
    1b24:	fe442703          	lw	a4,-28(s0)
    1b28:	fe842783          	lw	a5,-24(s0)
    1b2c:	00f707b3          	add	a5,a4,a5
    1b30:	fe442703          	lw	a4,-28(s0)
    1b34:	00e7f863          	bgeu	a5,a4,1b44 <timerinit+0x58>
    1b38:	fec42783          	lw	a5,-20(s0)
    1b3c:	00178793          	addi	a5,a5,1
    1b40:	fef42623          	sw	a5,-20(s0)
    1b44:	f00007b7          	lui	a5,0xf0000
    1b48:	00c78793          	addi	a5,a5,12 # f000000c <_end+0xefffdd48>
    1b4c:	fec42703          	lw	a4,-20(s0)
    1b50:	00e7a023          	sw	a4,0(a5)
    1b54:	f00007b7          	lui	a5,0xf0000
    1b58:	00878793          	addi	a5,a5,8 # f0000008 <_end+0xefffdd44>
    1b5c:	fe442683          	lw	a3,-28(s0)
    1b60:	fe842703          	lw	a4,-24(s0)
    1b64:	00e68733          	add	a4,a3,a4
    1b68:	00e7a023          	sw	a4,0(a5)
    1b6c:	000027b7          	lui	a5,0x2
    1b70:	29878793          	addi	a5,a5,664 # 2298 <timer_scratch>
    1b74:	fef42023          	sw	a5,-32(s0)
    1b78:	fe042783          	lw	a5,-32(s0)
    1b7c:	01078793          	addi	a5,a5,16
    1b80:	f0000737          	lui	a4,0xf0000
    1b84:	00870713          	addi	a4,a4,8 # f0000008 <_end+0xefffdd44>
    1b88:	00e7a023          	sw	a4,0(a5)
    1b8c:	fe042783          	lw	a5,-32(s0)
    1b90:	01478793          	addi	a5,a5,20
    1b94:	f0000737          	lui	a4,0xf0000
    1b98:	00c70713          	addi	a4,a4,12 # f000000c <_end+0xefffdd48>
    1b9c:	00e7a023          	sw	a4,0(a5)
    1ba0:	fe042783          	lw	a5,-32(s0)
    1ba4:	01878793          	addi	a5,a5,24
    1ba8:	fe842703          	lw	a4,-24(s0)
    1bac:	00e7a023          	sw	a4,0(a5)
    1bb0:	fe042783          	lw	a5,-32(s0)
    1bb4:	00078513          	mv	a0,a5
    1bb8:	d61ff0ef          	jal	ra,1918 <w_mscratch>
    1bbc:	000027b7          	lui	a5,0x2
    1bc0:	c1078793          	addi	a5,a5,-1008 # 1c10 <timervec>
    1bc4:	00078513          	mv	a0,a5
    1bc8:	d79ff0ef          	jal	ra,1940 <w_mtvec>
    1bcc:	c35ff0ef          	jal	ra,1800 <r_mstatus>
    1bd0:	00050793          	mv	a5,a0
    1bd4:	0087e793          	ori	a5,a5,8
    1bd8:	00078513          	mv	a0,a5
    1bdc:	c4dff0ef          	jal	ra,1828 <w_mstatus>
    1be0:	ce9ff0ef          	jal	ra,18c8 <r_mie>
    1be4:	00050793          	mv	a5,a0
    1be8:	0807e793          	ori	a5,a5,128
    1bec:	00078513          	mv	a0,a5
    1bf0:	d01ff0ef          	jal	ra,18f0 <w_mie>
    1bf4:	00000013          	nop
    1bf8:	01c12083          	lw	ra,28(sp)
    1bfc:	01812403          	lw	s0,24(sp)
    1c00:	02010113          	addi	sp,sp,32
    1c04:	00008067          	ret
	...

00001c10 <timervec>:
    1c10:	34051573          	csrrw	a0,mscratch,a0
    1c14:	00b52023          	sw	a1,0(a0)
    1c18:	00c52223          	sw	a2,4(a0)
    1c1c:	00d52423          	sw	a3,8(a0)
    1c20:	00e52623          	sw	a4,12(a0)
    1c24:	01052583          	lw	a1,16(a0)
    1c28:	01852603          	lw	a2,24(a0)
    1c2c:	0005a683          	lw	a3,0(a1)
    1c30:	00d60733          	add	a4,a2,a3
    1c34:	00e5a023          	sw	a4,0(a1)
    1c38:	00d75a63          	bge	a4,a3,1c4c <notincrement_mtimecmph>
    1c3c:	01452683          	lw	a3,20(a0)
    1c40:	0006a703          	lw	a4,0(a3)
    1c44:	00170713          	addi	a4,a4,1
    1c48:	00e6a023          	sw	a4,0(a3)

00001c4c <notincrement_mtimecmph>:
    1c4c:	00200593          	li	a1,2
    1c50:	14459073          	csrw	sip,a1
    1c54:	00c52703          	lw	a4,12(a0)
    1c58:	00852683          	lw	a3,8(a0)
    1c5c:	00452603          	lw	a2,4(a0)
    1c60:	00052583          	lw	a1,0(a0)
    1c64:	34051573          	csrrw	a0,mscratch,a0
    1c68:	30200073          	mret
	...

00001c74 <main>:
    1c74:	ff010113          	addi	sp,sp,-16
    1c78:	00112623          	sw	ra,12(sp)
    1c7c:	00812423          	sw	s0,8(sp)
    1c80:	01010413          	addi	s0,sp,16
    1c84:	4e8000ef          	jal	ra,216c <uartinit>
    1c88:	5d4000ef          	jal	ra,225c <consoleinit>
    1c8c:	38c000ef          	jal	ra,2018 <printfinit>
    1c90:	000027b7          	lui	a5,0x2
    1c94:	27878513          	addi	a0,a5,632 # 2278 <consoleinit+0x1c>
    1c98:	32c000ef          	jal	ra,1fc4 <panic>
    1c9c:	00000013          	nop
    1ca0:	00c12083          	lw	ra,12(sp)
    1ca4:	00812403          	lw	s0,8(sp)
    1ca8:	01010113          	addi	sp,sp,16
    1cac:	00008067          	ret

00001cb0 <printint>:
    1cb0:	fb010113          	addi	sp,sp,-80
    1cb4:	04112623          	sw	ra,76(sp)
    1cb8:	04812423          	sw	s0,72(sp)
    1cbc:	05010413          	addi	s0,sp,80
    1cc0:	faa42e23          	sw	a0,-68(s0)
    1cc4:	00100793          	li	a5,1
    1cc8:	fef42623          	sw	a5,-20(s0)
    1ccc:	fbc42783          	lw	a5,-68(s0)
    1cd0:	01f7d793          	srli	a5,a5,0x1f
    1cd4:	0ff7f793          	andi	a5,a5,255
    1cd8:	fcf42e23          	sw	a5,-36(s0)
    1cdc:	02d00793          	li	a5,45
    1ce0:	fcf40623          	sb	a5,-52(s0)
    1ce4:	fdc42783          	lw	a5,-36(s0)
    1ce8:	00078863          	beqz	a5,1cf8 <printint+0x48>
    1cec:	fec42783          	lw	a5,-20(s0)
    1cf0:	00178793          	addi	a5,a5,1
    1cf4:	fef42623          	sw	a5,-20(s0)
    1cf8:	fbc42783          	lw	a5,-68(s0)
    1cfc:	fef42423          	sw	a5,-24(s0)
    1d00:	0200006f          	j	1d20 <printint+0x70>
    1d04:	fec42783          	lw	a5,-20(s0)
    1d08:	00178793          	addi	a5,a5,1
    1d0c:	fef42623          	sw	a5,-20(s0)
    1d10:	fe842703          	lw	a4,-24(s0)
    1d14:	00a00793          	li	a5,10
    1d18:	02f747b3          	div	a5,a4,a5
    1d1c:	fef42423          	sw	a5,-24(s0)
    1d20:	fe842703          	lw	a4,-24(s0)
    1d24:	00900793          	li	a5,9
    1d28:	fce7cee3          	blt	a5,a4,1d04 <printint+0x54>
    1d2c:	fe842703          	lw	a4,-24(s0)
    1d30:	ff700793          	li	a5,-9
    1d34:	fcf748e3          	blt	a4,a5,1d04 <printint+0x54>
    1d38:	fbc42783          	lw	a5,-68(s0)
    1d3c:	fef42423          	sw	a5,-24(s0)
    1d40:	fe042223          	sw	zero,-28(s0)
    1d44:	0740006f          	j	1db8 <printint+0x108>
    1d48:	fe842703          	lw	a4,-24(s0)
    1d4c:	00a00793          	li	a5,10
    1d50:	02f767b3          	rem	a5,a4,a5
    1d54:	fcf42c23          	sw	a5,-40(s0)
    1d58:	fd842783          	lw	a5,-40(s0)
    1d5c:	41f7d793          	srai	a5,a5,0x1f
    1d60:	fd842703          	lw	a4,-40(s0)
    1d64:	00f74733          	xor	a4,a4,a5
    1d68:	40f707b3          	sub	a5,a4,a5
    1d6c:	fcf42c23          	sw	a5,-40(s0)
    1d70:	fd842783          	lw	a5,-40(s0)
    1d74:	0ff7f713          	andi	a4,a5,255
    1d78:	fec42683          	lw	a3,-20(s0)
    1d7c:	fe442783          	lw	a5,-28(s0)
    1d80:	40f687b3          	sub	a5,a3,a5
    1d84:	fff78793          	addi	a5,a5,-1
    1d88:	03070713          	addi	a4,a4,48
    1d8c:	0ff77713          	andi	a4,a4,255
    1d90:	ff040693          	addi	a3,s0,-16
    1d94:	00f687b3          	add	a5,a3,a5
    1d98:	fce78e23          	sb	a4,-36(a5)
    1d9c:	fe842703          	lw	a4,-24(s0)
    1da0:	00a00793          	li	a5,10
    1da4:	02f747b3          	div	a5,a4,a5
    1da8:	fef42423          	sw	a5,-24(s0)
    1dac:	fe442783          	lw	a5,-28(s0)
    1db0:	00178793          	addi	a5,a5,1
    1db4:	fef42223          	sw	a5,-28(s0)
    1db8:	fec42703          	lw	a4,-20(s0)
    1dbc:	fdc42783          	lw	a5,-36(s0)
    1dc0:	40f707b3          	sub	a5,a4,a5
    1dc4:	fe442703          	lw	a4,-28(s0)
    1dc8:	f8f740e3          	blt	a4,a5,1d48 <printint+0x98>
    1dcc:	fe042023          	sw	zero,-32(s0)
    1dd0:	0280006f          	j	1df8 <printint+0x148>
    1dd4:	fe042783          	lw	a5,-32(s0)
    1dd8:	ff040713          	addi	a4,s0,-16
    1ddc:	00f707b3          	add	a5,a4,a5
    1de0:	fdc7c783          	lbu	a5,-36(a5)
    1de4:	00078513          	mv	a0,a5
    1de8:	3b4000ef          	jal	ra,219c <uart_send_char>
    1dec:	fe042783          	lw	a5,-32(s0)
    1df0:	00178793          	addi	a5,a5,1
    1df4:	fef42023          	sw	a5,-32(s0)
    1df8:	fe042703          	lw	a4,-32(s0)
    1dfc:	fec42783          	lw	a5,-20(s0)
    1e00:	fcf74ae3          	blt	a4,a5,1dd4 <printint+0x124>
    1e04:	00000013          	nop
    1e08:	00000013          	nop
    1e0c:	04c12083          	lw	ra,76(sp)
    1e10:	04812403          	lw	s0,72(sp)
    1e14:	05010113          	addi	sp,sp,80
    1e18:	00008067          	ret

00001e1c <printf>:
    1e1c:	fb010113          	addi	sp,sp,-80
    1e20:	02112623          	sw	ra,44(sp)
    1e24:	02812423          	sw	s0,40(sp)
    1e28:	03010413          	addi	s0,sp,48
    1e2c:	fca42e23          	sw	a0,-36(s0)
    1e30:	00b42223          	sw	a1,4(s0)
    1e34:	00c42423          	sw	a2,8(s0)
    1e38:	00d42623          	sw	a3,12(s0)
    1e3c:	00e42823          	sw	a4,16(s0)
    1e40:	00f42a23          	sw	a5,20(s0)
    1e44:	01042c23          	sw	a6,24(s0)
    1e48:	01142e23          	sw	a7,28(s0)
    1e4c:	02040793          	addi	a5,s0,32
    1e50:	fcf42c23          	sw	a5,-40(s0)
    1e54:	fd842783          	lw	a5,-40(s0)
    1e58:	fe478793          	addi	a5,a5,-28
    1e5c:	fef42223          	sw	a5,-28(s0)
    1e60:	fdc42783          	lw	a5,-36(s0)
    1e64:	14078663          	beqz	a5,1fb0 <printf+0x194>
    1e68:	000027b7          	lui	a5,0x2
    1e6c:	2b478513          	addi	a0,a5,692 # 22b4 <prlock>
    1e70:	260000ef          	jal	ra,20d0 <spinlock_acquire>
    1e74:	fe042623          	sw	zero,-20(s0)
    1e78:	1140006f          	j	1f8c <printf+0x170>
    1e7c:	fec42783          	lw	a5,-20(s0)
    1e80:	fdc42703          	lw	a4,-36(s0)
    1e84:	00f707b3          	add	a5,a4,a5
    1e88:	0007c703          	lbu	a4,0(a5)
    1e8c:	02500793          	li	a5,37
    1e90:	02f70063          	beq	a4,a5,1eb0 <printf+0x94>
    1e94:	fec42783          	lw	a5,-20(s0)
    1e98:	fdc42703          	lw	a4,-36(s0)
    1e9c:	00f707b3          	add	a5,a4,a5
    1ea0:	0007c783          	lbu	a5,0(a5)
    1ea4:	00078513          	mv	a0,a5
    1ea8:	2f4000ef          	jal	ra,219c <uart_send_char>
    1eac:	0d40006f          	j	1f80 <printf+0x164>
    1eb0:	fec42783          	lw	a5,-20(s0)
    1eb4:	00178793          	addi	a5,a5,1
    1eb8:	fef42623          	sw	a5,-20(s0)
    1ebc:	fec42783          	lw	a5,-20(s0)
    1ec0:	fdc42703          	lw	a4,-36(s0)
    1ec4:	00f707b3          	add	a5,a4,a5
    1ec8:	0007c783          	lbu	a5,0(a5)
    1ecc:	07300713          	li	a4,115
    1ed0:	02e78c63          	beq	a5,a4,1f08 <printf+0xec>
    1ed4:	07300713          	li	a4,115
    1ed8:	0af74463          	blt	a4,a5,1f80 <printf+0x164>
    1edc:	06300713          	li	a4,99
    1ee0:	08e78063          	beq	a5,a4,1f60 <printf+0x144>
    1ee4:	06400713          	li	a4,100
    1ee8:	08e79c63          	bne	a5,a4,1f80 <printf+0x164>
    1eec:	fe442783          	lw	a5,-28(s0)
    1ef0:	00478713          	addi	a4,a5,4
    1ef4:	fee42223          	sw	a4,-28(s0)
    1ef8:	0007a783          	lw	a5,0(a5)
    1efc:	00078513          	mv	a0,a5
    1f00:	db1ff0ef          	jal	ra,1cb0 <printint>
    1f04:	07c0006f          	j	1f80 <printf+0x164>
    1f08:	fe442783          	lw	a5,-28(s0)
    1f0c:	00478713          	addi	a4,a5,4
    1f10:	fee42223          	sw	a4,-28(s0)
    1f14:	0007a783          	lw	a5,0(a5)
    1f18:	fef42423          	sw	a5,-24(s0)
    1f1c:	fe842783          	lw	a5,-24(s0)
    1f20:	02079863          	bnez	a5,1f50 <printf+0x134>
    1f24:	000027b7          	lui	a5,0x2
    1f28:	28078793          	addi	a5,a5,640 # 2280 <consoleinit+0x24>
    1f2c:	fef42423          	sw	a5,-24(s0)
    1f30:	0200006f          	j	1f50 <printf+0x134>
    1f34:	fe842783          	lw	a5,-24(s0)
    1f38:	0007c783          	lbu	a5,0(a5)
    1f3c:	00078513          	mv	a0,a5
    1f40:	25c000ef          	jal	ra,219c <uart_send_char>
    1f44:	fe842783          	lw	a5,-24(s0)
    1f48:	00178793          	addi	a5,a5,1
    1f4c:	fef42423          	sw	a5,-24(s0)
    1f50:	fe842783          	lw	a5,-24(s0)
    1f54:	0007c783          	lbu	a5,0(a5)
    1f58:	fc079ee3          	bnez	a5,1f34 <printf+0x118>
    1f5c:	0240006f          	j	1f80 <printf+0x164>
    1f60:	fe442783          	lw	a5,-28(s0)
    1f64:	00478713          	addi	a4,a5,4
    1f68:	fee42223          	sw	a4,-28(s0)
    1f6c:	0007a783          	lw	a5,0(a5)
    1f70:	0ff7f793          	andi	a5,a5,255
    1f74:	00078513          	mv	a0,a5
    1f78:	224000ef          	jal	ra,219c <uart_send_char>
    1f7c:	00000013          	nop
    1f80:	fec42783          	lw	a5,-20(s0)
    1f84:	00178793          	addi	a5,a5,1
    1f88:	fef42623          	sw	a5,-20(s0)
    1f8c:	fec42783          	lw	a5,-20(s0)
    1f90:	fdc42703          	lw	a4,-36(s0)
    1f94:	00f707b3          	add	a5,a4,a5
    1f98:	0007c783          	lbu	a5,0(a5)
    1f9c:	ee0790e3          	bnez	a5,1e7c <printf+0x60>
    1fa0:	000027b7          	lui	a5,0x2
    1fa4:	2b478513          	addi	a0,a5,692 # 22b4 <prlock>
    1fa8:	184000ef          	jal	ra,212c <spinlock_release>
    1fac:	0080006f          	j	1fb4 <printf+0x198>
    1fb0:	00000013          	nop
    1fb4:	02c12083          	lw	ra,44(sp)
    1fb8:	02812403          	lw	s0,40(sp)
    1fbc:	05010113          	addi	sp,sp,80
    1fc0:	00008067          	ret

00001fc4 <panic>:
    1fc4:	fd010113          	addi	sp,sp,-48
    1fc8:	02112623          	sw	ra,44(sp)
    1fcc:	02812423          	sw	s0,40(sp)
    1fd0:	03010413          	addi	s0,sp,48
    1fd4:	fca42e23          	sw	a0,-36(s0)
    1fd8:	000027b7          	lui	a5,0x2
    1fdc:	2b478793          	addi	a5,a5,692 # 22b4 <prlock>
    1fe0:	0007a023          	sw	zero,0(a5)
    1fe4:	000027b7          	lui	a5,0x2
    1fe8:	28878513          	addi	a0,a5,648 # 2288 <consoleinit+0x2c>
    1fec:	e31ff0ef          	jal	ra,1e1c <printf>
    1ff0:	fdc42503          	lw	a0,-36(s0)
    1ff4:	e29ff0ef          	jal	ra,1e1c <printf>
    1ff8:	000027b7          	lui	a5,0x2
    1ffc:	29478513          	addi	a0,a5,660 # 2294 <consoleinit+0x38>
    2000:	e1dff0ef          	jal	ra,1e1c <printf>
    2004:	fe042623          	sw	zero,-20(s0)
    2008:	fec42783          	lw	a5,-20(s0)
    200c:	00178793          	addi	a5,a5,1
    2010:	fef42623          	sw	a5,-20(s0)
    2014:	ff5ff06f          	j	2008 <panic+0x44>

00002018 <printfinit>:
    2018:	ff010113          	addi	sp,sp,-16
    201c:	00112623          	sw	ra,12(sp)
    2020:	00812423          	sw	s0,8(sp)
    2024:	01010413          	addi	s0,sp,16
    2028:	000027b7          	lui	a5,0x2
    202c:	2b478513          	addi	a0,a5,692 # 22b4 <prlock>
    2030:	0a0000ef          	jal	ra,20d0 <spinlock_acquire>
    2034:	00000013          	nop
    2038:	00c12083          	lw	ra,12(sp)
    203c:	00812403          	lw	s0,8(sp)
    2040:	01010113          	addi	sp,sp,16
    2044:	00008067          	ret

00002048 <mycpu>:
    2048:	ff010113          	addi	sp,sp,-16
    204c:	00812623          	sw	s0,12(sp)
    2050:	01010413          	addi	s0,sp,16
    2054:	00000793          	li	a5,0
    2058:	00078513          	mv	a0,a5
    205c:	00c12403          	lw	s0,12(sp)
    2060:	01010113          	addi	sp,sp,16
    2064:	00008067          	ret

00002068 <amoswap>:
    2068:	fd010113          	addi	sp,sp,-48
    206c:	02812623          	sw	s0,44(sp)
    2070:	03010413          	addi	s0,sp,48
    2074:	fca42e23          	sw	a0,-36(s0)
    2078:	fcb42c23          	sw	a1,-40(s0)
    207c:	fd842783          	lw	a5,-40(s0)
    2080:	fdc40713          	addi	a4,s0,-36
    2084:	0ef727af          	amoswap.w.aqrl	a5,a5,(a4)
    2088:	fef42623          	sw	a5,-20(s0)
    208c:	fec42783          	lw	a5,-20(s0)
    2090:	00078513          	mv	a0,a5
    2094:	02c12403          	lw	s0,44(sp)
    2098:	03010113          	addi	sp,sp,48
    209c:	00008067          	ret

000020a0 <spinlock_init>:
    20a0:	fe010113          	addi	sp,sp,-32
    20a4:	00812e23          	sw	s0,28(sp)
    20a8:	02010413          	addi	s0,sp,32
    20ac:	fea42623          	sw	a0,-20(s0)
    20b0:	fec42783          	lw	a5,-20(s0)
    20b4:	0007a023          	sw	zero,0(a5)
    20b8:	fec42783          	lw	a5,-20(s0)
    20bc:	0007a223          	sw	zero,4(a5)
    20c0:	00000013          	nop
    20c4:	01c12403          	lw	s0,28(sp)
    20c8:	02010113          	addi	sp,sp,32
    20cc:	00008067          	ret

000020d0 <spinlock_acquire>:
    20d0:	fe010113          	addi	sp,sp,-32
    20d4:	00112e23          	sw	ra,28(sp)
    20d8:	00812c23          	sw	s0,24(sp)
    20dc:	02010413          	addi	s0,sp,32
    20e0:	fea42623          	sw	a0,-20(s0)
    20e4:	0ff0000f          	fence
    20e8:	00000013          	nop
    20ec:	fec42783          	lw	a5,-20(s0)
    20f0:	00100593          	li	a1,1
    20f4:	00078513          	mv	a0,a5
    20f8:	f71ff0ef          	jal	ra,2068 <amoswap>
    20fc:	00050793          	mv	a5,a0
    2100:	fe0796e3          	bnez	a5,20ec <spinlock_acquire+0x1c>
    2104:	f45ff0ef          	jal	ra,2048 <mycpu>
    2108:	00050713          	mv	a4,a0
    210c:	fec42783          	lw	a5,-20(s0)
    2110:	00e7a223          	sw	a4,4(a5)
    2114:	0ff0000f          	fence
    2118:	00000013          	nop
    211c:	01c12083          	lw	ra,28(sp)
    2120:	01812403          	lw	s0,24(sp)
    2124:	02010113          	addi	sp,sp,32
    2128:	00008067          	ret

0000212c <spinlock_release>:
    212c:	fe010113          	addi	sp,sp,-32
    2130:	00112e23          	sw	ra,28(sp)
    2134:	00812c23          	sw	s0,24(sp)
    2138:	02010413          	addi	s0,sp,32
    213c:	fea42623          	sw	a0,-20(s0)
    2140:	0ff0000f          	fence
    2144:	fec42783          	lw	a5,-20(s0)
    2148:	00000593          	li	a1,0
    214c:	00078513          	mv	a0,a5
    2150:	f19ff0ef          	jal	ra,2068 <amoswap>
    2154:	0ff0000f          	fence
    2158:	00000013          	nop
    215c:	01c12083          	lw	ra,28(sp)
    2160:	01812403          	lw	s0,24(sp)
    2164:	02010113          	addi	sp,sp,32
    2168:	00008067          	ret

0000216c <uartinit>:
    216c:	ff010113          	addi	sp,sp,-16
    2170:	00112623          	sw	ra,12(sp)
    2174:	00812423          	sw	s0,8(sp)
    2178:	01010413          	addi	s0,sp,16
    217c:	000027b7          	lui	a5,0x2
    2180:	2bc78513          	addi	a0,a5,700 # 22bc <txlock>
    2184:	f1dff0ef          	jal	ra,20a0 <spinlock_init>
    2188:	00000013          	nop
    218c:	00c12083          	lw	ra,12(sp)
    2190:	00812403          	lw	s0,8(sp)
    2194:	01010113          	addi	sp,sp,16
    2198:	00008067          	ret

0000219c <uart_send_char>:
    219c:	fd010113          	addi	sp,sp,-48
    21a0:	02112623          	sw	ra,44(sp)
    21a4:	02812423          	sw	s0,40(sp)
    21a8:	03010413          	addi	s0,sp,48
    21ac:	00050793          	mv	a5,a0
    21b0:	fcf40fa3          	sb	a5,-33(s0)
    21b4:	000027b7          	lui	a5,0x2
    21b8:	2bc78513          	addi	a0,a5,700 # 22bc <txlock>
    21bc:	f15ff0ef          	jal	ra,20d0 <spinlock_acquire>
    21c0:	ff0007b7          	lui	a5,0xff000
    21c4:	10078793          	addi	a5,a5,256 # ff000100 <_end+0xfeffde3c>
    21c8:	0007c783          	lbu	a5,0(a5)
    21cc:	0ff7f793          	andi	a5,a5,255
    21d0:	fef42623          	sw	a5,-20(s0)
    21d4:	fec42783          	lw	a5,-20(s0)
    21d8:	00178713          	addi	a4,a5,1
    21dc:	41f75793          	srai	a5,a4,0x1f
    21e0:	0187d793          	srli	a5,a5,0x18
    21e4:	00f70733          	add	a4,a4,a5
    21e8:	0ff77713          	andi	a4,a4,255
    21ec:	40f707b3          	sub	a5,a4,a5
    21f0:	fef42423          	sw	a5,-24(s0)
    21f4:	fec42703          	lw	a4,-20(s0)
    21f8:	ff0007b7          	lui	a5,0xff000
    21fc:	00f707b3          	add	a5,a4,a5
    2200:	fdf44703          	lbu	a4,-33(s0)
    2204:	00e78023          	sb	a4,0(a5) # ff000000 <_end+0xfeffdd3c>
    2208:	ff0007b7          	lui	a5,0xff000
    220c:	10078793          	addi	a5,a5,256 # ff000100 <_end+0xfeffde3c>
    2210:	fe842703          	lw	a4,-24(s0)
    2214:	0ff77713          	andi	a4,a4,255
    2218:	00e78023          	sb	a4,0(a5)
    221c:	00000013          	nop
    2220:	ff0007b7          	lui	a5,0xff000
    2224:	10478793          	addi	a5,a5,260 # ff000104 <_end+0xfeffde40>
    2228:	0007c783          	lbu	a5,0(a5)
    222c:	0ff7f793          	andi	a5,a5,255
    2230:	00078713          	mv	a4,a5
    2234:	fe842783          	lw	a5,-24(s0)
    2238:	fee794e3          	bne	a5,a4,2220 <uart_send_char+0x84>
    223c:	000027b7          	lui	a5,0x2
    2240:	2bc78513          	addi	a0,a5,700 # 22bc <txlock>
    2244:	ee9ff0ef          	jal	ra,212c <spinlock_release>
    2248:	00000013          	nop
    224c:	02c12083          	lw	ra,44(sp)
    2250:	02812403          	lw	s0,40(sp)
    2254:	03010113          	addi	sp,sp,48
    2258:	00008067          	ret

0000225c <consoleinit>:
    225c:	ff010113          	addi	sp,sp,-16
    2260:	00812623          	sw	s0,12(sp)
    2264:	01010413          	addi	s0,sp,16
    2268:	00000013          	nop
    226c:	00c12403          	lw	s0,12(sp)
    2270:	01010113          	addi	sp,sp,16
    2274:	00008067          	ret
