
kernel/kernel:     file format elf32-littleriscv


Disassembly of section .text:

00000000 <_entry>:
       0:	0000d117          	auipc	sp,0xd
       4:	40010113          	add	sp,sp,1024 # d400 <stack0>
       8:	00001537          	lui	a0,0x1
       c:	f14025f3          	csrr	a1,mhartid
      10:	00158593          	add	a1,a1,1
      14:	02b50533          	mul	a0,a0,a1
      18:	00a10133          	add	sp,sp,a0
      1c:	008000ef          	jal	24 <start>

00000020 <junk>:
      20:	0000006f          	j	20 <junk>

00000024 <start>:
void uartputc(int c);

// entry.S jumps here in machine mode on stack0.
void
start()
{
      24:	ff010113          	add	sp,sp,-16
      28:	00812623          	sw	s0,12(sp)
      2c:	01010413          	add	s0,sp,16

static inline uint32
r_mstatus()
{
  uint32 x;
  asm volatile("csrr %0, mstatus" : "=r" (x) );
      30:	300027f3          	csrr	a5,mstatus
  // set M Previous Privilege mode to Supervisor, for mret.
  unsigned long x = r_mstatus();
  x &= ~MSTATUS_MPP_MASK;
      34:	ffffe737          	lui	a4,0xffffe
      38:	7ff70713          	add	a4,a4,2047 # ffffe7ff <end+0xfffda7eb>
      3c:	00e7f7b3          	and	a5,a5,a4
  x |= MSTATUS_MPP_S;
      40:	00001737          	lui	a4,0x1
      44:	80070713          	add	a4,a4,-2048 # 800 <printf+0xd0>
      48:	00e7e7b3          	or	a5,a5,a4
}

static inline void 
w_mstatus(uint32 x)
{
  asm volatile("csrw mstatus, %0" : : "r" (x));
      4c:	30079073          	csrw	mstatus,a5
// instruction address to which a return from
// exception will go.
static inline void 
w_mepc(uint32 x)
{
  asm volatile("csrw mepc, %0" : : "r" (x));
      50:	0000b797          	auipc	a5,0xb
      54:	0e078793          	add	a5,a5,224 # b130 <main>
      58:	34179073          	csrw	mepc,a5
// supervisor address translation and protection;
// holds the address of the page table.
static inline void 
w_satp(uint32 x)
{
  asm volatile("csrw satp, %0" : : "r" (x));
      5c:	00000793          	li	a5,0
      60:	18079073          	csrw	satp,a5
  asm volatile("csrw medeleg, %0" : : "r" (x));
      64:	000107b7          	lui	a5,0x10
      68:	fff78793          	add	a5,a5,-1 # ffff <stack0+0x2bff>
      6c:	30279073          	csrw	medeleg,a5
  asm volatile("csrw mideleg, %0" : : "r" (x));
      70:	30379073          	csrw	mideleg,a5
  asm volatile("csrr %0, mhartid" : "=r" (x) );
      74:	f1402673          	csrr	a2,mhartid
  // each CPU has a separate source of timer interrupts.
  int id = r_mhartid();

  // ask the CLINT for a timer interrupt.
  uint32 interval = 100000; // cycles; about 1/10th second in qemu.
  *(uint64*)CLINT_MTIMECMP(id) = *(uint64*)CLINT_MTIME + interval;
      78:	f00005b7          	lui	a1,0xf0000
      7c:	0005a703          	lw	a4,0(a1) # f0000000 <end+0xeffdbfec>
      80:	000186b7          	lui	a3,0x18
      84:	0045a803          	lw	a6,4(a1)
      88:	6a068693          	add	a3,a3,1696 # 186a0 <proc+0x2fbc>
      8c:	00d70533          	add	a0,a4,a3
      90:	00160793          	add	a5,a2,1
      94:	00e53733          	sltu	a4,a0,a4
      98:	00379793          	sll	a5,a5,0x3
      9c:	00b787b3          	add	a5,a5,a1
      a0:	01070733          	add	a4,a4,a6
      a4:	00e7a223          	sw	a4,4(a5)

  // prepare information in scratch[] for timervec.
  // scratch[0..3] : space for timervec to save registers.
  // scratch[4] : address of CLINT MTIMECMP register.
  // scratch[5] : desired interval (in cycles) between timer interrupts.
  uint32 *scratch = &mscratch0[32 * id];
      a8:	00761613          	sll	a2,a2,0x7
      ac:	0000d717          	auipc	a4,0xd
      b0:	f5470713          	add	a4,a4,-172 # d000 <mscratch0>
  *(uint64*)CLINT_MTIMECMP(id) = *(uint64*)CLINT_MTIME + interval;
      b4:	00a7a023          	sw	a0,0(a5)
  uint32 *scratch = &mscratch0[32 * id];
      b8:	00c70733          	add	a4,a4,a2
  scratch[4] = CLINT_MTIMECMP(id);
      bc:	00f72823          	sw	a5,16(a4)
  scratch[5] = interval;
      c0:	00d72a23          	sw	a3,20(a4)
}

static inline void 
w_mscratch(uint32 x)
{
  asm volatile("csrw mscratch, %0" : : "r" (x));
      c4:	34071073          	csrw	mscratch,a4
  asm volatile("csrw mtvec, %0" : : "r" (x));
      c8:	0000a797          	auipc	a5,0xa
      cc:	cc878793          	add	a5,a5,-824 # 9d90 <timervec>
      d0:	30579073          	csrw	mtvec,a5
  asm volatile("csrr %0, mstatus" : "=r" (x) );
      d4:	300027f3          	csrr	a5,mstatus

  // set the machine-mode trap handler.
  w_mtvec((uint32)timervec);

  // enable machine-mode interrupts.
  w_mstatus(r_mstatus() | MSTATUS_MIE);
      d8:	0087e793          	or	a5,a5,8
  asm volatile("csrw mstatus, %0" : : "r" (x));
      dc:	30079073          	csrw	mstatus,a5
  asm volatile("csrr %0, mie" : "=r" (x) );
      e0:	304027f3          	csrr	a5,mie

  // enable machine-mode timer interrupts.
  #define MIE_SEIE (1 << 9)
  w_mie(r_mie() | MIE_MTIE | MIE_SEIE);
      e4:	2807e793          	or	a5,a5,640
  asm volatile("csrw mie, %0" : : "r" (x));
      e8:	30479073          	csrw	mie,a5
  asm volatile("csrr %0, mhartid" : "=r" (x) );
      ec:	f14027f3          	csrr	a5,mhartid
}

static inline void 
w_tp(uint32 x)
{
  asm volatile("mv tp, %0" : : "r" (x));
      f0:	00078213          	mv	tp,a5
  asm volatile("mret");
      f4:	30200073          	mret
}
      f8:	00c12403          	lw	s0,12(sp)
      fc:	01010113          	add	sp,sp,16
     100:	00008067          	ret

00000104 <timerinit>:
{
     104:	ff010113          	add	sp,sp,-16
     108:	00812623          	sw	s0,12(sp)
     10c:	01010413          	add	s0,sp,16
  asm volatile("csrr %0, mhartid" : "=r" (x) );
     110:	f1402673          	csrr	a2,mhartid
  *(uint64*)CLINT_MTIMECMP(id) = *(uint64*)CLINT_MTIME + interval;
     114:	f00005b7          	lui	a1,0xf0000
     118:	0005a703          	lw	a4,0(a1) # f0000000 <end+0xeffdbfec>
     11c:	000186b7          	lui	a3,0x18
     120:	0045a803          	lw	a6,4(a1)
     124:	6a068693          	add	a3,a3,1696 # 186a0 <proc+0x2fbc>
     128:	00d70533          	add	a0,a4,a3
     12c:	00160793          	add	a5,a2,1
     130:	00e53733          	sltu	a4,a0,a4
     134:	00379793          	sll	a5,a5,0x3
     138:	00b787b3          	add	a5,a5,a1
     13c:	01070733          	add	a4,a4,a6
     140:	00e7a223          	sw	a4,4(a5)
  uint32 *scratch = &mscratch0[32 * id];
     144:	00761613          	sll	a2,a2,0x7
     148:	0000d717          	auipc	a4,0xd
     14c:	eb870713          	add	a4,a4,-328 # d000 <mscratch0>
  *(uint64*)CLINT_MTIMECMP(id) = *(uint64*)CLINT_MTIME + interval;
     150:	00a7a023          	sw	a0,0(a5)
  uint32 *scratch = &mscratch0[32 * id];
     154:	00c70733          	add	a4,a4,a2
  scratch[4] = CLINT_MTIMECMP(id);
     158:	00f72823          	sw	a5,16(a4)
  scratch[5] = interval;
     15c:	00d72a23          	sw	a3,20(a4)
  asm volatile("csrw mscratch, %0" : : "r" (x));
     160:	34071073          	csrw	mscratch,a4
  asm volatile("csrw mtvec, %0" : : "r" (x));
     164:	0000a797          	auipc	a5,0xa
     168:	c2c78793          	add	a5,a5,-980 # 9d90 <timervec>
     16c:	30579073          	csrw	mtvec,a5
  asm volatile("csrr %0, mstatus" : "=r" (x) );
     170:	300027f3          	csrr	a5,mstatus
  w_mstatus(r_mstatus() | MSTATUS_MIE);
     174:	0087e793          	or	a5,a5,8
  asm volatile("csrw mstatus, %0" : : "r" (x));
     178:	30079073          	csrw	mstatus,a5
  asm volatile("csrr %0, mie" : "=r" (x) );
     17c:	304027f3          	csrr	a5,mie
  w_mie(r_mie() | MIE_MTIE | MIE_SEIE);
     180:	2807e793          	or	a5,a5,640
  asm volatile("csrw mie, %0" : : "r" (x));
     184:	30479073          	csrw	mie,a5
}
     188:	00c12403          	lw	s0,12(sp)
     18c:	01010113          	add	sp,sp,16
     190:	00008067          	ret

00000194 <consoleread>:
// user_dist indicates whether dst is a user
// or kernel address.
//
int
consoleread(int user_dst, uint32 dst, int n)
{
     194:	fc010113          	add	sp,sp,-64
     198:	02812c23          	sw	s0,56(sp)
     19c:	02912a23          	sw	s1,52(sp)
     1a0:	03212823          	sw	s2,48(sp)
     1a4:	03312623          	sw	s3,44(sp)
     1a8:	03412423          	sw	s4,40(sp)
     1ac:	03512223          	sw	s5,36(sp)
     1b0:	03612023          	sw	s6,32(sp)
     1b4:	02112e23          	sw	ra,60(sp)
     1b8:	01712e23          	sw	s7,28(sp)
     1bc:	04010413          	add	s0,sp,64
     1c0:	00050b13          	mv	s6,a0
  uint target;
  int c;
  char cbuf;

  target = n;
  acquire(&cons.lock);
     1c4:	00015517          	auipc	a0,0x15
     1c8:	23c50513          	add	a0,a0,572 # 15400 <cons>
{
     1cc:	00060993          	mv	s3,a2
     1d0:	00058a93          	mv	s5,a1
  target = n;
     1d4:	00060a13          	mv	s4,a2
  while(n > 0){
    // wait until interrupt handler has put some
    // input into cons.buffer.
    while(cons.r == cons.w){
     1d8:	00015497          	auipc	s1,0x15
     1dc:	22848493          	add	s1,s1,552 # 15400 <cons>
  acquire(&cons.lock);
     1e0:	00001097          	auipc	ra,0x1
     1e4:	f90080e7          	jalr	-112(ra) # 1170 <acquire>
      if(myproc()->killed){
        release(&cons.lock);
        return -1;
      }
      sleep(&cons.r, &cons.lock);
     1e8:	00015917          	auipc	s2,0x15
     1ec:	2a490913          	add	s2,s2,676 # 1548c <cons+0x8c>
  while(n > 0){
     1f0:	03304663          	bgtz	s3,21c <consoleread+0x88>
     1f4:	0840006f          	j	278 <consoleread+0xe4>
      if(myproc()->killed){
     1f8:	00003097          	auipc	ra,0x3
     1fc:	22c080e7          	jalr	556(ra) # 3424 <myproc>
     200:	00050793          	mv	a5,a0
     204:	0187a783          	lw	a5,24(a5)
      sleep(&cons.r, &cons.lock);
     208:	00048593          	mv	a1,s1
     20c:	00090513          	mv	a0,s2
      if(myproc()->killed){
     210:	08079063          	bnez	a5,290 <consoleread+0xfc>
      sleep(&cons.r, &cons.lock);
     214:	00004097          	auipc	ra,0x4
     218:	e58080e7          	jalr	-424(ra) # 406c <sleep>
    while(cons.r == cons.w){
     21c:	08c4a783          	lw	a5,140(s1)
     220:	0904a703          	lw	a4,144(s1)
     224:	fce78ae3          	beq	a5,a4,1f8 <consoleread+0x64>
    }

    c = cons.buf[cons.r++ % INPUT_BUF];
     228:	07f7f713          	and	a4,a5,127
     22c:	00e48733          	add	a4,s1,a4
     230:	00c74b83          	lbu	s7,12(a4)
     234:	00178713          	add	a4,a5,1
     238:	08e4a623          	sw	a4,140(s1)

    if(c == C('D')){  // end-of-file
     23c:	00400713          	li	a4,4
     240:	08eb8863          	beq	s7,a4,2d0 <consoleread+0x13c>
      }
      break;
    }

    // copy the input byte to the user-space buffer.
    cbuf = c;
     244:	015a05b3          	add	a1,s4,s5
    if(either_copyout(user_dst, dst, &cbuf, 1) == -1)
     248:	00100693          	li	a3,1
     24c:	fcf40613          	add	a2,s0,-49
     250:	413585b3          	sub	a1,a1,s3
     254:	000b0513          	mv	a0,s6
    cbuf = c;
     258:	fd7407a3          	sb	s7,-49(s0)
    if(either_copyout(user_dst, dst, &cbuf, 1) == -1)
     25c:	00004097          	auipc	ra,0x4
     260:	068080e7          	jalr	104(ra) # 42c4 <either_copyout>
     264:	fff00793          	li	a5,-1
     268:	00f50863          	beq	a0,a5,278 <consoleread+0xe4>
      break;

    dst++;
    --n;

    if(c == '\n'){
     26c:	00a00793          	li	a5,10
    --n;
     270:	fff98993          	add	s3,s3,-1
    if(c == '\n'){
     274:	f6fb9ee3          	bne	s7,a5,1f0 <consoleread+0x5c>
      // a whole line has arrived, return to
      // the user-level read().
      break;
    }
  }
  release(&cons.lock);
     278:	00015517          	auipc	a0,0x15
     27c:	18850513          	add	a0,a0,392 # 15400 <cons>
     280:	00001097          	auipc	ra,0x1
     284:	07c080e7          	jalr	124(ra) # 12fc <release>

  return target - n;
     288:	413a0533          	sub	a0,s4,s3
     28c:	0180006f          	j	2a4 <consoleread+0x110>
        release(&cons.lock);
     290:	00015517          	auipc	a0,0x15
     294:	17050513          	add	a0,a0,368 # 15400 <cons>
     298:	00001097          	auipc	ra,0x1
     29c:	064080e7          	jalr	100(ra) # 12fc <release>
        return -1;
     2a0:	fff00513          	li	a0,-1
}
     2a4:	03c12083          	lw	ra,60(sp)
     2a8:	03812403          	lw	s0,56(sp)
     2ac:	03412483          	lw	s1,52(sp)
     2b0:	03012903          	lw	s2,48(sp)
     2b4:	02c12983          	lw	s3,44(sp)
     2b8:	02812a03          	lw	s4,40(sp)
     2bc:	02412a83          	lw	s5,36(sp)
     2c0:	02012b03          	lw	s6,32(sp)
     2c4:	01c12b83          	lw	s7,28(sp)
     2c8:	04010113          	add	sp,sp,64
     2cc:	00008067          	ret
      if(n < target){
     2d0:	fb49f4e3          	bgeu	s3,s4,278 <consoleread+0xe4>
        cons.r--;
     2d4:	08f4a623          	sw	a5,140(s1)
     2d8:	fa1ff06f          	j	278 <consoleread+0xe4>

000002dc <consolewrite>:
{
     2dc:	fd010113          	add	sp,sp,-48
     2e0:	02812423          	sw	s0,40(sp)
     2e4:	02912223          	sw	s1,36(sp)
     2e8:	03212023          	sw	s2,32(sp)
     2ec:	01312e23          	sw	s3,28(sp)
     2f0:	01612823          	sw	s6,16(sp)
     2f4:	02112623          	sw	ra,44(sp)
     2f8:	01412c23          	sw	s4,24(sp)
     2fc:	01512a23          	sw	s5,20(sp)
     300:	03010413          	add	s0,sp,48
     304:	00050993          	mv	s3,a0
     308:	00060913          	mv	s2,a2
  acquire(&cons.lock);
     30c:	00015517          	auipc	a0,0x15
     310:	0f450513          	add	a0,a0,244 # 15400 <cons>
{
     314:	00058493          	mv	s1,a1
     318:	00b60b33          	add	s6,a2,a1
  acquire(&cons.lock);
     31c:	00001097          	auipc	ra,0x1
     320:	e54080e7          	jalr	-428(ra) # 1170 <acquire>
  for(i = 0; i < n; i++){
     324:	05205463          	blez	s2,36c <consolewrite+0x90>
     328:	fff00a13          	li	s4,-1
     32c:	00024a97          	auipc	s5,0x24
     330:	cd4a8a93          	add	s5,s5,-812 # 24000 <panicked>
    if(either_copyin(&c, user_src, src+i, 1) == -1)
     334:	00048613          	mv	a2,s1
     338:	00100693          	li	a3,1
     33c:	00098593          	mv	a1,s3
     340:	fdf40513          	add	a0,s0,-33
     344:	00004097          	auipc	ra,0x4
     348:	05c080e7          	jalr	92(ra) # 43a0 <either_copyin>
  for(i = 0; i < n; i++){
     34c:	00148493          	add	s1,s1,1
    if(either_copyin(&c, user_src, src+i, 1) == -1)
     350:	01450e63          	beq	a0,s4,36c <consolewrite+0x90>
  if(panicked){
     354:	000aa783          	lw	a5,0(s5)
     358:	04079863          	bnez	a5,3a8 <consolewrite+0xcc>
    uartputc(c);
     35c:	fdf44503          	lbu	a0,-33(s0)
     360:	00001097          	auipc	ra,0x1
     364:	a24080e7          	jalr	-1500(ra) # d84 <uartputc>
  for(i = 0; i < n; i++){
     368:	fd6496e3          	bne	s1,s6,334 <consolewrite+0x58>
  release(&cons.lock);
     36c:	00015517          	auipc	a0,0x15
     370:	09450513          	add	a0,a0,148 # 15400 <cons>
     374:	00001097          	auipc	ra,0x1
     378:	f88080e7          	jalr	-120(ra) # 12fc <release>
}
     37c:	02c12083          	lw	ra,44(sp)
     380:	02812403          	lw	s0,40(sp)
     384:	02412483          	lw	s1,36(sp)
     388:	01c12983          	lw	s3,28(sp)
     38c:	01812a03          	lw	s4,24(sp)
     390:	01412a83          	lw	s5,20(sp)
     394:	01012b03          	lw	s6,16(sp)
     398:	00090513          	mv	a0,s2
     39c:	02012903          	lw	s2,32(sp)
     3a0:	03010113          	add	sp,sp,48
     3a4:	00008067          	ret
    for(;;)
     3a8:	0000006f          	j	3a8 <consolewrite+0xcc>

000003ac <consputc>:
  if(panicked){
     3ac:	00024717          	auipc	a4,0x24
     3b0:	c5472703          	lw	a4,-940(a4) # 24000 <panicked>
     3b4:	00071a63          	bnez	a4,3c8 <consputc+0x1c>
  if(c == BACKSPACE){
     3b8:	10000713          	li	a4,256
     3bc:	00e50863          	beq	a0,a4,3cc <consputc+0x20>
    uartputc(c);
     3c0:	00001317          	auipc	t1,0x1
     3c4:	9c430067          	jr	-1596(t1) # d84 <uartputc>
    for(;;)
     3c8:	0000006f          	j	3c8 <consputc+0x1c>
{
     3cc:	ff010113          	add	sp,sp,-16
     3d0:	00112623          	sw	ra,12(sp)
     3d4:	00812423          	sw	s0,8(sp)
     3d8:	01010413          	add	s0,sp,16
    uartputc('\b'); uartputc(' '); uartputc('\b');
     3dc:	00800513          	li	a0,8
     3e0:	00001097          	auipc	ra,0x1
     3e4:	9a4080e7          	jalr	-1628(ra) # d84 <uartputc>
     3e8:	02000513          	li	a0,32
     3ec:	00001097          	auipc	ra,0x1
     3f0:	998080e7          	jalr	-1640(ra) # d84 <uartputc>
}
     3f4:	00812403          	lw	s0,8(sp)
     3f8:	00c12083          	lw	ra,12(sp)
    uartputc('\b'); uartputc(' '); uartputc('\b');
     3fc:	00800513          	li	a0,8
}
     400:	01010113          	add	sp,sp,16
    uartputc('\b'); uartputc(' '); uartputc('\b');
     404:	00001317          	auipc	t1,0x1
     408:	98030067          	jr	-1664(t1) # d84 <uartputc>

0000040c <consoleintr>:
// do erase/kill processing, append to cons.buf,
// wake up consoleread() if a whole line has arrived.
//
void
consoleintr(int c)
{
     40c:	fe010113          	add	sp,sp,-32
     410:	00812c23          	sw	s0,24(sp)
     414:	00912a23          	sw	s1,20(sp)
     418:	01212823          	sw	s2,16(sp)
     41c:	00112e23          	sw	ra,28(sp)
     420:	01312623          	sw	s3,12(sp)
     424:	02010413          	add	s0,sp,32
  acquire(&cons.lock);
     428:	00015917          	auipc	s2,0x15
     42c:	fd890913          	add	s2,s2,-40 # 15400 <cons>
{
     430:	00050493          	mv	s1,a0
  acquire(&cons.lock);
     434:	00090513          	mv	a0,s2
     438:	00001097          	auipc	ra,0x1
     43c:	d38080e7          	jalr	-712(ra) # 1170 <acquire>

  switch(c){
     440:	01500793          	li	a5,21
     444:	10f48e63          	beq	s1,a5,560 <consoleintr+0x154>
     448:	0497c263          	blt	a5,s1,48c <consoleintr+0x80>
     44c:	00800793          	li	a5,8
     450:	0cf48463          	beq	s1,a5,518 <consoleintr+0x10c>
     454:	01000793          	li	a5,16
     458:	16f49e63          	bne	s1,a5,5d4 <consoleintr+0x1c8>
  case C('P'):  // Print process list.
    procdump();
     45c:	00004097          	auipc	ra,0x4
     460:	020080e7          	jalr	32(ra) # 447c <procdump>
    }
    break;
  }
  
  release(&cons.lock);
}
     464:	01812403          	lw	s0,24(sp)
     468:	01c12083          	lw	ra,28(sp)
     46c:	01412483          	lw	s1,20(sp)
     470:	01012903          	lw	s2,16(sp)
     474:	00c12983          	lw	s3,12(sp)
  release(&cons.lock);
     478:	00015517          	auipc	a0,0x15
     47c:	f8850513          	add	a0,a0,-120 # 15400 <cons>
}
     480:	02010113          	add	sp,sp,32
  release(&cons.lock);
     484:	00001317          	auipc	t1,0x1
     488:	e7830067          	jr	-392(t1) # 12fc <release>
  switch(c){
     48c:	07f00793          	li	a5,127
     490:	08f48463          	beq	s1,a5,518 <consoleintr+0x10c>
    if(c != 0 && cons.e-cons.r < INPUT_BUF){
     494:	09492703          	lw	a4,148(s2)
     498:	08c92683          	lw	a3,140(s2)
     49c:	40d70733          	sub	a4,a4,a3
     4a0:	fce7e2e3          	bltu	a5,a4,464 <consoleintr+0x58>
  if(panicked){
     4a4:	00024797          	auipc	a5,0x24
     4a8:	b5c7a783          	lw	a5,-1188(a5) # 24000 <panicked>
     4ac:	18079663          	bnez	a5,638 <consoleintr+0x22c>
  if(c == BACKSPACE){
     4b0:	10000793          	li	a5,256
     4b4:	18f49463          	bne	s1,a5,63c <consoleintr+0x230>
    uartputc('\b'); uartputc(' '); uartputc('\b');
     4b8:	00800513          	li	a0,8
     4bc:	00001097          	auipc	ra,0x1
     4c0:	8c8080e7          	jalr	-1848(ra) # d84 <uartputc>
     4c4:	02000513          	li	a0,32
     4c8:	00001097          	auipc	ra,0x1
     4cc:	8bc080e7          	jalr	-1860(ra) # d84 <uartputc>
     4d0:	00800513          	li	a0,8
     4d4:	00001097          	auipc	ra,0x1
     4d8:	8b0080e7          	jalr	-1872(ra) # d84 <uartputc>
      cons.buf[cons.e++ % INPUT_BUF] = c;
     4dc:	09492783          	lw	a5,148(s2)
     4e0:	07f7f713          	and	a4,a5,127
     4e4:	00e90733          	add	a4,s2,a4
     4e8:	00178793          	add	a5,a5,1
     4ec:	08f92a23          	sw	a5,148(s2)
     4f0:	00070623          	sb	zero,12(a4)
      if(c == '\n' || c == C('D') || cons.e == cons.r+INPUT_BUF){
     4f4:	08c92703          	lw	a4,140(s2)
     4f8:	08070713          	add	a4,a4,128
     4fc:	f6f714e3          	bne	a4,a5,464 <consoleintr+0x58>
        wakeup(&cons.r);
     500:	00015517          	auipc	a0,0x15
     504:	f8c50513          	add	a0,a0,-116 # 1548c <cons+0x8c>
        cons.w = cons.e;
     508:	08f92823          	sw	a5,144(s2)
        wakeup(&cons.r);
     50c:	00004097          	auipc	ra,0x4
     510:	c4c080e7          	jalr	-948(ra) # 4158 <wakeup>
     514:	f51ff06f          	j	464 <consoleintr+0x58>
    if(cons.e != cons.w){
     518:	09492783          	lw	a5,148(s2)
     51c:	09092703          	lw	a4,144(s2)
     520:	f4e782e3          	beq	a5,a4,464 <consoleintr+0x58>
      cons.e--;
     524:	fff78793          	add	a5,a5,-1
     528:	08f92a23          	sw	a5,148(s2)
  if(panicked){
     52c:	00024797          	auipc	a5,0x24
     530:	ad47a783          	lw	a5,-1324(a5) # 24000 <panicked>
     534:	08079e63          	bnez	a5,5d0 <consoleintr+0x1c4>
    uartputc('\b'); uartputc(' '); uartputc('\b');
     538:	00800513          	li	a0,8
     53c:	00001097          	auipc	ra,0x1
     540:	848080e7          	jalr	-1976(ra) # d84 <uartputc>
     544:	02000513          	li	a0,32
     548:	00001097          	auipc	ra,0x1
     54c:	83c080e7          	jalr	-1988(ra) # d84 <uartputc>
     550:	00800513          	li	a0,8
     554:	00001097          	auipc	ra,0x1
     558:	830080e7          	jalr	-2000(ra) # d84 <uartputc>
}
     55c:	f09ff06f          	j	464 <consoleintr+0x58>
    while(cons.e != cons.w &&
     560:	09492783          	lw	a5,148(s2)
     564:	09092703          	lw	a4,144(s2)
     568:	00a00493          	li	s1,10
  if(panicked){
     56c:	00024997          	auipc	s3,0x24
     570:	a9498993          	add	s3,s3,-1388 # 24000 <panicked>
    while(cons.e != cons.w &&
     574:	eee788e3          	beq	a5,a4,464 <consoleintr+0x58>
          cons.buf[(cons.e-1) % INPUT_BUF] != '\n'){
     578:	fff78793          	add	a5,a5,-1
     57c:	07f7f713          	and	a4,a5,127
     580:	00e90733          	add	a4,s2,a4
    while(cons.e != cons.w &&
     584:	00c74703          	lbu	a4,12(a4)
    uartputc('\b'); uartputc(' '); uartputc('\b');
     588:	00800513          	li	a0,8
    while(cons.e != cons.w &&
     58c:	ec970ce3          	beq	a4,s1,464 <consoleintr+0x58>
  if(panicked){
     590:	0009a703          	lw	a4,0(s3)
      cons.e--;
     594:	08f92a23          	sw	a5,148(s2)
  if(panicked){
     598:	02071a63          	bnez	a4,5cc <consoleintr+0x1c0>
    uartputc('\b'); uartputc(' '); uartputc('\b');
     59c:	00000097          	auipc	ra,0x0
     5a0:	7e8080e7          	jalr	2024(ra) # d84 <uartputc>
     5a4:	02000513          	li	a0,32
     5a8:	00000097          	auipc	ra,0x0
     5ac:	7dc080e7          	jalr	2012(ra) # d84 <uartputc>
     5b0:	00800513          	li	a0,8
     5b4:	00000097          	auipc	ra,0x0
     5b8:	7d0080e7          	jalr	2000(ra) # d84 <uartputc>
    while(cons.e != cons.w &&
     5bc:	09492783          	lw	a5,148(s2)
     5c0:	09092703          	lw	a4,144(s2)
     5c4:	fae79ae3          	bne	a5,a4,578 <consoleintr+0x16c>
     5c8:	e9dff06f          	j	464 <consoleintr+0x58>
    for(;;)
     5cc:	0000006f          	j	5cc <consoleintr+0x1c0>
     5d0:	0000006f          	j	5d0 <consoleintr+0x1c4>
    if(c != 0 && cons.e-cons.r < INPUT_BUF){
     5d4:	e80488e3          	beqz	s1,464 <consoleintr+0x58>
     5d8:	09492783          	lw	a5,148(s2)
     5dc:	08c92683          	lw	a3,140(s2)
     5e0:	07f00713          	li	a4,127
     5e4:	40d787b3          	sub	a5,a5,a3
     5e8:	e6f76ee3          	bltu	a4,a5,464 <consoleintr+0x58>
      c = (c == '\r') ? '\n' : c;
     5ec:	00d00793          	li	a5,13
     5f0:	02f49e63          	bne	s1,a5,62c <consoleintr+0x220>
  if(panicked){
     5f4:	00024797          	auipc	a5,0x24
     5f8:	a0c7a783          	lw	a5,-1524(a5) # 24000 <panicked>
     5fc:	02079e63          	bnez	a5,638 <consoleintr+0x22c>
    uartputc(c);
     600:	00a00513          	li	a0,10
     604:	00000097          	auipc	ra,0x0
     608:	780080e7          	jalr	1920(ra) # d84 <uartputc>
      cons.buf[cons.e++ % INPUT_BUF] = c;
     60c:	09492783          	lw	a5,148(s2)
     610:	00a00693          	li	a3,10
     614:	07f7f713          	and	a4,a5,127
     618:	00e90733          	add	a4,s2,a4
     61c:	00178793          	add	a5,a5,1
     620:	08f92a23          	sw	a5,148(s2)
     624:	00d70623          	sb	a3,12(a4)
      if(c == '\n' || c == C('D') || cons.e == cons.r+INPUT_BUF){
     628:	ed9ff06f          	j	500 <consoleintr+0xf4>
  if(panicked){
     62c:	00024797          	auipc	a5,0x24
     630:	9d47a783          	lw	a5,-1580(a5) # 24000 <panicked>
     634:	00078463          	beqz	a5,63c <consoleintr+0x230>
    for(;;)
     638:	0000006f          	j	638 <consoleintr+0x22c>
    uartputc(c);
     63c:	00048513          	mv	a0,s1
     640:	00000097          	auipc	ra,0x0
     644:	744080e7          	jalr	1860(ra) # d84 <uartputc>
      cons.buf[cons.e++ % INPUT_BUF] = c;
     648:	09492783          	lw	a5,148(s2)
      if(c == '\n' || c == C('D') || cons.e == cons.r+INPUT_BUF){
     64c:	00a00693          	li	a3,10
      cons.buf[cons.e++ % INPUT_BUF] = c;
     650:	07f7f713          	and	a4,a5,127
     654:	00e90733          	add	a4,s2,a4
     658:	00178793          	add	a5,a5,1
     65c:	08f92a23          	sw	a5,148(s2)
     660:	00970623          	sb	s1,12(a4)
      if(c == '\n' || c == C('D') || cons.e == cons.r+INPUT_BUF){
     664:	e8d48ee3          	beq	s1,a3,500 <consoleintr+0xf4>
     668:	00400713          	li	a4,4
     66c:	e8e48ae3          	beq	s1,a4,500 <consoleintr+0xf4>
     670:	e85ff06f          	j	4f4 <consoleintr+0xe8>

00000674 <consoleinit>:

void
consoleinit(void)
{
     674:	ff010113          	add	sp,sp,-16
     678:	00112623          	sw	ra,12(sp)
     67c:	00812423          	sw	s0,8(sp)
     680:	01010413          	add	s0,sp,16
  initlock(&cons.lock, "cons");
     684:	0000b597          	auipc	a1,0xb
     688:	bc458593          	add	a1,a1,-1084 # b248 <main+0x118>
     68c:	00015517          	auipc	a0,0x15
     690:	d7450513          	add	a0,a0,-652 # 15400 <cons>
     694:	00001097          	auipc	ra,0x1
     698:	ab8080e7          	jalr	-1352(ra) # 114c <initlock>

  uartinit();
     69c:	00000097          	auipc	ra,0x0
     6a0:	6d0080e7          	jalr	1744(ra) # d6c <uartinit>

  // connect read and write system calls
  // to consoleread and consolewrite.
  devsw[CONSOLE].read = consoleread;
  devsw[CONSOLE].write = consolewrite;
}
     6a4:	00c12083          	lw	ra,12(sp)
     6a8:	00812403          	lw	s0,8(sp)
  devsw[CONSOLE].read = consoleread;
     6ac:	00022797          	auipc	a5,0x22
     6b0:	83078793          	add	a5,a5,-2000 # 21edc <devsw>
     6b4:	00000717          	auipc	a4,0x0
     6b8:	ae070713          	add	a4,a4,-1312 # 194 <consoleread>
     6bc:	00e7a423          	sw	a4,8(a5)
  devsw[CONSOLE].write = consolewrite;
     6c0:	00000717          	auipc	a4,0x0
     6c4:	c1c70713          	add	a4,a4,-996 # 2dc <consolewrite>
     6c8:	00e7a623          	sw	a4,12(a5)
}
     6cc:	01010113          	add	sp,sp,16
     6d0:	00008067          	ret

000006d4 <panic>:
    release(&pr.lock);
}

void
panic(char *s)
{
     6d4:	ff010113          	add	sp,sp,-16
     6d8:	00112623          	sw	ra,12(sp)
     6dc:	00812423          	sw	s0,8(sp)
     6e0:	00912223          	sw	s1,4(sp)
     6e4:	01010413          	add	s0,sp,16
     6e8:	00050493          	mv	s1,a0
  pr.locking = 0;
  printf("panic: ");
     6ec:	0000b517          	auipc	a0,0xb
     6f0:	b6450513          	add	a0,a0,-1180 # b250 <main+0x120>
  pr.locking = 0;
     6f4:	00015797          	auipc	a5,0x15
     6f8:	da07a823          	sw	zero,-592(a5) # 154a4 <pr+0xc>
  printf("panic: ");
     6fc:	00000097          	auipc	ra,0x0
     700:	034080e7          	jalr	52(ra) # 730 <printf>
  printf(s);
     704:	00048513          	mv	a0,s1
     708:	00000097          	auipc	ra,0x0
     70c:	028080e7          	jalr	40(ra) # 730 <printf>
  printf("\n");
     710:	0000b517          	auipc	a0,0xb
     714:	bc850513          	add	a0,a0,-1080 # b2d8 <main+0x1a8>
     718:	00000097          	auipc	ra,0x0
     71c:	018080e7          	jalr	24(ra) # 730 <printf>
  panicked = 1; // freeze other CPUs
     720:	00100793          	li	a5,1
     724:	00024717          	auipc	a4,0x24
     728:	8cf72e23          	sw	a5,-1828(a4) # 24000 <panicked>
  for(;;)
     72c:	0000006f          	j	72c <panic+0x58>

00000730 <printf>:
{
     730:	f7010113          	add	sp,sp,-144
     734:	06812423          	sw	s0,104(sp)
     738:	07212023          	sw	s2,96(sp)
     73c:	06112623          	sw	ra,108(sp)
     740:	06912223          	sw	s1,100(sp)
     744:	05312e23          	sw	s3,92(sp)
     748:	05412c23          	sw	s4,88(sp)
     74c:	05512a23          	sw	s5,84(sp)
     750:	05612823          	sw	s6,80(sp)
     754:	05712623          	sw	s7,76(sp)
     758:	05812423          	sw	s8,72(sp)
     75c:	05912223          	sw	s9,68(sp)
     760:	05a12023          	sw	s10,64(sp)
     764:	03b12e23          	sw	s11,60(sp)
     768:	07010413          	add	s0,sp,112
  locking = pr.locking;
     76c:	00015317          	auipc	t1,0x15
     770:	d2c30313          	add	t1,t1,-724 # 15498 <pr>
     774:	00c32e03          	lw	t3,12(t1)
{
     778:	00b42223          	sw	a1,4(s0)
     77c:	00c42423          	sw	a2,8(s0)
  locking = pr.locking;
     780:	f9c42c23          	sw	t3,-104(s0)
{
     784:	00d42623          	sw	a3,12(s0)
     788:	00e42823          	sw	a4,16(s0)
     78c:	00f42a23          	sw	a5,20(s0)
     790:	01042c23          	sw	a6,24(s0)
     794:	01142e23          	sw	a7,28(s0)
     798:	00050913          	mv	s2,a0
  if(locking)
     79c:	420e1c63          	bnez	t3,bd4 <printf+0x4a4>
  if (fmt == 0)
     7a0:	56090863          	beqz	s2,d10 <printf+0x5e0>
  for(i = 0; (c = fmt[i] & 0xff) != 0; i++){
     7a4:	00094503          	lbu	a0,0(s2)
  va_start(ap, fmt);
     7a8:	00440793          	add	a5,s0,4
     7ac:	faf42623          	sw	a5,-84(s0)
  for(i = 0; (c = fmt[i] & 0xff) != 0; i++){
     7b0:	00000493          	li	s1,0
     7b4:	1c050c63          	beqz	a0,98c <printf+0x25c>
    if(c != '%'){
     7b8:	02500a13          	li	s4,37
    switch(c){
     7bc:	07000a93          	li	s5,112
     7c0:	0000bb97          	auipc	s7,0xb
     7c4:	0bcb8b93          	add	s7,s7,188 # b87c <digits>
     7c8:	07300c93          	li	s9,115
     7cc:	fb040993          	add	s3,s0,-80
     7d0:	06400c13          	li	s8,100
    buf[i++] = digits[x % base];
     7d4:	00a00b13          	li	s6,10
    if(c != '%'){
     7d8:	33451c63          	bne	a0,s4,b10 <printf+0x3e0>
    c = fmt[++i] & 0xff;
     7dc:	00148493          	add	s1,s1,1
     7e0:	009907b3          	add	a5,s2,s1
     7e4:	0007c783          	lbu	a5,0(a5)
    if(c == 0)
     7e8:	1a078263          	beqz	a5,98c <printf+0x25c>
    switch(c){
     7ec:	35578c63          	beq	a5,s5,b44 <printf+0x414>
     7f0:	1efae063          	bltu	s5,a5,9d0 <printf+0x2a0>
     7f4:	3d478863          	beq	a5,s4,bc4 <printf+0x494>
     7f8:	31879063          	bne	a5,s8,af8 <printf+0x3c8>
      printint(va_arg(ap, int), 10, 1);
     7fc:	fac42783          	lw	a5,-84(s0)
     800:	0007a603          	lw	a2,0(a5)
     804:	00478793          	add	a5,a5,4
     808:	faf42623          	sw	a5,-84(s0)
  if(sign && (sign = xx < 0))
     80c:	40064463          	bltz	a2,c14 <printf+0x4e4>
    buf[i++] = digits[x % base];
     810:	00a00793          	li	a5,10
     814:	02f675b3          	remu	a1,a2,a5
     818:	0000b717          	auipc	a4,0xb
     81c:	06470713          	add	a4,a4,100 # b87c <digits>
  } while((x /= base) != 0);
     820:	00900513          	li	a0,9
    x = xx;
     824:	00060693          	mv	a3,a2
    buf[i++] = digits[x % base];
     828:	00b705b3          	add	a1,a4,a1
     82c:	0005c583          	lbu	a1,0(a1)
  } while((x /= base) != 0);
     830:	02f657b3          	divu	a5,a2,a5
    buf[i++] = digits[x % base];
     834:	fab40823          	sb	a1,-80(s0)
  } while((x /= base) != 0);
     838:	48c57c63          	bgeu	a0,a2,cd0 <printf+0x5a0>
     83c:	06300513          	li	a0,99
    buf[i++] = digits[x % base];
     840:	0367f5b3          	remu	a1,a5,s6
     844:	00b705b3          	add	a1,a4,a1
     848:	0005c583          	lbu	a1,0(a1)
  } while((x /= base) != 0);
     84c:	0367d7b3          	divu	a5,a5,s6
    buf[i++] = digits[x % base];
     850:	fab408a3          	sb	a1,-79(s0)
  } while((x /= base) != 0);
     854:	42d57463          	bgeu	a0,a3,c7c <printf+0x54c>
     858:	3e700513          	li	a0,999
    buf[i++] = digits[x % base];
     85c:	0367f5b3          	remu	a1,a5,s6
     860:	00b705b3          	add	a1,a4,a1
     864:	0005c583          	lbu	a1,0(a1)
  } while((x /= base) != 0);
     868:	0367d7b3          	divu	a5,a5,s6
    buf[i++] = digits[x % base];
     86c:	fab40923          	sb	a1,-78(s0)
  } while((x /= base) != 0);
     870:	42d57263          	bgeu	a0,a3,c94 <printf+0x564>
     874:	000025b7          	lui	a1,0x2
     878:	70f58593          	add	a1,a1,1807 # 270f <uvmunmap+0x7f>
    buf[i++] = digits[x % base];
     87c:	0367f533          	remu	a0,a5,s6
     880:	00a70533          	add	a0,a4,a0
     884:	00054503          	lbu	a0,0(a0)
  } while((x /= base) != 0);
     888:	0367d7b3          	divu	a5,a5,s6
    buf[i++] = digits[x % base];
     88c:	faa409a3          	sb	a0,-77(s0)
  } while((x /= base) != 0);
     890:	40d5f863          	bgeu	a1,a3,ca0 <printf+0x570>
     894:	000185b7          	lui	a1,0x18
     898:	69f58593          	add	a1,a1,1695 # 1869f <proc+0x2fbb>
    buf[i++] = digits[x % base];
     89c:	0367f533          	remu	a0,a5,s6
     8a0:	00a70533          	add	a0,a4,a0
     8a4:	00054503          	lbu	a0,0(a0)
  } while((x /= base) != 0);
     8a8:	0367d7b3          	divu	a5,a5,s6
    buf[i++] = digits[x % base];
     8ac:	faa40a23          	sb	a0,-76(s0)
  } while((x /= base) != 0);
     8b0:	40d5fa63          	bgeu	a1,a3,cc4 <printf+0x594>
     8b4:	000f45b7          	lui	a1,0xf4
     8b8:	23f58593          	add	a1,a1,575 # f423f <end+0xd022b>
    buf[i++] = digits[x % base];
     8bc:	0367f533          	remu	a0,a5,s6
     8c0:	00a70533          	add	a0,a4,a0
     8c4:	00054503          	lbu	a0,0(a0)
  } while((x /= base) != 0);
     8c8:	0367d7b3          	divu	a5,a5,s6
    buf[i++] = digits[x % base];
     8cc:	faa40aa3          	sb	a0,-75(s0)
  } while((x /= base) != 0);
     8d0:	40d5fe63          	bgeu	a1,a3,cec <printf+0x5bc>
     8d4:	009895b7          	lui	a1,0x989
     8d8:	67f58593          	add	a1,a1,1663 # 98967f <end+0x96566b>
    buf[i++] = digits[x % base];
     8dc:	0367f533          	remu	a0,a5,s6
     8e0:	00a70533          	add	a0,a4,a0
     8e4:	00054503          	lbu	a0,0(a0)
  } while((x /= base) != 0);
     8e8:	0367d7b3          	divu	a5,a5,s6
    buf[i++] = digits[x % base];
     8ec:	faa40b23          	sb	a0,-74(s0)
  } while((x /= base) != 0);
     8f0:	36d5fa63          	bgeu	a1,a3,c64 <printf+0x534>
     8f4:	05f5e5b7          	lui	a1,0x5f5e
     8f8:	0ff58593          	add	a1,a1,255 # 5f5e0ff <end+0x5f3a0eb>
    buf[i++] = digits[x % base];
     8fc:	0367f533          	remu	a0,a5,s6
     900:	00a70533          	add	a0,a4,a0
     904:	00054503          	lbu	a0,0(a0)
  } while((x /= base) != 0);
     908:	0367d7b3          	divu	a5,a5,s6
    buf[i++] = digits[x % base];
     90c:	faa40ba3          	sb	a0,-73(s0)
  } while((x /= base) != 0);
     910:	3ed5f463          	bgeu	a1,a3,cf8 <printf+0x5c8>
     914:	3b9ad5b7          	lui	a1,0x3b9ad
     918:	9ff58593          	add	a1,a1,-1537 # 3b9ac9ff <end+0x3b9889eb>
    buf[i++] = digits[x % base];
     91c:	0367f533          	remu	a0,a5,s6
     920:	00a70533          	add	a0,a4,a0
     924:	00054503          	lbu	a0,0(a0)
  } while((x /= base) != 0);
     928:	0367d7b3          	divu	a5,a5,s6
    buf[i++] = digits[x % base];
     92c:	faa40c23          	sb	a0,-72(s0)
  } while((x /= base) != 0);
     930:	3cd5fa63          	bgeu	a1,a3,d04 <printf+0x5d4>
    buf[i++] = digits[x % base];
     934:	00f707b3          	add	a5,a4,a5
     938:	0007c683          	lbu	a3,0(a5)
     93c:	00a00713          	li	a4,10
     940:	00900793          	li	a5,9
     944:	fad40ca3          	sb	a3,-71(s0)
  if(sign)
     948:	00065c63          	bgez	a2,960 <printf+0x230>
    buf[i++] = '-';
     94c:	fc070793          	add	a5,a4,-64
     950:	008787b3          	add	a5,a5,s0
     954:	02d00693          	li	a3,45
     958:	fed78823          	sb	a3,-16(a5)
     95c:	00070793          	mv	a5,a4
     960:	00f98d33          	add	s10,s3,a5
    consputc(buf[i]);
     964:	000d4503          	lbu	a0,0(s10)
     968:	00000097          	auipc	ra,0x0
     96c:	a44080e7          	jalr	-1468(ra) # 3ac <consputc>
  while(--i >= 0)
     970:	000d0713          	mv	a4,s10
     974:	fffd0d13          	add	s10,s10,-1
     978:	fee996e3          	bne	s3,a4,964 <printf+0x234>
  for(i = 0; (c = fmt[i] & 0xff) != 0; i++){
     97c:	00148493          	add	s1,s1,1
     980:	009907b3          	add	a5,s2,s1
     984:	0007c503          	lbu	a0,0(a5)
     988:	e40518e3          	bnez	a0,7d8 <printf+0xa8>
  if(locking)
     98c:	f9842783          	lw	a5,-104(s0)
     990:	1a079063          	bnez	a5,b30 <printf+0x400>
}
     994:	06c12083          	lw	ra,108(sp)
     998:	06812403          	lw	s0,104(sp)
     99c:	06412483          	lw	s1,100(sp)
     9a0:	06012903          	lw	s2,96(sp)
     9a4:	05c12983          	lw	s3,92(sp)
     9a8:	05812a03          	lw	s4,88(sp)
     9ac:	05412a83          	lw	s5,84(sp)
     9b0:	05012b03          	lw	s6,80(sp)
     9b4:	04c12b83          	lw	s7,76(sp)
     9b8:	04812c03          	lw	s8,72(sp)
     9bc:	04412c83          	lw	s9,68(sp)
     9c0:	04012d03          	lw	s10,64(sp)
     9c4:	03c12d83          	lw	s11,60(sp)
     9c8:	09010113          	add	sp,sp,144
     9cc:	00008067          	ret
    switch(c){
     9d0:	1d978263          	beq	a5,s9,b94 <printf+0x464>
     9d4:	07800713          	li	a4,120
     9d8:	12e79063          	bne	a5,a4,af8 <printf+0x3c8>
      printint(va_arg(ap, int), 16, 1);
     9dc:	fac42783          	lw	a5,-84(s0)
     9e0:	0007a683          	lw	a3,0(a5)
     9e4:	00478793          	add	a5,a5,4
     9e8:	faf42623          	sw	a5,-84(s0)
  if(sign && (sign = xx < 0))
     9ec:	1e06cc63          	bltz	a3,be4 <printf+0x4b4>
    buf[i++] = digits[x % base];
     9f0:	0000b717          	auipc	a4,0xb
     9f4:	e8c70713          	add	a4,a4,-372 # b87c <digits>
     9f8:	00f6f793          	and	a5,a3,15
     9fc:	00f707b3          	add	a5,a4,a5
     a00:	0007c583          	lbu	a1,0(a5)
  } while((x /= base) != 0);
     a04:	00f00613          	li	a2,15
    x = xx;
     a08:	00068793          	mv	a5,a3
    buf[i++] = digits[x % base];
     a0c:	fab40823          	sb	a1,-80(s0)
  } while((x /= base) != 0);
     a10:	0046d593          	srl	a1,a3,0x4
     a14:	2cd67263          	bgeu	a2,a3,cd8 <printf+0x5a8>
    buf[i++] = digits[x % base];
     a18:	00f5f613          	and	a2,a1,15
     a1c:	00c70633          	add	a2,a4,a2
     a20:	00064603          	lbu	a2,0(a2)
  } while((x /= base) != 0);
     a24:	00f00813          	li	a6,15
     a28:	0087d513          	srl	a0,a5,0x8
    buf[i++] = digits[x % base];
     a2c:	fac408a3          	sb	a2,-79(s0)
  } while((x /= base) != 0);
     a30:	24b87063          	bgeu	a6,a1,c70 <printf+0x540>
    buf[i++] = digits[x % base];
     a34:	00f57613          	and	a2,a0,15
     a38:	00c70633          	add	a2,a4,a2
     a3c:	00064603          	lbu	a2,0(a2)
  } while((x /= base) != 0);
     a40:	00c7d593          	srl	a1,a5,0xc
    buf[i++] = digits[x % base];
     a44:	fac40923          	sb	a2,-78(s0)
  } while((x /= base) != 0);
     a48:	24a87063          	bgeu	a6,a0,c88 <printf+0x558>
    buf[i++] = digits[x % base];
     a4c:	00f5f613          	and	a2,a1,15
     a50:	00c70633          	add	a2,a4,a2
     a54:	00064603          	lbu	a2,0(a2)
  } while((x /= base) != 0);
     a58:	0107d513          	srl	a0,a5,0x10
    buf[i++] = digits[x % base];
     a5c:	fac409a3          	sb	a2,-77(s0)
  } while((x /= base) != 0);
     a60:	24b87663          	bgeu	a6,a1,cac <printf+0x57c>
    buf[i++] = digits[x % base];
     a64:	00f57613          	and	a2,a0,15
     a68:	00c70633          	add	a2,a4,a2
     a6c:	00064603          	lbu	a2,0(a2)
  } while((x /= base) != 0);
     a70:	0147d593          	srl	a1,a5,0x14
    buf[i++] = digits[x % base];
     a74:	fac40a23          	sb	a2,-76(s0)
  } while((x /= base) != 0);
     a78:	24a87063          	bgeu	a6,a0,cb8 <printf+0x588>
    buf[i++] = digits[x % base];
     a7c:	00f5f613          	and	a2,a1,15
     a80:	00c70633          	add	a2,a4,a2
     a84:	00064603          	lbu	a2,0(a2)
  } while((x /= base) != 0);
     a88:	0187d513          	srl	a0,a5,0x18
    buf[i++] = digits[x % base];
     a8c:	fac40aa3          	sb	a2,-75(s0)
  } while((x /= base) != 0);
     a90:	24b87863          	bgeu	a6,a1,ce0 <printf+0x5b0>
    buf[i++] = digits[x % base];
     a94:	00f57613          	and	a2,a0,15
     a98:	00c70633          	add	a2,a4,a2
     a9c:	00064603          	lbu	a2,0(a2)
  } while((x /= base) != 0);
     aa0:	01c7d793          	srl	a5,a5,0x1c
    buf[i++] = digits[x % base];
     aa4:	fac40b23          	sb	a2,-74(s0)
  } while((x /= base) != 0);
     aa8:	1aa87863          	bgeu	a6,a0,c58 <printf+0x528>
    buf[i++] = digits[x % base];
     aac:	00f70733          	add	a4,a4,a5
     ab0:	00074603          	lbu	a2,0(a4)
     ab4:	00700793          	li	a5,7
     ab8:	00800713          	li	a4,8
     abc:	fac40ba3          	sb	a2,-73(s0)
  if(sign)
     ac0:	0006dc63          	bgez	a3,ad8 <printf+0x3a8>
    buf[i++] = '-';
     ac4:	fc070793          	add	a5,a4,-64
     ac8:	008787b3          	add	a5,a5,s0
     acc:	02d00693          	li	a3,45
     ad0:	fed78823          	sb	a3,-16(a5)
     ad4:	00070793          	mv	a5,a4
     ad8:	00f98d33          	add	s10,s3,a5
    consputc(buf[i]);
     adc:	000d4503          	lbu	a0,0(s10)
     ae0:	00000097          	auipc	ra,0x0
     ae4:	8cc080e7          	jalr	-1844(ra) # 3ac <consputc>
  while(--i >= 0)
     ae8:	000d0713          	mv	a4,s10
     aec:	fffd0d13          	add	s10,s10,-1
     af0:	fee996e3          	bne	s3,a4,adc <printf+0x3ac>
     af4:	0240006f          	j	b18 <printf+0x3e8>
      consputc('%');
     af8:	02500513          	li	a0,37
     afc:	f8f42e23          	sw	a5,-100(s0)
     b00:	00000097          	auipc	ra,0x0
     b04:	8ac080e7          	jalr	-1876(ra) # 3ac <consputc>
      consputc(c);
     b08:	f9c42783          	lw	a5,-100(s0)
     b0c:	00078513          	mv	a0,a5
     b10:	00000097          	auipc	ra,0x0
     b14:	89c080e7          	jalr	-1892(ra) # 3ac <consputc>
  for(i = 0; (c = fmt[i] & 0xff) != 0; i++){
     b18:	00148493          	add	s1,s1,1
     b1c:	009907b3          	add	a5,s2,s1
     b20:	0007c503          	lbu	a0,0(a5)
     b24:	ca051ae3          	bnez	a0,7d8 <printf+0xa8>
  if(locking)
     b28:	f9842783          	lw	a5,-104(s0)
     b2c:	e60784e3          	beqz	a5,994 <printf+0x264>
    release(&pr.lock);
     b30:	00015517          	auipc	a0,0x15
     b34:	96850513          	add	a0,a0,-1688 # 15498 <pr>
     b38:	00000097          	auipc	ra,0x0
     b3c:	7c4080e7          	jalr	1988(ra) # 12fc <release>
}
     b40:	e55ff06f          	j	994 <printf+0x264>
      printptr(va_arg(ap, uint32));
     b44:	fac42783          	lw	a5,-84(s0)
  consputc('0');
     b48:	03000513          	li	a0,48
  consputc('x');
     b4c:	00800d13          	li	s10,8
      printptr(va_arg(ap, uint32));
     b50:	00478613          	add	a2,a5,4
     b54:	0007ad83          	lw	s11,0(a5)
     b58:	fac42623          	sw	a2,-84(s0)
  consputc('0');
     b5c:	00000097          	auipc	ra,0x0
     b60:	850080e7          	jalr	-1968(ra) # 3ac <consputc>
  consputc('x');
     b64:	07800513          	li	a0,120
     b68:	00000097          	auipc	ra,0x0
     b6c:	844080e7          	jalr	-1980(ra) # 3ac <consputc>
    consputc(digits[x >> (sizeof(uint32) * 8 - 4)]);
     b70:	01cdd793          	srl	a5,s11,0x1c
     b74:	00fb87b3          	add	a5,s7,a5
     b78:	0007c503          	lbu	a0,0(a5)
  for (i = 0; i < (sizeof(uint32) * 2); i++, x <<= 4)
     b7c:	fffd0d13          	add	s10,s10,-1
     b80:	004d9d93          	sll	s11,s11,0x4
    consputc(digits[x >> (sizeof(uint32) * 8 - 4)]);
     b84:	00000097          	auipc	ra,0x0
     b88:	828080e7          	jalr	-2008(ra) # 3ac <consputc>
  for (i = 0; i < (sizeof(uint32) * 2); i++, x <<= 4)
     b8c:	fe0d12e3          	bnez	s10,b70 <printf+0x440>
     b90:	f89ff06f          	j	b18 <printf+0x3e8>
      if((s = va_arg(ap, char*)) == 0)
     b94:	fac42703          	lw	a4,-84(s0)
     b98:	00072d83          	lw	s11,0(a4)
     b9c:	00470713          	add	a4,a4,4
     ba0:	fae42623          	sw	a4,-84(s0)
     ba4:	000d9a63          	bnez	s11,bb8 <printf+0x488>
     ba8:	0a00006f          	j	c48 <printf+0x518>
      for(; *s; s++)
     bac:	001d8d93          	add	s11,s11,1
        consputc(*s);
     bb0:	fffff097          	auipc	ra,0xfffff
     bb4:	7fc080e7          	jalr	2044(ra) # 3ac <consputc>
      for(; *s; s++)
     bb8:	000dc503          	lbu	a0,0(s11)
     bbc:	fe0518e3          	bnez	a0,bac <printf+0x47c>
     bc0:	f59ff06f          	j	b18 <printf+0x3e8>
      consputc('%');
     bc4:	02500513          	li	a0,37
     bc8:	fffff097          	auipc	ra,0xfffff
     bcc:	7e4080e7          	jalr	2020(ra) # 3ac <consputc>
      break;
     bd0:	f49ff06f          	j	b18 <printf+0x3e8>
    acquire(&pr.lock);
     bd4:	00030513          	mv	a0,t1
     bd8:	00000097          	auipc	ra,0x0
     bdc:	598080e7          	jalr	1432(ra) # 1170 <acquire>
     be0:	bc1ff06f          	j	7a0 <printf+0x70>
    x = -xx;
     be4:	40d007b3          	neg	a5,a3
    buf[i++] = digits[x % base];
     be8:	0000b717          	auipc	a4,0xb
     bec:	c9470713          	add	a4,a4,-876 # b87c <digits>
     bf0:	00f7f613          	and	a2,a5,15
     bf4:	00c70633          	add	a2,a4,a2
     bf8:	00064503          	lbu	a0,0(a2)
  } while((x /= base) != 0);
     bfc:	ff100613          	li	a2,-15
     c00:	0047d593          	srl	a1,a5,0x4
    buf[i++] = digits[x % base];
     c04:	faa40823          	sb	a0,-80(s0)
  } while((x /= base) != 0);
     c08:	e0c6c8e3          	blt	a3,a2,a18 <printf+0x2e8>
    buf[i++] = digits[x % base];
     c0c:	00100713          	li	a4,1
     c10:	eb5ff06f          	j	ac4 <printf+0x394>
    x = -xx;
     c14:	40c006b3          	neg	a3,a2
    buf[i++] = digits[x % base];
     c18:	00a00793          	li	a5,10
     c1c:	02f6f5b3          	remu	a1,a3,a5
     c20:	0000b717          	auipc	a4,0xb
     c24:	c5c70713          	add	a4,a4,-932 # b87c <digits>
  } while((x /= base) != 0);
     c28:	ff700513          	li	a0,-9
    buf[i++] = digits[x % base];
     c2c:	00b705b3          	add	a1,a4,a1
     c30:	0005c583          	lbu	a1,0(a1)
  } while((x /= base) != 0);
     c34:	02f6d7b3          	divu	a5,a3,a5
    buf[i++] = digits[x % base];
     c38:	fab40823          	sb	a1,-80(s0)
  } while((x /= base) != 0);
     c3c:	c0a640e3          	blt	a2,a0,83c <printf+0x10c>
    buf[i++] = digits[x % base];
     c40:	00100713          	li	a4,1
     c44:	d09ff06f          	j	94c <printf+0x21c>
     c48:	02800513          	li	a0,40
        s = "(null)";
     c4c:	0000ad97          	auipc	s11,0xa
     c50:	60cd8d93          	add	s11,s11,1548 # b258 <main+0x128>
     c54:	f59ff06f          	j	bac <printf+0x47c>
    buf[i++] = digits[x % base];
     c58:	00700713          	li	a4,7
     c5c:	00600793          	li	a5,6
     c60:	e61ff06f          	j	ac0 <printf+0x390>
     c64:	00700713          	li	a4,7
     c68:	00600793          	li	a5,6
     c6c:	cddff06f          	j	948 <printf+0x218>
     c70:	00200713          	li	a4,2
     c74:	00100793          	li	a5,1
     c78:	e49ff06f          	j	ac0 <printf+0x390>
     c7c:	00200713          	li	a4,2
     c80:	00100793          	li	a5,1
     c84:	cc5ff06f          	j	948 <printf+0x218>
     c88:	00300713          	li	a4,3
     c8c:	00200793          	li	a5,2
     c90:	e31ff06f          	j	ac0 <printf+0x390>
     c94:	00300713          	li	a4,3
     c98:	00200793          	li	a5,2
     c9c:	cadff06f          	j	948 <printf+0x218>
     ca0:	00400713          	li	a4,4
     ca4:	00300793          	li	a5,3
     ca8:	ca1ff06f          	j	948 <printf+0x218>
     cac:	00400713          	li	a4,4
     cb0:	00300793          	li	a5,3
     cb4:	e0dff06f          	j	ac0 <printf+0x390>
     cb8:	00500713          	li	a4,5
     cbc:	00400793          	li	a5,4
     cc0:	e01ff06f          	j	ac0 <printf+0x390>
     cc4:	00500713          	li	a4,5
     cc8:	00400793          	li	a5,4
     ccc:	c7dff06f          	j	948 <printf+0x218>
  } while((x /= base) != 0);
     cd0:	00000793          	li	a5,0
     cd4:	c8dff06f          	j	960 <printf+0x230>
     cd8:	00000793          	li	a5,0
     cdc:	dfdff06f          	j	ad8 <printf+0x3a8>
    buf[i++] = digits[x % base];
     ce0:	00600713          	li	a4,6
     ce4:	00500793          	li	a5,5
     ce8:	dd9ff06f          	j	ac0 <printf+0x390>
     cec:	00600713          	li	a4,6
     cf0:	00500793          	li	a5,5
     cf4:	c55ff06f          	j	948 <printf+0x218>
     cf8:	00800713          	li	a4,8
     cfc:	00700793          	li	a5,7
     d00:	c49ff06f          	j	948 <printf+0x218>
     d04:	00900713          	li	a4,9
     d08:	00800793          	li	a5,8
     d0c:	c3dff06f          	j	948 <printf+0x218>
    panic("null fmt");
     d10:	0000a517          	auipc	a0,0xa
     d14:	55050513          	add	a0,a0,1360 # b260 <main+0x130>
     d18:	00000097          	auipc	ra,0x0
     d1c:	9bc080e7          	jalr	-1604(ra) # 6d4 <panic>

00000d20 <printfinit>:
    ;
}

void
printfinit(void)
{
     d20:	ff010113          	add	sp,sp,-16
     d24:	00812423          	sw	s0,8(sp)
     d28:	00912223          	sw	s1,4(sp)
     d2c:	00112623          	sw	ra,12(sp)
     d30:	01010413          	add	s0,sp,16
  initlock(&pr.lock, "pr");
     d34:	00014497          	auipc	s1,0x14
     d38:	76448493          	add	s1,s1,1892 # 15498 <pr>
     d3c:	00048513          	mv	a0,s1
     d40:	0000a597          	auipc	a1,0xa
     d44:	52c58593          	add	a1,a1,1324 # b26c <main+0x13c>
     d48:	00000097          	auipc	ra,0x0
     d4c:	404080e7          	jalr	1028(ra) # 114c <initlock>
  pr.locking = 1;
}
     d50:	00c12083          	lw	ra,12(sp)
     d54:	00812403          	lw	s0,8(sp)
  pr.locking = 1;
     d58:	00100793          	li	a5,1
     d5c:	00f4a623          	sw	a5,12(s1)
}
     d60:	00412483          	lw	s1,4(sp)
     d64:	01010113          	add	sp,sp,16
     d68:	00008067          	ret

00000d6c <uartinit>:
#include "proc.h"
#include "defs.h"

void
uartinit(void)
{
     d6c:	ff010113          	add	sp,sp,-16
     d70:	00812623          	sw	s0,12(sp)
     d74:	01010413          	add	s0,sp,16
}
     d78:	00c12403          	lw	s0,12(sp)
     d7c:	01010113          	add	sp,sp,16
     d80:	00008067          	ret

00000d84 <uartputc>:

// write one output character to the UART.
void
uartputc(int c)
{
     d84:	ff010113          	add	sp,sp,-16
     d88:	00812623          	sw	s0,12(sp)
     d8c:	01010413          	add	s0,sp,16
  volatile unsigned int *addr = (unsigned int*)0xff000000;
  *addr = c;
}
     d90:	00c12403          	lw	s0,12(sp)
  *addr = c;
     d94:	ff0007b7          	lui	a5,0xff000
     d98:	00a7a023          	sw	a0,0(a5) # ff000000 <end+0xfefdbfec>
}
     d9c:	01010113          	add	sp,sp,16
     da0:	00008067          	ret

00000da4 <uartgetc>:

// read one input character from the UART.
// return -1 if none is waiting.
int
uartgetc(void)
{
     da4:	ff010113          	add	sp,sp,-16
     da8:	00812623          	sw	s0,12(sp)
     dac:	01010413          	add	s0,sp,16
  volatile unsigned int *en     = (unsigned int*)0xff000010;
  volatile unsigned int *rdata  = (unsigned int*)0xff000018;
  if(*en & 0x01){
     db0:	ff000737          	lui	a4,0xff000
     db4:	01072783          	lw	a5,16(a4) # ff000010 <end+0xfefdbffc>
     db8:	0017f793          	and	a5,a5,1
     dbc:	00078a63          	beqz	a5,dd0 <uartgetc+0x2c>
    // input data is ready.
    return *rdata;
     dc0:	01872503          	lw	a0,24(a4)
  } else {
    return -1;
  }
}
     dc4:	00c12403          	lw	s0,12(sp)
     dc8:	01010113          	add	sp,sp,16
     dcc:	00008067          	ret
    return -1;
     dd0:	fff00513          	li	a0,-1
     dd4:	ff1ff06f          	j	dc4 <uartgetc+0x20>

00000dd8 <uartintr>:
  if(*en & 0x01){
     dd8:	ff0007b7          	lui	a5,0xff000
     ddc:	0107a783          	lw	a5,16(a5) # ff000010 <end+0xfefdbffc>
     de0:	0017f793          	and	a5,a5,1
     de4:	04078e63          	beqz	a5,e40 <uartintr+0x68>

// trap.c calls here when the uart interrupts.
void
uartintr(void)
{
     de8:	ff010113          	add	sp,sp,-16
     dec:	00812423          	sw	s0,8(sp)
     df0:	00912223          	sw	s1,4(sp)
     df4:	01212023          	sw	s2,0(sp)
     df8:	00112623          	sw	ra,12(sp)
     dfc:	01010413          	add	s0,sp,16
    return *rdata;
     e00:	ff0004b7          	lui	s1,0xff000
  while(1){
    int c = uartgetc();
    if(c == -1)
     e04:	fff00913          	li	s2,-1
     e08:	0180006f          	j	e20 <uartintr+0x48>
      break;
    consoleintr(c);
     e0c:	fffff097          	auipc	ra,0xfffff
     e10:	600080e7          	jalr	1536(ra) # 40c <consoleintr>
  if(*en & 0x01){
     e14:	0104a783          	lw	a5,16(s1) # ff000010 <end+0xfefdbffc>
     e18:	0017f793          	and	a5,a5,1
     e1c:	00078663          	beqz	a5,e28 <uartintr+0x50>
    return *rdata;
     e20:	0184a503          	lw	a0,24(s1)
    if(c == -1)
     e24:	ff2514e3          	bne	a0,s2,e0c <uartintr+0x34>
  }
}
     e28:	00c12083          	lw	ra,12(sp)
     e2c:	00812403          	lw	s0,8(sp)
     e30:	00412483          	lw	s1,4(sp)
     e34:	00012903          	lw	s2,0(sp)
     e38:	01010113          	add	sp,sp,16
     e3c:	00008067          	ret
     e40:	00008067          	ret

00000e44 <kinit>:
  struct run *freelist;
} kmem;

void
kinit()
{
     e44:	fe010113          	add	sp,sp,-32
     e48:	00812c23          	sw	s0,24(sp)
     e4c:	00912a23          	sw	s1,20(sp)
     e50:	00112e23          	sw	ra,28(sp)
     e54:	01212823          	sw	s2,16(sp)
     e58:	01312623          	sw	s3,12(sp)
     e5c:	01412423          	sw	s4,8(sp)
     e60:	01512223          	sw	s5,4(sp)
     e64:	01612023          	sw	s6,0(sp)
     e68:	02010413          	add	s0,sp,32
  initlock(&kmem.lock, "kmem");
     e6c:	0000a597          	auipc	a1,0xa
     e70:	40458593          	add	a1,a1,1028 # b270 <main+0x140>
     e74:	00014517          	auipc	a0,0x14
     e78:	63450513          	add	a0,a0,1588 # 154a8 <kmem>
     e7c:	00000097          	auipc	ra,0x0
     e80:	2d0080e7          	jalr	720(ra) # 114c <initlock>

void
freerange(void *pa_start, void *pa_end)
{
  char *p;
  p = (char*)PGROUNDUP((uint32)pa_start);
     e84:	fffff7b7          	lui	a5,0xfffff
     e88:	00024497          	auipc	s1,0x24
     e8c:	18b48493          	add	s1,s1,395 # 25013 <end+0xfff>
     e90:	00f4f4b3          	and	s1,s1,a5
  for(; p + PGSIZE <= (char*)pa_end; p += PGSIZE) {
     e94:	000017b7          	lui	a5,0x1
     e98:	00f487b3          	add	a5,s1,a5
     e9c:	02000737          	lui	a4,0x2000
     ea0:	06f76063          	bltu	a4,a5,f00 <kinit+0xbc>
     ea4:	00023997          	auipc	s3,0x23
     ea8:	17098993          	add	s3,s3,368 # 24014 <end>
void
kfree(void *pa)
{
  struct run *r;

  if(((uint32)pa % PGSIZE) != 0 || (char*)pa < end || (uint32)pa >= PHYSTOP)
     eac:	0734ee63          	bltu	s1,s3,f28 <kinit+0xe4>
     eb0:	06e4fc63          	bgeu	s1,a4,f28 <kinit+0xe4>
     eb4:	00014917          	auipc	s2,0x14
     eb8:	5f490913          	add	s2,s2,1524 # 154a8 <kmem>
  for(; p + PGSIZE <= (char*)pa_end; p += PGSIZE) {
     ebc:	01fffa37          	lui	s4,0x1fff
     ec0:	00001ab7          	lui	s5,0x1
  if(((uint32)pa % PGSIZE) != 0 || (char*)pa < end || (uint32)pa >= PHYSTOP)
     ec4:	02000b37          	lui	s6,0x2000
     ec8:	0100006f          	j	ed8 <kinit+0x94>
     ecc:	015484b3          	add	s1,s1,s5
     ed0:	0534ec63          	bltu	s1,s3,f28 <kinit+0xe4>
     ed4:	0564fa63          	bgeu	s1,s6,f28 <kinit+0xe4>
  // TODO 
  // memset(pa, 1, PGSIZE);

  r = (struct run*)pa;

  acquire(&kmem.lock);
     ed8:	00090513          	mv	a0,s2
     edc:	00000097          	auipc	ra,0x0
     ee0:	294080e7          	jalr	660(ra) # 1170 <acquire>
  r->next = kmem.freelist;
     ee4:	00c92783          	lw	a5,12(s2)
  kmem.freelist = r;
  release(&kmem.lock);
     ee8:	00090513          	mv	a0,s2
  r->next = kmem.freelist;
     eec:	00f4a023          	sw	a5,0(s1)
  kmem.freelist = r;
     ef0:	00992623          	sw	s1,12(s2)
  release(&kmem.lock);
     ef4:	00000097          	auipc	ra,0x0
     ef8:	408080e7          	jalr	1032(ra) # 12fc <release>
  for(; p + PGSIZE <= (char*)pa_end; p += PGSIZE) {
     efc:	fd4498e3          	bne	s1,s4,ecc <kinit+0x88>
}
     f00:	01c12083          	lw	ra,28(sp)
     f04:	01812403          	lw	s0,24(sp)
     f08:	01412483          	lw	s1,20(sp)
     f0c:	01012903          	lw	s2,16(sp)
     f10:	00c12983          	lw	s3,12(sp)
     f14:	00812a03          	lw	s4,8(sp)
     f18:	00412a83          	lw	s5,4(sp)
     f1c:	00012b03          	lw	s6,0(sp)
     f20:	02010113          	add	sp,sp,32
     f24:	00008067          	ret
    panic("kfree");
     f28:	0000a517          	auipc	a0,0xa
     f2c:	35050513          	add	a0,a0,848 # b278 <main+0x148>
     f30:	fffff097          	auipc	ra,0xfffff
     f34:	7a4080e7          	jalr	1956(ra) # 6d4 <panic>

00000f38 <freerange>:
  p = (char*)PGROUNDUP((uint32)pa_start);
     f38:	000017b7          	lui	a5,0x1
{
     f3c:	fd010113          	add	sp,sp,-48
  p = (char*)PGROUNDUP((uint32)pa_start);
     f40:	fff78713          	add	a4,a5,-1 # fff <freerange+0xc7>
{
     f44:	02912223          	sw	s1,36(sp)
  p = (char*)PGROUNDUP((uint32)pa_start);
     f48:	00e504b3          	add	s1,a0,a4
     f4c:	fffff737          	lui	a4,0xfffff
{
     f50:	02812423          	sw	s0,40(sp)
     f54:	02112623          	sw	ra,44(sp)
     f58:	03212023          	sw	s2,32(sp)
     f5c:	01312e23          	sw	s3,28(sp)
     f60:	01412c23          	sw	s4,24(sp)
     f64:	01512a23          	sw	s5,20(sp)
     f68:	01612823          	sw	s6,16(sp)
     f6c:	01712623          	sw	s7,12(sp)
     f70:	03010413          	add	s0,sp,48
  p = (char*)PGROUNDUP((uint32)pa_start);
     f74:	00e4f4b3          	and	s1,s1,a4
  for(; p + PGSIZE <= (char*)pa_end; p += PGSIZE) {
     f78:	00f487b3          	add	a5,s1,a5
     f7c:	06f5e663          	bltu	a1,a5,fe8 <freerange+0xb0>
  if(((uint32)pa % PGSIZE) != 0 || (char*)pa < end || (uint32)pa >= PHYSTOP)
     f80:	00023a17          	auipc	s4,0x23
     f84:	094a0a13          	add	s4,s4,148 # 24014 <end>
     f88:	0944e663          	bltu	s1,s4,1014 <freerange+0xdc>
     f8c:	020007b7          	lui	a5,0x2000
     f90:	08f4f263          	bgeu	s1,a5,1014 <freerange+0xdc>
     f94:	00058993          	mv	s3,a1
     f98:	00014917          	auipc	s2,0x14
     f9c:	51090913          	add	s2,s2,1296 # 154a8 <kmem>
  for(; p + PGSIZE <= (char*)pa_end; p += PGSIZE) {
     fa0:	00002ab7          	lui	s5,0x2
     fa4:	00001b37          	lui	s6,0x1
  if(((uint32)pa % PGSIZE) != 0 || (char*)pa < end || (uint32)pa >= PHYSTOP)
     fa8:	02000bb7          	lui	s7,0x2000
     fac:	0100006f          	j	fbc <freerange+0x84>
     fb0:	016484b3          	add	s1,s1,s6
     fb4:	0744e063          	bltu	s1,s4,1014 <freerange+0xdc>
     fb8:	0574fe63          	bgeu	s1,s7,1014 <freerange+0xdc>
  acquire(&kmem.lock);
     fbc:	00090513          	mv	a0,s2
     fc0:	00000097          	auipc	ra,0x0
     fc4:	1b0080e7          	jalr	432(ra) # 1170 <acquire>
  r->next = kmem.freelist;
     fc8:	00c92783          	lw	a5,12(s2)
  release(&kmem.lock);
     fcc:	00090513          	mv	a0,s2
  r->next = kmem.freelist;
     fd0:	00f4a023          	sw	a5,0(s1)
  kmem.freelist = r;
     fd4:	00992623          	sw	s1,12(s2)
  release(&kmem.lock);
     fd8:	00000097          	auipc	ra,0x0
     fdc:	324080e7          	jalr	804(ra) # 12fc <release>
  for(; p + PGSIZE <= (char*)pa_end; p += PGSIZE) {
     fe0:	015487b3          	add	a5,s1,s5
     fe4:	fcf9f6e3          	bgeu	s3,a5,fb0 <freerange+0x78>
}
     fe8:	02c12083          	lw	ra,44(sp)
     fec:	02812403          	lw	s0,40(sp)
     ff0:	02412483          	lw	s1,36(sp)
     ff4:	02012903          	lw	s2,32(sp)
     ff8:	01c12983          	lw	s3,28(sp)
     ffc:	01812a03          	lw	s4,24(sp)
    1000:	01412a83          	lw	s5,20(sp)
    1004:	01012b03          	lw	s6,16(sp)
    1008:	00c12b83          	lw	s7,12(sp)
    100c:	03010113          	add	sp,sp,48
    1010:	00008067          	ret
    panic("kfree");
    1014:	0000a517          	auipc	a0,0xa
    1018:	26450513          	add	a0,a0,612 # b278 <main+0x148>
    101c:	fffff097          	auipc	ra,0xfffff
    1020:	6b8080e7          	jalr	1720(ra) # 6d4 <panic>

00001024 <kfree>:
{
    1024:	ff010113          	add	sp,sp,-16
    1028:	00812423          	sw	s0,8(sp)
    102c:	00112623          	sw	ra,12(sp)
    1030:	00912223          	sw	s1,4(sp)
    1034:	01212023          	sw	s2,0(sp)
    1038:	01010413          	add	s0,sp,16
  if(((uint32)pa % PGSIZE) != 0 || (char*)pa < end || (uint32)pa >= PHYSTOP)
    103c:	01451793          	sll	a5,a0,0x14
    1040:	04079e63          	bnez	a5,109c <kfree+0x78>
    1044:	00023797          	auipc	a5,0x23
    1048:	fd078793          	add	a5,a5,-48 # 24014 <end>
    104c:	00050493          	mv	s1,a0
    1050:	04f56663          	bltu	a0,a5,109c <kfree+0x78>
    1054:	020007b7          	lui	a5,0x2000
    1058:	04f57263          	bgeu	a0,a5,109c <kfree+0x78>
  acquire(&kmem.lock);
    105c:	00014917          	auipc	s2,0x14
    1060:	44c90913          	add	s2,s2,1100 # 154a8 <kmem>
    1064:	00090513          	mv	a0,s2
    1068:	00000097          	auipc	ra,0x0
    106c:	108080e7          	jalr	264(ra) # 1170 <acquire>
  r->next = kmem.freelist;
    1070:	00c92783          	lw	a5,12(s2)
}
    1074:	00812403          	lw	s0,8(sp)
    1078:	00c12083          	lw	ra,12(sp)
  r->next = kmem.freelist;
    107c:	00f4a023          	sw	a5,0(s1)
  kmem.freelist = r;
    1080:	00992623          	sw	s1,12(s2)
  release(&kmem.lock);
    1084:	00090513          	mv	a0,s2
}
    1088:	00412483          	lw	s1,4(sp)
    108c:	00012903          	lw	s2,0(sp)
    1090:	01010113          	add	sp,sp,16
  release(&kmem.lock);
    1094:	00000317          	auipc	t1,0x0
    1098:	26830067          	jr	616(t1) # 12fc <release>
    panic("kfree");
    109c:	0000a517          	auipc	a0,0xa
    10a0:	1dc50513          	add	a0,a0,476 # b278 <main+0x148>
    10a4:	fffff097          	auipc	ra,0xfffff
    10a8:	630080e7          	jalr	1584(ra) # 6d4 <panic>

000010ac <kalloc>:
// Allocate one 4096-byte page of physical memory.
// Returns a pointer that the kernel can use.
// Returns 0 if the memory cannot be allocated.
void *
kalloc(void)
{
    10ac:	ff010113          	add	sp,sp,-16
    10b0:	00812423          	sw	s0,8(sp)
    10b4:	00912223          	sw	s1,4(sp)
    10b8:	01212023          	sw	s2,0(sp)
    10bc:	00112623          	sw	ra,12(sp)
    10c0:	01010413          	add	s0,sp,16
  struct run *r;

  acquire(&kmem.lock);
    10c4:	00014497          	auipc	s1,0x14
    10c8:	3e448493          	add	s1,s1,996 # 154a8 <kmem>
    10cc:	00048513          	mv	a0,s1
    10d0:	00000097          	auipc	ra,0x0
    10d4:	0a0080e7          	jalr	160(ra) # 1170 <acquire>
  r = kmem.freelist;
    10d8:	00c4a903          	lw	s2,12(s1)
  if(r)
    10dc:	04090463          	beqz	s2,1124 <kalloc+0x78>
    kmem.freelist = r->next;
    10e0:	00092783          	lw	a5,0(s2)
  release(&kmem.lock);
    10e4:	00048513          	mv	a0,s1
    kmem.freelist = r->next;
    10e8:	00f4a623          	sw	a5,12(s1)
  release(&kmem.lock);
    10ec:	00000097          	auipc	ra,0x0
    10f0:	210080e7          	jalr	528(ra) # 12fc <release>

  if(r)
    memset((char*)r, 5, PGSIZE); // fill with junk
    10f4:	00090513          	mv	a0,s2
    10f8:	00001637          	lui	a2,0x1
    10fc:	00500593          	li	a1,5
    1100:	00000097          	auipc	ra,0x0
    1104:	584080e7          	jalr	1412(ra) # 1684 <memset>
  return (void*)r;
}
    1108:	00c12083          	lw	ra,12(sp)
    110c:	00812403          	lw	s0,8(sp)
    1110:	00412483          	lw	s1,4(sp)
    1114:	00090513          	mv	a0,s2
    1118:	00012903          	lw	s2,0(sp)
    111c:	01010113          	add	sp,sp,16
    1120:	00008067          	ret
  release(&kmem.lock);
    1124:	00048513          	mv	a0,s1
    1128:	00000097          	auipc	ra,0x0
    112c:	1d4080e7          	jalr	468(ra) # 12fc <release>
}
    1130:	00c12083          	lw	ra,12(sp)
    1134:	00812403          	lw	s0,8(sp)
    1138:	00412483          	lw	s1,4(sp)
    113c:	00090513          	mv	a0,s2
    1140:	00012903          	lw	s2,0(sp)
    1144:	01010113          	add	sp,sp,16
    1148:	00008067          	ret

0000114c <initlock>:
#include "proc.h"
#include "defs.h"

void
initlock(struct spinlock *lk, char *name)
{
    114c:	ff010113          	add	sp,sp,-16
    1150:	00812623          	sw	s0,12(sp)
    1154:	01010413          	add	s0,sp,16
  lk->name = name;
  lk->locked = 0;
  lk->cpu = 0;
}
    1158:	00c12403          	lw	s0,12(sp)
  lk->name = name;
    115c:	00b52223          	sw	a1,4(a0)
  lk->locked = 0;
    1160:	00052023          	sw	zero,0(a0)
  lk->cpu = 0;
    1164:	00052423          	sw	zero,8(a0)
}
    1168:	01010113          	add	sp,sp,16
    116c:	00008067          	ret

00001170 <acquire>:

// Acquire the lock.
// Loops (spins) until the lock is acquired.
void
acquire(struct spinlock *lk)
{
    1170:	ff010113          	add	sp,sp,-16
    1174:	00812423          	sw	s0,8(sp)
    1178:	00912223          	sw	s1,4(sp)
    117c:	00112623          	sw	ra,12(sp)
    1180:	01212023          	sw	s2,0(sp)
    1184:	01010413          	add	s0,sp,16
    1188:	00050493          	mv	s1,a0
  asm volatile("csrr %0, sstatus" : "=r" (x) );
    118c:	10002973          	csrr	s2,sstatus
    1190:	100027f3          	csrr	a5,sstatus
  w_sstatus(r_sstatus() & ~SSTATUS_SIE);
    1194:	ffd7f793          	and	a5,a5,-3
  asm volatile("csrw sstatus, %0" : : "r" (x));
    1198:	10079073          	csrw	sstatus,a5
push_off(void)
{
  int old = intr_get();

  intr_off();
  if(mycpu()->noff == 0)
    119c:	00002097          	auipc	ra,0x2
    11a0:	254080e7          	jalr	596(ra) # 33f0 <mycpu>
    11a4:	03c52783          	lw	a5,60(a0)
    11a8:	10078663          	beqz	a5,12b4 <acquire+0x144>
    mycpu()->intena = old;
  mycpu()->noff += 1;
    11ac:	00002097          	auipc	ra,0x2
    11b0:	244080e7          	jalr	580(ra) # 33f0 <mycpu>
    11b4:	03c52783          	lw	a5,60(a0)
    11b8:	00178793          	add	a5,a5,1 # 2000001 <end+0x1fdbfed>
    11bc:	02f52e23          	sw	a5,60(a0)
  asm volatile("csrr %0, sstatus" : "=r" (x) );
    11c0:	10002973          	csrr	s2,sstatus
    11c4:	100027f3          	csrr	a5,sstatus
  w_sstatus(r_sstatus() & ~SSTATUS_SIE);
    11c8:	ffd7f793          	and	a5,a5,-3
  asm volatile("csrw sstatus, %0" : : "r" (x));
    11cc:	10079073          	csrw	sstatus,a5
  if(mycpu()->noff == 0)
    11d0:	00002097          	auipc	ra,0x2
    11d4:	220080e7          	jalr	544(ra) # 33f0 <mycpu>
    11d8:	03c52783          	lw	a5,60(a0)
    11dc:	0c078063          	beqz	a5,129c <acquire+0x12c>
  mycpu()->noff += 1;
    11e0:	00002097          	auipc	ra,0x2
    11e4:	210080e7          	jalr	528(ra) # 33f0 <mycpu>
    11e8:	03c52783          	lw	a5,60(a0)
  r = (lk->locked && lk->cpu == mycpu());
    11ec:	0004a703          	lw	a4,0(s1)
    11f0:	00000913          	li	s2,0
  mycpu()->noff += 1;
    11f4:	00178793          	add	a5,a5,1
    11f8:	02f52e23          	sw	a5,60(a0)
  r = (lk->locked && lk->cpu == mycpu());
    11fc:	08071463          	bnez	a4,1284 <acquire+0x114>
}

void
pop_off(void)
{
  struct cpu *c = mycpu();
    1200:	00002097          	auipc	ra,0x2
    1204:	1f0080e7          	jalr	496(ra) # 33f0 <mycpu>
  asm volatile("csrr %0, sstatus" : "=r" (x) );
    1208:	100027f3          	csrr	a5,sstatus
  return (x & SSTATUS_SIE) != 0;
    120c:	0027f793          	and	a5,a5,2
  if(intr_get())
    1210:	0c079e63          	bnez	a5,12ec <acquire+0x17c>
    panic("pop_off - interruptible");
  c->noff -= 1;
    1214:	03c52783          	lw	a5,60(a0)
    1218:	fff78793          	add	a5,a5,-1
    121c:	02f52e23          	sw	a5,60(a0)
  if(c->noff < 0)
    1220:	0a07ce63          	bltz	a5,12dc <acquire+0x16c>
    panic("pop_off");
  if(c->noff == 0 && c->intena)
    1224:	02079263          	bnez	a5,1248 <acquire+0xd8>
    1228:	04052783          	lw	a5,64(a0)
    122c:	00078e63          	beqz	a5,1248 <acquire+0xd8>
  asm volatile("csrr %0, sie" : "=r" (x) );
    1230:	104027f3          	csrr	a5,sie
  w_sie(r_sie() | SIE_SEIE | SIE_STIE | SIE_SSIE);
    1234:	2227e793          	or	a5,a5,546
  asm volatile("csrw sie, %0" : : "r" (x));
    1238:	10479073          	csrw	sie,a5
  asm volatile("csrr %0, sstatus" : "=r" (x) );
    123c:	100027f3          	csrr	a5,sstatus
  w_sstatus(r_sstatus() | SSTATUS_SIE);
    1240:	0027e793          	or	a5,a5,2
  asm volatile("csrw sstatus, %0" : : "r" (x));
    1244:	10079073          	csrw	sstatus,a5
  while(__sync_lock_test_and_set(&lk->locked, 1) != 0)
    1248:	00100713          	li	a4,1
  if(holding(lk))
    124c:	08091063          	bnez	s2,12cc <acquire+0x15c>
  while(__sync_lock_test_and_set(&lk->locked, 1) != 0)
    1250:	00070793          	mv	a5,a4
    1254:	0cf4a7af          	amoswap.w.aq	a5,a5,(s1)
    1258:	fe079ce3          	bnez	a5,1250 <acquire+0xe0>
  __sync_synchronize();
    125c:	0ff0000f          	fence
  lk->cpu = mycpu();
    1260:	00002097          	auipc	ra,0x2
    1264:	190080e7          	jalr	400(ra) # 33f0 <mycpu>
}
    1268:	00c12083          	lw	ra,12(sp)
    126c:	00812403          	lw	s0,8(sp)
  lk->cpu = mycpu();
    1270:	00a4a423          	sw	a0,8(s1)
}
    1274:	00012903          	lw	s2,0(sp)
    1278:	00412483          	lw	s1,4(sp)
    127c:	01010113          	add	sp,sp,16
    1280:	00008067          	ret
  r = (lk->locked && lk->cpu == mycpu());
    1284:	0084a903          	lw	s2,8(s1)
    1288:	00002097          	auipc	ra,0x2
    128c:	168080e7          	jalr	360(ra) # 33f0 <mycpu>
    1290:	40a90933          	sub	s2,s2,a0
    1294:	00193913          	seqz	s2,s2
    1298:	f69ff06f          	j	1200 <acquire+0x90>
  return (x & SSTATUS_SIE) != 0;
    129c:	00195913          	srl	s2,s2,0x1
    mycpu()->intena = old;
    12a0:	00002097          	auipc	ra,0x2
    12a4:	150080e7          	jalr	336(ra) # 33f0 <mycpu>
    12a8:	00197913          	and	s2,s2,1
    12ac:	05252023          	sw	s2,64(a0)
    12b0:	f31ff06f          	j	11e0 <acquire+0x70>
    12b4:	00195913          	srl	s2,s2,0x1
    12b8:	00002097          	auipc	ra,0x2
    12bc:	138080e7          	jalr	312(ra) # 33f0 <mycpu>
    12c0:	00197913          	and	s2,s2,1
    12c4:	05252023          	sw	s2,64(a0)
    12c8:	ee5ff06f          	j	11ac <acquire+0x3c>
    panic("acquire");
    12cc:	0000a517          	auipc	a0,0xa
    12d0:	fd450513          	add	a0,a0,-44 # b2a0 <main+0x170>
    12d4:	fffff097          	auipc	ra,0xfffff
    12d8:	400080e7          	jalr	1024(ra) # 6d4 <panic>
    panic("pop_off");
    12dc:	0000a517          	auipc	a0,0xa
    12e0:	fbc50513          	add	a0,a0,-68 # b298 <main+0x168>
    12e4:	fffff097          	auipc	ra,0xfffff
    12e8:	3f0080e7          	jalr	1008(ra) # 6d4 <panic>
    panic("pop_off - interruptible");
    12ec:	0000a517          	auipc	a0,0xa
    12f0:	f9450513          	add	a0,a0,-108 # b280 <main+0x150>
    12f4:	fffff097          	auipc	ra,0xfffff
    12f8:	3e0080e7          	jalr	992(ra) # 6d4 <panic>

000012fc <release>:
{
    12fc:	ff010113          	add	sp,sp,-16
    1300:	00812423          	sw	s0,8(sp)
    1304:	00912223          	sw	s1,4(sp)
    1308:	00112623          	sw	ra,12(sp)
    130c:	01212023          	sw	s2,0(sp)
    1310:	01010413          	add	s0,sp,16
    1314:	00050493          	mv	s1,a0
  asm volatile("csrr %0, sstatus" : "=r" (x) );
    1318:	10002973          	csrr	s2,sstatus
    131c:	100027f3          	csrr	a5,sstatus
  w_sstatus(r_sstatus() & ~SSTATUS_SIE);
    1320:	ffd7f793          	and	a5,a5,-3
  asm volatile("csrw sstatus, %0" : : "r" (x));
    1324:	10079073          	csrw	sstatus,a5
  if(mycpu()->noff == 0)
    1328:	00002097          	auipc	ra,0x2
    132c:	0c8080e7          	jalr	200(ra) # 33f0 <mycpu>
    1330:	03c52783          	lw	a5,60(a0)
    1334:	0e078e63          	beqz	a5,1430 <release+0x134>
  mycpu()->noff += 1;
    1338:	00002097          	auipc	ra,0x2
    133c:	0b8080e7          	jalr	184(ra) # 33f0 <mycpu>
    1340:	03c52783          	lw	a5,60(a0)
  r = (lk->locked && lk->cpu == mycpu());
    1344:	0004a703          	lw	a4,0(s1)
    1348:	00000913          	li	s2,0
  mycpu()->noff += 1;
    134c:	00178793          	add	a5,a5,1
    1350:	02f52e23          	sw	a5,60(a0)
  r = (lk->locked && lk->cpu == mycpu());
    1354:	0c071263          	bnez	a4,1418 <release+0x11c>
  struct cpu *c = mycpu();
    1358:	00002097          	auipc	ra,0x2
    135c:	098080e7          	jalr	152(ra) # 33f0 <mycpu>
  asm volatile("csrr %0, sstatus" : "=r" (x) );
    1360:	100027f3          	csrr	a5,sstatus
  return (x & SSTATUS_SIE) != 0;
    1364:	0027f793          	and	a5,a5,2
  if(intr_get())
    1368:	0e079863          	bnez	a5,1458 <release+0x15c>
  c->noff -= 1;
    136c:	03c52783          	lw	a5,60(a0)
    1370:	fff78793          	add	a5,a5,-1
    1374:	02f52e23          	sw	a5,60(a0)
  if(c->noff < 0)
    1378:	0c07c863          	bltz	a5,1448 <release+0x14c>
  if(c->noff == 0 && c->intena)
    137c:	06078c63          	beqz	a5,13f4 <release+0xf8>
  if(!holding(lk))
    1380:	0e090463          	beqz	s2,1468 <release+0x16c>
  lk->cpu = 0;
    1384:	0004a423          	sw	zero,8(s1)
  __sync_synchronize();
    1388:	0ff0000f          	fence
  __sync_lock_release(&lk->locked);
    138c:	0f50000f          	fence	iorw,ow
    1390:	0804a02f          	amoswap.w	zero,zero,(s1)
  struct cpu *c = mycpu();
    1394:	00002097          	auipc	ra,0x2
    1398:	05c080e7          	jalr	92(ra) # 33f0 <mycpu>
  asm volatile("csrr %0, sstatus" : "=r" (x) );
    139c:	100027f3          	csrr	a5,sstatus
  return (x & SSTATUS_SIE) != 0;
    13a0:	0027f793          	and	a5,a5,2
  if(intr_get())
    13a4:	0a079a63          	bnez	a5,1458 <release+0x15c>
  c->noff -= 1;
    13a8:	03c52783          	lw	a5,60(a0)
    13ac:	fff78793          	add	a5,a5,-1
    13b0:	02f52e23          	sw	a5,60(a0)
  if(c->noff < 0)
    13b4:	0807ca63          	bltz	a5,1448 <release+0x14c>
  if(c->noff == 0 && c->intena)
    13b8:	02079263          	bnez	a5,13dc <release+0xe0>
    13bc:	04052783          	lw	a5,64(a0)
    13c0:	00078e63          	beqz	a5,13dc <release+0xe0>
  asm volatile("csrr %0, sie" : "=r" (x) );
    13c4:	104027f3          	csrr	a5,sie
  w_sie(r_sie() | SIE_SEIE | SIE_STIE | SIE_SSIE);
    13c8:	2227e793          	or	a5,a5,546
  asm volatile("csrw sie, %0" : : "r" (x));
    13cc:	10479073          	csrw	sie,a5
  asm volatile("csrr %0, sstatus" : "=r" (x) );
    13d0:	100027f3          	csrr	a5,sstatus
  w_sstatus(r_sstatus() | SSTATUS_SIE);
    13d4:	0027e793          	or	a5,a5,2
  asm volatile("csrw sstatus, %0" : : "r" (x));
    13d8:	10079073          	csrw	sstatus,a5
}
    13dc:	00c12083          	lw	ra,12(sp)
    13e0:	00812403          	lw	s0,8(sp)
    13e4:	00412483          	lw	s1,4(sp)
    13e8:	00012903          	lw	s2,0(sp)
    13ec:	01010113          	add	sp,sp,16
    13f0:	00008067          	ret
  if(c->noff == 0 && c->intena)
    13f4:	04052783          	lw	a5,64(a0)
    13f8:	f80784e3          	beqz	a5,1380 <release+0x84>
  asm volatile("csrr %0, sie" : "=r" (x) );
    13fc:	104027f3          	csrr	a5,sie
  w_sie(r_sie() | SIE_SEIE | SIE_STIE | SIE_SSIE);
    1400:	2227e793          	or	a5,a5,546
  asm volatile("csrw sie, %0" : : "r" (x));
    1404:	10479073          	csrw	sie,a5
  asm volatile("csrr %0, sstatus" : "=r" (x) );
    1408:	100027f3          	csrr	a5,sstatus
  w_sstatus(r_sstatus() | SSTATUS_SIE);
    140c:	0027e793          	or	a5,a5,2
  asm volatile("csrw sstatus, %0" : : "r" (x));
    1410:	10079073          	csrw	sstatus,a5
}
    1414:	f6dff06f          	j	1380 <release+0x84>
  r = (lk->locked && lk->cpu == mycpu());
    1418:	0084a903          	lw	s2,8(s1)
    141c:	00002097          	auipc	ra,0x2
    1420:	fd4080e7          	jalr	-44(ra) # 33f0 <mycpu>
    1424:	40a90933          	sub	s2,s2,a0
    1428:	00193913          	seqz	s2,s2
    142c:	f2dff06f          	j	1358 <release+0x5c>
  return (x & SSTATUS_SIE) != 0;
    1430:	00195913          	srl	s2,s2,0x1
    mycpu()->intena = old;
    1434:	00002097          	auipc	ra,0x2
    1438:	fbc080e7          	jalr	-68(ra) # 33f0 <mycpu>
    143c:	00197913          	and	s2,s2,1
    1440:	05252023          	sw	s2,64(a0)
    1444:	ef5ff06f          	j	1338 <release+0x3c>
    panic("pop_off");
    1448:	0000a517          	auipc	a0,0xa
    144c:	e5050513          	add	a0,a0,-432 # b298 <main+0x168>
    1450:	fffff097          	auipc	ra,0xfffff
    1454:	284080e7          	jalr	644(ra) # 6d4 <panic>
    panic("pop_off - interruptible");
    1458:	0000a517          	auipc	a0,0xa
    145c:	e2850513          	add	a0,a0,-472 # b280 <main+0x150>
    1460:	fffff097          	auipc	ra,0xfffff
    1464:	274080e7          	jalr	628(ra) # 6d4 <panic>
    panic("release");
    1468:	0000a517          	auipc	a0,0xa
    146c:	e4050513          	add	a0,a0,-448 # b2a8 <main+0x178>
    1470:	fffff097          	auipc	ra,0xfffff
    1474:	264080e7          	jalr	612(ra) # 6d4 <panic>

00001478 <holding>:
{
    1478:	ff010113          	add	sp,sp,-16
    147c:	00812423          	sw	s0,8(sp)
    1480:	00912223          	sw	s1,4(sp)
    1484:	00112623          	sw	ra,12(sp)
    1488:	01212023          	sw	s2,0(sp)
    148c:	01010413          	add	s0,sp,16
    1490:	00050493          	mv	s1,a0
  asm volatile("csrr %0, sstatus" : "=r" (x) );
    1494:	10002973          	csrr	s2,sstatus
    1498:	100027f3          	csrr	a5,sstatus
  w_sstatus(r_sstatus() & ~SSTATUS_SIE);
    149c:	ffd7f793          	and	a5,a5,-3
  asm volatile("csrw sstatus, %0" : : "r" (x));
    14a0:	10079073          	csrw	sstatus,a5
  if(mycpu()->noff == 0)
    14a4:	00002097          	auipc	ra,0x2
    14a8:	f4c080e7          	jalr	-180(ra) # 33f0 <mycpu>
    14ac:	03c52783          	lw	a5,60(a0)
    14b0:	0a078063          	beqz	a5,1550 <holding+0xd8>
  mycpu()->noff += 1;
    14b4:	00002097          	auipc	ra,0x2
    14b8:	f3c080e7          	jalr	-196(ra) # 33f0 <mycpu>
    14bc:	03c52783          	lw	a5,60(a0)
  r = (lk->locked && lk->cpu == mycpu());
    14c0:	0004a703          	lw	a4,0(s1)
    14c4:	00000913          	li	s2,0
  mycpu()->noff += 1;
    14c8:	00178793          	add	a5,a5,1
    14cc:	02f52e23          	sw	a5,60(a0)
  r = (lk->locked && lk->cpu == mycpu());
    14d0:	06071463          	bnez	a4,1538 <holding+0xc0>
  struct cpu *c = mycpu();
    14d4:	00002097          	auipc	ra,0x2
    14d8:	f1c080e7          	jalr	-228(ra) # 33f0 <mycpu>
  asm volatile("csrr %0, sstatus" : "=r" (x) );
    14dc:	100027f3          	csrr	a5,sstatus
  return (x & SSTATUS_SIE) != 0;
    14e0:	0027f793          	and	a5,a5,2
  if(intr_get())
    14e4:	08079a63          	bnez	a5,1578 <holding+0x100>
  c->noff -= 1;
    14e8:	03c52783          	lw	a5,60(a0)
    14ec:	fff78793          	add	a5,a5,-1
    14f0:	02f52e23          	sw	a5,60(a0)
  if(c->noff < 0)
    14f4:	0607ca63          	bltz	a5,1568 <holding+0xf0>
  if(c->noff == 0 && c->intena)
    14f8:	02079263          	bnez	a5,151c <holding+0xa4>
    14fc:	04052783          	lw	a5,64(a0)
    1500:	00078e63          	beqz	a5,151c <holding+0xa4>
  asm volatile("csrr %0, sie" : "=r" (x) );
    1504:	104027f3          	csrr	a5,sie
  w_sie(r_sie() | SIE_SEIE | SIE_STIE | SIE_SSIE);
    1508:	2227e793          	or	a5,a5,546
  asm volatile("csrw sie, %0" : : "r" (x));
    150c:	10479073          	csrw	sie,a5
  asm volatile("csrr %0, sstatus" : "=r" (x) );
    1510:	100027f3          	csrr	a5,sstatus
  w_sstatus(r_sstatus() | SSTATUS_SIE);
    1514:	0027e793          	or	a5,a5,2
  asm volatile("csrw sstatus, %0" : : "r" (x));
    1518:	10079073          	csrw	sstatus,a5
}
    151c:	00c12083          	lw	ra,12(sp)
    1520:	00812403          	lw	s0,8(sp)
    1524:	00412483          	lw	s1,4(sp)
    1528:	00090513          	mv	a0,s2
    152c:	00012903          	lw	s2,0(sp)
    1530:	01010113          	add	sp,sp,16
    1534:	00008067          	ret
  r = (lk->locked && lk->cpu == mycpu());
    1538:	0084a903          	lw	s2,8(s1)
    153c:	00002097          	auipc	ra,0x2
    1540:	eb4080e7          	jalr	-332(ra) # 33f0 <mycpu>
    1544:	40a90933          	sub	s2,s2,a0
    1548:	00193913          	seqz	s2,s2
    154c:	f89ff06f          	j	14d4 <holding+0x5c>
  return (x & SSTATUS_SIE) != 0;
    1550:	00195913          	srl	s2,s2,0x1
    mycpu()->intena = old;
    1554:	00002097          	auipc	ra,0x2
    1558:	e9c080e7          	jalr	-356(ra) # 33f0 <mycpu>
    155c:	00197913          	and	s2,s2,1
    1560:	05252023          	sw	s2,64(a0)
    1564:	f51ff06f          	j	14b4 <holding+0x3c>
    panic("pop_off");
    1568:	0000a517          	auipc	a0,0xa
    156c:	d3050513          	add	a0,a0,-720 # b298 <main+0x168>
    1570:	fffff097          	auipc	ra,0xfffff
    1574:	164080e7          	jalr	356(ra) # 6d4 <panic>
    panic("pop_off - interruptible");
    1578:	0000a517          	auipc	a0,0xa
    157c:	d0850513          	add	a0,a0,-760 # b280 <main+0x150>
    1580:	fffff097          	auipc	ra,0xfffff
    1584:	154080e7          	jalr	340(ra) # 6d4 <panic>

00001588 <push_off>:
{
    1588:	ff010113          	add	sp,sp,-16
    158c:	00812423          	sw	s0,8(sp)
    1590:	00112623          	sw	ra,12(sp)
    1594:	00912223          	sw	s1,4(sp)
    1598:	01010413          	add	s0,sp,16
  asm volatile("csrr %0, sstatus" : "=r" (x) );
    159c:	100024f3          	csrr	s1,sstatus
    15a0:	100027f3          	csrr	a5,sstatus
  w_sstatus(r_sstatus() & ~SSTATUS_SIE);
    15a4:	ffd7f793          	and	a5,a5,-3
  asm volatile("csrw sstatus, %0" : : "r" (x));
    15a8:	10079073          	csrw	sstatus,a5
  if(mycpu()->noff == 0)
    15ac:	00002097          	auipc	ra,0x2
    15b0:	e44080e7          	jalr	-444(ra) # 33f0 <mycpu>
    15b4:	03c52783          	lw	a5,60(a0)
    15b8:	02078663          	beqz	a5,15e4 <push_off+0x5c>
  mycpu()->noff += 1;
    15bc:	00002097          	auipc	ra,0x2
    15c0:	e34080e7          	jalr	-460(ra) # 33f0 <mycpu>
    15c4:	03c52783          	lw	a5,60(a0)
}
    15c8:	00c12083          	lw	ra,12(sp)
    15cc:	00812403          	lw	s0,8(sp)
  mycpu()->noff += 1;
    15d0:	00178793          	add	a5,a5,1
    15d4:	02f52e23          	sw	a5,60(a0)
}
    15d8:	00412483          	lw	s1,4(sp)
    15dc:	01010113          	add	sp,sp,16
    15e0:	00008067          	ret
  return (x & SSTATUS_SIE) != 0;
    15e4:	0014d493          	srl	s1,s1,0x1
    mycpu()->intena = old;
    15e8:	00002097          	auipc	ra,0x2
    15ec:	e08080e7          	jalr	-504(ra) # 33f0 <mycpu>
    15f0:	0014f493          	and	s1,s1,1
    15f4:	04952023          	sw	s1,64(a0)
    15f8:	fc5ff06f          	j	15bc <push_off+0x34>

000015fc <pop_off>:
{
    15fc:	ff010113          	add	sp,sp,-16
    1600:	00812423          	sw	s0,8(sp)
    1604:	00112623          	sw	ra,12(sp)
    1608:	01010413          	add	s0,sp,16
  struct cpu *c = mycpu();
    160c:	00002097          	auipc	ra,0x2
    1610:	de4080e7          	jalr	-540(ra) # 33f0 <mycpu>
  asm volatile("csrr %0, sstatus" : "=r" (x) );
    1614:	100027f3          	csrr	a5,sstatus
  return (x & SSTATUS_SIE) != 0;
    1618:	0027f793          	and	a5,a5,2
  if(intr_get())
    161c:	04079c63          	bnez	a5,1674 <pop_off+0x78>
  c->noff -= 1;
    1620:	03c52783          	lw	a5,60(a0)
    1624:	fff78793          	add	a5,a5,-1
    1628:	02f52e23          	sw	a5,60(a0)
  if(c->noff < 0)
    162c:	0207cc63          	bltz	a5,1664 <pop_off+0x68>
  if(c->noff == 0 && c->intena)
    1630:	02079263          	bnez	a5,1654 <pop_off+0x58>
    1634:	04052783          	lw	a5,64(a0)
    1638:	00078e63          	beqz	a5,1654 <pop_off+0x58>
  asm volatile("csrr %0, sie" : "=r" (x) );
    163c:	104027f3          	csrr	a5,sie
  w_sie(r_sie() | SIE_SEIE | SIE_STIE | SIE_SSIE);
    1640:	2227e793          	or	a5,a5,546
  asm volatile("csrw sie, %0" : : "r" (x));
    1644:	10479073          	csrw	sie,a5
  asm volatile("csrr %0, sstatus" : "=r" (x) );
    1648:	100027f3          	csrr	a5,sstatus
  w_sstatus(r_sstatus() | SSTATUS_SIE);
    164c:	0027e793          	or	a5,a5,2
  asm volatile("csrw sstatus, %0" : : "r" (x));
    1650:	10079073          	csrw	sstatus,a5
    intr_on();
}
    1654:	00c12083          	lw	ra,12(sp)
    1658:	00812403          	lw	s0,8(sp)
    165c:	01010113          	add	sp,sp,16
    1660:	00008067          	ret
    panic("pop_off");
    1664:	0000a517          	auipc	a0,0xa
    1668:	c3450513          	add	a0,a0,-972 # b298 <main+0x168>
    166c:	fffff097          	auipc	ra,0xfffff
    1670:	068080e7          	jalr	104(ra) # 6d4 <panic>
    panic("pop_off - interruptible");
    1674:	0000a517          	auipc	a0,0xa
    1678:	c0c50513          	add	a0,a0,-1012 # b280 <main+0x150>
    167c:	fffff097          	auipc	ra,0xfffff
    1680:	058080e7          	jalr	88(ra) # 6d4 <panic>

00001684 <memset>:
#include "types.h"

void*
memset(void *dst, int c, uint n)
{
    1684:	ff010113          	add	sp,sp,-16
    1688:	00812623          	sw	s0,12(sp)
    168c:	01010413          	add	s0,sp,16
  char *cdst = (char *) dst;
  int i;
  for(i = 0; i < n; i++){
    1690:	0e060463          	beqz	a2,1778 <memset+0xf4>
    1694:	40a006b3          	neg	a3,a0
    1698:	fff60813          	add	a6,a2,-1 # fff <freerange+0xc7>
    169c:	00500893          	li	a7,5
    cdst[i] = c;
    16a0:	0ff5f713          	zext.b	a4,a1
    16a4:	0036f793          	and	a5,a3,3
    16a8:	1108f063          	bgeu	a7,a6,17a8 <memset+0x124>
    16ac:	0e078263          	beqz	a5,1790 <memset+0x10c>
    16b0:	00e50023          	sb	a4,0(a0)
  for(i = 0; i < n; i++){
    16b4:	0026f693          	and	a3,a3,2
    16b8:	0c068663          	beqz	a3,1784 <memset+0x100>
    cdst[i] = c;
    16bc:	fff50693          	add	a3,a0,-1
    16c0:	00e500a3          	sb	a4,1(a0)
  for(i = 0; i < n; i++){
    16c4:	0036f693          	and	a3,a3,3
    16c8:	0c069a63          	bnez	a3,179c <memset+0x118>
    cdst[i] = c;
    16cc:	00e50123          	sb	a4,2(a0)
  for(i = 0; i < n; i++){
    16d0:	00300e13          	li	t3,3
    16d4:	00300893          	li	a7,3
    16d8:	00871693          	sll	a3,a4,0x8
    16dc:	40f605b3          	sub	a1,a2,a5
    16e0:	01071813          	sll	a6,a4,0x10
    16e4:	00d766b3          	or	a3,a4,a3
    16e8:	0106e6b3          	or	a3,a3,a6
    16ec:	01871313          	sll	t1,a4,0x18
    16f0:	00f507b3          	add	a5,a0,a5
    16f4:	ffc5f813          	and	a6,a1,-4
    16f8:	0066e6b3          	or	a3,a3,t1
    16fc:	00f80833          	add	a6,a6,a5
    cdst[i] = c;
    1700:	00d7a023          	sw	a3,0(a5)
  for(i = 0; i < n; i++){
    1704:	00478793          	add	a5,a5,4
    1708:	ff079ce3          	bne	a5,a6,1700 <memset+0x7c>
    170c:	0035f793          	and	a5,a1,3
    1710:	06078463          	beqz	a5,1778 <memset+0xf4>
    1714:	ffc5f793          	and	a5,a1,-4
    1718:	00f888b3          	add	a7,a7,a5
    171c:	01c787b3          	add	a5,a5,t3
    cdst[i] = c;
    1720:	011508b3          	add	a7,a0,a7
    1724:	00e88023          	sb	a4,0(a7)
  for(i = 0; i < n; i++){
    1728:	00178693          	add	a3,a5,1
    172c:	04c6f663          	bgeu	a3,a2,1778 <memset+0xf4>
    cdst[i] = c;
    1730:	00d506b3          	add	a3,a0,a3
    1734:	00e68023          	sb	a4,0(a3)
  for(i = 0; i < n; i++){
    1738:	00278693          	add	a3,a5,2
    173c:	02c6fe63          	bgeu	a3,a2,1778 <memset+0xf4>
    cdst[i] = c;
    1740:	00d506b3          	add	a3,a0,a3
    1744:	00e68023          	sb	a4,0(a3)
  for(i = 0; i < n; i++){
    1748:	00378693          	add	a3,a5,3
    174c:	02c6f663          	bgeu	a3,a2,1778 <memset+0xf4>
    cdst[i] = c;
    1750:	00d506b3          	add	a3,a0,a3
    1754:	00e68023          	sb	a4,0(a3)
  for(i = 0; i < n; i++){
    1758:	00478693          	add	a3,a5,4
    175c:	00c6fe63          	bgeu	a3,a2,1778 <memset+0xf4>
    cdst[i] = c;
    1760:	00d506b3          	add	a3,a0,a3
    1764:	00e68023          	sb	a4,0(a3)
  for(i = 0; i < n; i++){
    1768:	00578793          	add	a5,a5,5
    176c:	00c7f663          	bgeu	a5,a2,1778 <memset+0xf4>
    cdst[i] = c;
    1770:	00f507b3          	add	a5,a0,a5
    1774:	00e78023          	sb	a4,0(a5)
  }
  return dst;
}
    1778:	00c12403          	lw	s0,12(sp)
    177c:	01010113          	add	sp,sp,16
    1780:	00008067          	ret
  for(i = 0; i < n; i++){
    1784:	00100e13          	li	t3,1
    1788:	00100893          	li	a7,1
    178c:	f4dff06f          	j	16d8 <memset+0x54>
    1790:	00000893          	li	a7,0
    1794:	00000e13          	li	t3,0
    1798:	f41ff06f          	j	16d8 <memset+0x54>
    179c:	00200e13          	li	t3,2
    17a0:	00200893          	li	a7,2
    17a4:	f35ff06f          	j	16d8 <memset+0x54>
    17a8:	00000793          	li	a5,0
    17ac:	00000893          	li	a7,0
    17b0:	f71ff06f          	j	1720 <memset+0x9c>

000017b4 <memcmp>:

int
memcmp(const void *v1, const void *v2, uint n)
{
    17b4:	ff010113          	add	sp,sp,-16
    17b8:	00812623          	sw	s0,12(sp)
    17bc:	01010413          	add	s0,sp,16
  const uchar *s1, *s2;

  s1 = v1;
  s2 = v2;
  while(n-- > 0){
    17c0:	02060a63          	beqz	a2,17f4 <memcmp+0x40>
    17c4:	00c58633          	add	a2,a1,a2
    17c8:	0080006f          	j	17d0 <memcmp+0x1c>
    17cc:	02c58463          	beq	a1,a2,17f4 <memcmp+0x40>
    if(*s1 != *s2)
    17d0:	00054783          	lbu	a5,0(a0)
    17d4:	0005c703          	lbu	a4,0(a1)
      return *s1 - *s2;
    s1++, s2++;
    17d8:	00150513          	add	a0,a0,1
    17dc:	00158593          	add	a1,a1,1
    if(*s1 != *s2)
    17e0:	fee786e3          	beq	a5,a4,17cc <memcmp+0x18>
  }

  return 0;
}
    17e4:	00c12403          	lw	s0,12(sp)
      return *s1 - *s2;
    17e8:	40e78533          	sub	a0,a5,a4
}
    17ec:	01010113          	add	sp,sp,16
    17f0:	00008067          	ret
    17f4:	00c12403          	lw	s0,12(sp)
  return 0;
    17f8:	00000513          	li	a0,0
}
    17fc:	01010113          	add	sp,sp,16
    1800:	00008067          	ret

00001804 <memmove>:

void*
memmove(void *dst, const void *src, uint n)
{
    1804:	ff010113          	add	sp,sp,-16
    1808:	00812623          	sw	s0,12(sp)
    180c:	01010413          	add	s0,sp,16
  const char *s;
  char *d;

  s = src;
  d = dst;
  if(s < d && s + n > d){
    1810:	02a5fa63          	bgeu	a1,a0,1844 <memmove+0x40>
    1814:	00c587b3          	add	a5,a1,a2
    1818:	02f57663          	bgeu	a0,a5,1844 <memmove+0x40>
    s += n;
    d += n;
    181c:	00c50733          	add	a4,a0,a2
    while(n-- > 0)
    1820:	00060c63          	beqz	a2,1838 <memmove+0x34>
      *--d = *--s;
    1824:	fff7c683          	lbu	a3,-1(a5)
    1828:	fff78793          	add	a5,a5,-1
    182c:	fff70713          	add	a4,a4,-1 # ffffefff <end+0xfffdafeb>
    1830:	00d70023          	sb	a3,0(a4)
    while(n-- > 0)
    1834:	fef598e3          	bne	a1,a5,1824 <memmove+0x20>
  } else
    while(n-- > 0)
      *d++ = *s++;

  return dst;
}
    1838:	00c12403          	lw	s0,12(sp)
    183c:	01010113          	add	sp,sp,16
    1840:	00008067          	ret
    while(n-- > 0)
    1844:	fe060ae3          	beqz	a2,1838 <memmove+0x34>
    while(n-- > 0)
    1848:	fff60893          	add	a7,a2,-1
    184c:	00600793          	li	a5,6
    1850:	00158713          	add	a4,a1,1
    1854:	0917f463          	bgeu	a5,a7,18dc <memmove+0xd8>
    1858:	40e507b3          	sub	a5,a0,a4
    185c:	0037b793          	sltiu	a5,a5,3
    1860:	06079e63          	bnez	a5,18dc <memmove+0xd8>
    1864:	00a5e7b3          	or	a5,a1,a0
    1868:	0037f793          	and	a5,a5,3
    186c:	06079863          	bnez	a5,18dc <memmove+0xd8>
    1870:	ffc67813          	and	a6,a2,-4
    1874:	00058793          	mv	a5,a1
    1878:	00050713          	mv	a4,a0
    187c:	00b80833          	add	a6,a6,a1
      *d++ = *s++;
    1880:	0007a683          	lw	a3,0(a5)
    1884:	00478793          	add	a5,a5,4
    1888:	00470713          	add	a4,a4,4
    188c:	fed72e23          	sw	a3,-4(a4)
    while(n-- > 0)
    1890:	ff0798e3          	bne	a5,a6,1880 <memmove+0x7c>
    1894:	ffc67793          	and	a5,a2,-4
    1898:	00367613          	and	a2,a2,3
    189c:	00f585b3          	add	a1,a1,a5
    18a0:	00f50733          	add	a4,a0,a5
    18a4:	40f888b3          	sub	a7,a7,a5
    18a8:	f80608e3          	beqz	a2,1838 <memmove+0x34>
      *d++ = *s++;
    18ac:	0005c783          	lbu	a5,0(a1)
    18b0:	00f70023          	sb	a5,0(a4)
    while(n-- > 0)
    18b4:	f80882e3          	beqz	a7,1838 <memmove+0x34>
      *d++ = *s++;
    18b8:	0015c683          	lbu	a3,1(a1)
    while(n-- > 0)
    18bc:	00100793          	li	a5,1
      *d++ = *s++;
    18c0:	00d700a3          	sb	a3,1(a4)
    while(n-- > 0)
    18c4:	f6f88ae3          	beq	a7,a5,1838 <memmove+0x34>
      *d++ = *s++;
    18c8:	0025c783          	lbu	a5,2(a1)
    18cc:	00f70123          	sb	a5,2(a4)
}
    18d0:	00c12403          	lw	s0,12(sp)
    18d4:	01010113          	add	sp,sp,16
    18d8:	00008067          	ret
    18dc:	00c50633          	add	a2,a0,a2
{
    18e0:	00050793          	mv	a5,a0
      *d++ = *s++;
    18e4:	fff74683          	lbu	a3,-1(a4)
    18e8:	00178793          	add	a5,a5,1
    18ec:	00170713          	add	a4,a4,1
    18f0:	fed78fa3          	sb	a3,-1(a5)
    while(n-- > 0)
    18f4:	fec798e3          	bne	a5,a2,18e4 <memmove+0xe0>
}
    18f8:	00c12403          	lw	s0,12(sp)
    18fc:	01010113          	add	sp,sp,16
    1900:	00008067          	ret

00001904 <memcpy>:

// memcpy exists to placate GCC.  Use memmove.
void*
memcpy(void *dst, const void *src, uint n)
{
    1904:	ff010113          	add	sp,sp,-16
    1908:	00812623          	sw	s0,12(sp)
    190c:	01010413          	add	s0,sp,16
  if(s < d && s + n > d){
    1910:	02a5fa63          	bgeu	a1,a0,1944 <memcpy+0x40>
    1914:	00c587b3          	add	a5,a1,a2
    1918:	02f57663          	bgeu	a0,a5,1944 <memcpy+0x40>
    d += n;
    191c:	00c50733          	add	a4,a0,a2
    while(n-- > 0)
    1920:	00060c63          	beqz	a2,1938 <memcpy+0x34>
      *--d = *--s;
    1924:	fff7c683          	lbu	a3,-1(a5)
    1928:	fff78793          	add	a5,a5,-1
    192c:	fff70713          	add	a4,a4,-1
    1930:	00d70023          	sb	a3,0(a4)
    while(n-- > 0)
    1934:	fef598e3          	bne	a1,a5,1924 <memcpy+0x20>
  return memmove(dst, src, n);
}
    1938:	00c12403          	lw	s0,12(sp)
    193c:	01010113          	add	sp,sp,16
    1940:	00008067          	ret
    while(n-- > 0)
    1944:	fe060ae3          	beqz	a2,1938 <memcpy+0x34>
    while(n-- > 0)
    1948:	fff60893          	add	a7,a2,-1
    194c:	00600793          	li	a5,6
    1950:	00158713          	add	a4,a1,1
    1954:	0917f663          	bgeu	a5,a7,19e0 <memcpy+0xdc>
    1958:	00b567b3          	or	a5,a0,a1
    195c:	0037f793          	and	a5,a5,3
    1960:	00158713          	add	a4,a1,1
    1964:	06079e63          	bnez	a5,19e0 <memcpy+0xdc>
    1968:	40e507b3          	sub	a5,a0,a4
    196c:	0037b793          	sltiu	a5,a5,3
    1970:	06079863          	bnez	a5,19e0 <memcpy+0xdc>
    1974:	ffc67813          	and	a6,a2,-4
    1978:	00058793          	mv	a5,a1
    197c:	00050713          	mv	a4,a0
    1980:	00b80833          	add	a6,a6,a1
      *d++ = *s++;
    1984:	0007a683          	lw	a3,0(a5)
    1988:	00478793          	add	a5,a5,4
    198c:	00470713          	add	a4,a4,4
    1990:	fed72e23          	sw	a3,-4(a4)
    while(n-- > 0)
    1994:	ff0798e3          	bne	a5,a6,1984 <memcpy+0x80>
    1998:	ffc67793          	and	a5,a2,-4
    199c:	00367613          	and	a2,a2,3
    19a0:	00f585b3          	add	a1,a1,a5
    19a4:	00f50733          	add	a4,a0,a5
    19a8:	40f888b3          	sub	a7,a7,a5
    19ac:	f80606e3          	beqz	a2,1938 <memcpy+0x34>
      *d++ = *s++;
    19b0:	0005c783          	lbu	a5,0(a1)
    19b4:	00f70023          	sb	a5,0(a4)
    while(n-- > 0)
    19b8:	f80880e3          	beqz	a7,1938 <memcpy+0x34>
      *d++ = *s++;
    19bc:	0015c683          	lbu	a3,1(a1)
    while(n-- > 0)
    19c0:	00100793          	li	a5,1
      *d++ = *s++;
    19c4:	00d700a3          	sb	a3,1(a4)
    while(n-- > 0)
    19c8:	f6f888e3          	beq	a7,a5,1938 <memcpy+0x34>
      *d++ = *s++;
    19cc:	0025c783          	lbu	a5,2(a1)
    19d0:	00f70123          	sb	a5,2(a4)
}
    19d4:	00c12403          	lw	s0,12(sp)
    19d8:	01010113          	add	sp,sp,16
    19dc:	00008067          	ret
    19e0:	00c50633          	add	a2,a0,a2
{
    19e4:	00050793          	mv	a5,a0
      *d++ = *s++;
    19e8:	fff74683          	lbu	a3,-1(a4)
    19ec:	00178793          	add	a5,a5,1
    19f0:	00170713          	add	a4,a4,1
    19f4:	fed78fa3          	sb	a3,-1(a5)
    while(n-- > 0)
    19f8:	fec798e3          	bne	a5,a2,19e8 <memcpy+0xe4>
}
    19fc:	00c12403          	lw	s0,12(sp)
    1a00:	01010113          	add	sp,sp,16
    1a04:	00008067          	ret

00001a08 <strncmp>:

int
strncmp(const char *p, const char *q, uint n)
{
    1a08:	ff010113          	add	sp,sp,-16
    1a0c:	00812623          	sw	s0,12(sp)
    1a10:	01010413          	add	s0,sp,16
  while(n > 0 && *p && *p == *q)
    1a14:	00061e63          	bnez	a2,1a30 <strncmp+0x28>
    1a18:	03c0006f          	j	1a54 <strncmp+0x4c>
    1a1c:	0005c703          	lbu	a4,0(a1)
    1a20:	00f71e63          	bne	a4,a5,1a3c <strncmp+0x34>
    n--, p++, q++;
    1a24:	00150513          	add	a0,a0,1
    1a28:	00158593          	add	a1,a1,1
  while(n > 0 && *p && *p == *q)
    1a2c:	02060463          	beqz	a2,1a54 <strncmp+0x4c>
    1a30:	00054783          	lbu	a5,0(a0)
    n--, p++, q++;
    1a34:	fff60613          	add	a2,a2,-1
  while(n > 0 && *p && *p == *q)
    1a38:	fe0792e3          	bnez	a5,1a1c <strncmp+0x14>
  if(n == 0)
    return 0;
  return (uchar)*p - (uchar)*q;
    1a3c:	00054503          	lbu	a0,0(a0)
    1a40:	0005c783          	lbu	a5,0(a1)
}
    1a44:	00c12403          	lw	s0,12(sp)
  return (uchar)*p - (uchar)*q;
    1a48:	40f50533          	sub	a0,a0,a5
}
    1a4c:	01010113          	add	sp,sp,16
    1a50:	00008067          	ret
    1a54:	00c12403          	lw	s0,12(sp)
    return 0;
    1a58:	00000513          	li	a0,0
}
    1a5c:	01010113          	add	sp,sp,16
    1a60:	00008067          	ret

00001a64 <strncpy>:

char*
strncpy(char *s, const char *t, int n)
{
    1a64:	ff010113          	add	sp,sp,-16
    1a68:	00812623          	sw	s0,12(sp)
    1a6c:	01010413          	add	s0,sp,16
  char *os;

  os = s;
  while(n-- > 0 && (*s++ = *t++) != 0)
    1a70:	00050813          	mv	a6,a0
    1a74:	0140006f          	j	1a88 <strncpy+0x24>
    1a78:	fff5c683          	lbu	a3,-1(a1)
    1a7c:	fed78fa3          	sb	a3,-1(a5)
    1a80:	02068463          	beqz	a3,1aa8 <strncpy+0x44>
    1a84:	00078813          	mv	a6,a5
    1a88:	00060713          	mv	a4,a2
    1a8c:	00158593          	add	a1,a1,1
    1a90:	00180793          	add	a5,a6,1
    1a94:	fff60613          	add	a2,a2,-1
    1a98:	fee040e3          	bgtz	a4,1a78 <strncpy+0x14>
    ;
  while(n-- > 0)
    *s++ = 0;
  return os;
}
    1a9c:	00c12403          	lw	s0,12(sp)
    1aa0:	01010113          	add	sp,sp,16
    1aa4:	00008067          	ret
  while(n-- > 0)
    1aa8:	ffe70593          	add	a1,a4,-2
    1aac:	fe0608e3          	beqz	a2,1a9c <strncpy+0x38>
    1ab0:	00100693          	li	a3,1
    1ab4:	00e6d463          	bge	a3,a4,1abc <strncpy+0x58>
    1ab8:	00060693          	mv	a3,a2
    1abc:	40f00633          	neg	a2,a5
    1ac0:	00700313          	li	t1,7
    1ac4:	00367893          	and	a7,a2,3
    1ac8:	06e35a63          	bge	t1,a4,1b3c <strncpy+0xd8>
  while(n-- > 0 && (*s++ = *t++) != 0)
    1acc:	00078313          	mv	t1,a5
    1ad0:	02088e63          	beqz	a7,1b0c <strncpy+0xa8>
    *s++ = 0;
    1ad4:	00078023          	sb	zero,0(a5)
  while(n-- > 0)
    1ad8:	00267613          	and	a2,a2,2
    *s++ = 0;
    1adc:	00280313          	add	t1,a6,2
  while(n-- > 0)
    1ae0:	ffd70593          	add	a1,a4,-3
    1ae4:	02060463          	beqz	a2,1b0c <strncpy+0xa8>
    *s++ = 0;
    1ae8:	fff78613          	add	a2,a5,-1
    1aec:	000780a3          	sb	zero,1(a5)
  while(n-- > 0)
    1af0:	00367613          	and	a2,a2,3
    *s++ = 0;
    1af4:	00380313          	add	t1,a6,3
  while(n-- > 0)
    1af8:	ffc70593          	add	a1,a4,-4
    1afc:	00061863          	bnez	a2,1b0c <strncpy+0xa8>
    *s++ = 0;
    1b00:	00480313          	add	t1,a6,4
    1b04:	00078123          	sb	zero,2(a5)
  while(n-- > 0)
    1b08:	ffb70593          	add	a1,a4,-5
    1b0c:	41168733          	sub	a4,a3,a7
    1b10:	011787b3          	add	a5,a5,a7
    1b14:	ffc77693          	and	a3,a4,-4
    1b18:	00f686b3          	add	a3,a3,a5
    *s++ = 0;
    1b1c:	0007a023          	sw	zero,0(a5)
  while(n-- > 0)
    1b20:	00478793          	add	a5,a5,4
    1b24:	fed79ce3          	bne	a5,a3,1b1c <strncpy+0xb8>
    1b28:	ffc77693          	and	a3,a4,-4
    1b2c:	00377713          	and	a4,a4,3
    1b30:	00d307b3          	add	a5,t1,a3
    1b34:	40d585b3          	sub	a1,a1,a3
    1b38:	f60702e3          	beqz	a4,1a9c <strncpy+0x38>
    *s++ = 0;
    1b3c:	00078023          	sb	zero,0(a5)
  while(n-- > 0)
    1b40:	f4b05ee3          	blez	a1,1a9c <strncpy+0x38>
    *s++ = 0;
    1b44:	000780a3          	sb	zero,1(a5)
  while(n-- > 0)
    1b48:	00100713          	li	a4,1
    1b4c:	f4e588e3          	beq	a1,a4,1a9c <strncpy+0x38>
    *s++ = 0;
    1b50:	00078123          	sb	zero,2(a5)
  while(n-- > 0)
    1b54:	00200713          	li	a4,2
    1b58:	f4e582e3          	beq	a1,a4,1a9c <strncpy+0x38>
    *s++ = 0;
    1b5c:	000781a3          	sb	zero,3(a5)
  while(n-- > 0)
    1b60:	00300713          	li	a4,3
    1b64:	f2e58ce3          	beq	a1,a4,1a9c <strncpy+0x38>
    *s++ = 0;
    1b68:	00078223          	sb	zero,4(a5)
  while(n-- > 0)
    1b6c:	00400713          	li	a4,4
    1b70:	f2e586e3          	beq	a1,a4,1a9c <strncpy+0x38>
    *s++ = 0;
    1b74:	000782a3          	sb	zero,5(a5)
}
    1b78:	00c12403          	lw	s0,12(sp)
    1b7c:	01010113          	add	sp,sp,16
    1b80:	00008067          	ret

00001b84 <safestrcpy>:

// Like strncpy but guaranteed to NUL-terminate.
char*
safestrcpy(char *s, const char *t, int n)
{
    1b84:	ff010113          	add	sp,sp,-16
    1b88:	00812623          	sw	s0,12(sp)
    1b8c:	01010413          	add	s0,sp,16
  char *os;

  os = s;
  if(n <= 0)
    1b90:	02c05663          	blez	a2,1bbc <safestrcpy+0x38>
    1b94:	fff60613          	add	a2,a2,-1
    1b98:	00c586b3          	add	a3,a1,a2
    1b9c:	00050793          	mv	a5,a0
    return os;
  while(--n > 0 && (*s++ = *t++) != 0)
    1ba0:	00d58c63          	beq	a1,a3,1bb8 <safestrcpy+0x34>
    1ba4:	0005c703          	lbu	a4,0(a1)
    1ba8:	00178793          	add	a5,a5,1
    1bac:	00158593          	add	a1,a1,1
    1bb0:	fee78fa3          	sb	a4,-1(a5)
    1bb4:	fe0716e3          	bnez	a4,1ba0 <safestrcpy+0x1c>
    ;
  *s = 0;
    1bb8:	00078023          	sb	zero,0(a5)
  return os;
}
    1bbc:	00c12403          	lw	s0,12(sp)
    1bc0:	01010113          	add	sp,sp,16
    1bc4:	00008067          	ret

00001bc8 <strlen>:

int
strlen(const char *s)
{
    1bc8:	ff010113          	add	sp,sp,-16
    1bcc:	00812623          	sw	s0,12(sp)
    1bd0:	01010413          	add	s0,sp,16
  int n;

  for(n = 0; s[n]; n++)
    1bd4:	00054783          	lbu	a5,0(a0)
    1bd8:	02078463          	beqz	a5,1c00 <strlen+0x38>
    1bdc:	00050713          	mv	a4,a0
    1be0:	00000513          	li	a0,0
    1be4:	00150513          	add	a0,a0,1
    1be8:	00a707b3          	add	a5,a4,a0
    1bec:	0007c783          	lbu	a5,0(a5)
    1bf0:	fe079ae3          	bnez	a5,1be4 <strlen+0x1c>
    ;
  return n;
}
    1bf4:	00c12403          	lw	s0,12(sp)
    1bf8:	01010113          	add	sp,sp,16
    1bfc:	00008067          	ret
    1c00:	00c12403          	lw	s0,12(sp)
  for(n = 0; s[n]; n++)
    1c04:	00000513          	li	a0,0
}
    1c08:	01010113          	add	sp,sp,16
    1c0c:	00008067          	ret

00001c10 <mappages.constprop.0>:
// Create PTEs for virtual addresses starting at va that refer to
// physical addresses starting at pa. va and size might not
// be page-aligned. Returns 0 on success, -1 if walk() couldn't
// allocate a needed page-table page.
int
mappages(pagetable_t pagetable, uint32 va, uint32 size, uint32 pa, int perm)
    1c10:	fd010113          	add	sp,sp,-48
    1c14:	01412c23          	sw	s4,24(sp)
{
  uint32 a, last;
  pte_t *pte;

  a = PGROUNDDOWN(va);
  last = PGROUNDDOWN(va + size - 1);
    1c18:	00001a37          	lui	s4,0x1
  a = PGROUNDDOWN(va);
    1c1c:	fffff7b7          	lui	a5,0xfffff
  last = PGROUNDDOWN(va + size - 1);
    1c20:	fffa0a13          	add	s4,s4,-1 # fff <freerange+0xc7>
mappages(pagetable_t pagetable, uint32 va, uint32 size, uint32 pa, int perm)
    1c24:	02812423          	sw	s0,40(sp)
    1c28:	03212023          	sw	s2,32(sp)
    1c2c:	01512a23          	sw	s5,20(sp)
    1c30:	01612823          	sw	s6,16(sp)
    1c34:	01712623          	sw	s7,12(sp)
    1c38:	02112623          	sw	ra,44(sp)
    1c3c:	02912223          	sw	s1,36(sp)
    1c40:	01312e23          	sw	s3,28(sp)
    1c44:	01812423          	sw	s8,8(sp)
    1c48:	03010413          	add	s0,sp,48
  last = PGROUNDDOWN(va + size - 1);
    1c4c:	01458a33          	add	s4,a1,s4
  a = PGROUNDDOWN(va);
    1c50:	00f5f933          	and	s2,a1,a5
mappages(pagetable_t pagetable, uint32 va, uint32 size, uint32 pa, int perm)
    1c54:	00050b13          	mv	s6,a0
    1c58:	00068b93          	mv	s7,a3
  last = PGROUNDDOWN(va + size - 1);
    1c5c:	00fa7a33          	and	s4,s4,a5
    1c60:	41260ab3          	sub	s5,a2,s2
    1c64:	04c0006f          	j	1cb0 <mappages.constprop.0+0xa0>
  return &pagetable[PX(0, va)];
    1c68:	00c95793          	srl	a5,s2,0xc
      pagetable = (pagetable_t)PTE2PA(*pte);
    1c6c:	00a4d493          	srl	s1,s1,0xa
  return &pagetable[PX(0, va)];
    1c70:	3ff7f793          	and	a5,a5,1023
      pagetable = (pagetable_t)PTE2PA(*pte);
    1c74:	00c49493          	sll	s1,s1,0xc
  return &pagetable[PX(0, va)];
    1c78:	00279793          	sll	a5,a5,0x2
    1c7c:	00f484b3          	add	s1,s1,a5
  for(;;){
    if((pte = walk(pagetable, a, 1)) == 0)
    1c80:	08048863          	beqz	s1,1d10 <mappages.constprop.0+0x100>
      return -1;
    if(*pte & PTE_V)
    1c84:	0004a783          	lw	a5,0(s1)
    1c88:	0017f793          	and	a5,a5,1
    1c8c:	0c079063          	bnez	a5,1d4c <mappages.constprop.0+0x13c>
      panic("remap");
    *pte = PA2PTE(pa) | perm | PTE_V;
    1c90:	00c9d793          	srl	a5,s3,0xc
    1c94:	00a79793          	sll	a5,a5,0xa
    1c98:	0177e7b3          	or	a5,a5,s7
    1c9c:	0017e793          	or	a5,a5,1
    1ca0:	00f4a023          	sw	a5,0(s1)
    if(a == last)
    1ca4:	0b2a0063          	beq	s4,s2,1d44 <mappages.constprop.0+0x134>
      break;
    a += PGSIZE;
    1ca8:	000017b7          	lui	a5,0x1
    1cac:	00f90933          	add	s2,s2,a5
    pte_t *pte = &pagetable[PX(level, va)];
    1cb0:	01695c13          	srl	s8,s2,0x16
    1cb4:	002c1c13          	sll	s8,s8,0x2
    1cb8:	018b0c33          	add	s8,s6,s8
    if(*pte & PTE_V) {
    1cbc:	000c2483          	lw	s1,0(s8)
    1cc0:	015909b3          	add	s3,s2,s5
    1cc4:	0014f793          	and	a5,s1,1
    1cc8:	fa0790e3          	bnez	a5,1c68 <mappages.constprop.0+0x58>
      if(!alloc || (pagetable = (pde_t*)kalloc()) == 0)
    1ccc:	fffff097          	auipc	ra,0xfffff
    1cd0:	3e0080e7          	jalr	992(ra) # 10ac <kalloc>
    1cd4:	00050493          	mv	s1,a0
    1cd8:	02050c63          	beqz	a0,1d10 <mappages.constprop.0+0x100>
      memset(pagetable, 0, PGSIZE);
    1cdc:	00001637          	lui	a2,0x1
    1ce0:	00000593          	li	a1,0
    1ce4:	00000097          	auipc	ra,0x0
    1ce8:	9a0080e7          	jalr	-1632(ra) # 1684 <memset>
      *pte = PA2PTE(pagetable) | PTE_V;
    1cec:	00c4d713          	srl	a4,s1,0xc
  return &pagetable[PX(0, va)];
    1cf0:	00c95793          	srl	a5,s2,0xc
      *pte = PA2PTE(pagetable) | PTE_V;
    1cf4:	00a71713          	sll	a4,a4,0xa
  return &pagetable[PX(0, va)];
    1cf8:	3ff7f793          	and	a5,a5,1023
      *pte = PA2PTE(pagetable) | PTE_V;
    1cfc:	00176713          	or	a4,a4,1
  return &pagetable[PX(0, va)];
    1d00:	00279793          	sll	a5,a5,0x2
      *pte = PA2PTE(pagetable) | PTE_V;
    1d04:	00ec2023          	sw	a4,0(s8)
  return &pagetable[PX(0, va)];
    1d08:	00f484b3          	add	s1,s1,a5
    1d0c:	f79ff06f          	j	1c84 <mappages.constprop.0+0x74>
      return -1;
    1d10:	fff00513          	li	a0,-1
    pa += PGSIZE;
  }
  return 0;
}
    1d14:	02c12083          	lw	ra,44(sp)
    1d18:	02812403          	lw	s0,40(sp)
    1d1c:	02412483          	lw	s1,36(sp)
    1d20:	02012903          	lw	s2,32(sp)
    1d24:	01c12983          	lw	s3,28(sp)
    1d28:	01812a03          	lw	s4,24(sp)
    1d2c:	01412a83          	lw	s5,20(sp)
    1d30:	01012b03          	lw	s6,16(sp)
    1d34:	00c12b83          	lw	s7,12(sp)
    1d38:	00812c03          	lw	s8,8(sp)
    1d3c:	03010113          	add	sp,sp,48
    1d40:	00008067          	ret
  return 0;
    1d44:	00000513          	li	a0,0
    1d48:	fcdff06f          	j	1d14 <mappages.constprop.0+0x104>
      panic("remap");
    1d4c:	00009517          	auipc	a0,0x9
    1d50:	59050513          	add	a0,a0,1424 # b2dc <main+0x1ac>
    1d54:	fffff097          	auipc	ra,0xfffff
    1d58:	980080e7          	jalr	-1664(ra) # 6d4 <panic>

00001d5c <uvmunmap.constprop.0>:

// Remove mappings from a page table. The mappings in
// the given range must exist. Optionally free the
// physical memory.
void
uvmunmap(pagetable_t pagetable, uint32 va, uint32 size, int do_free)
    1d5c:	fe010113          	add	sp,sp,-32
  uint32 a, last;
  pte_t *pte;
  uint32 pa;

  a = PGROUNDDOWN(va);
  last = PGROUNDDOWN(va + size - 1);
    1d60:	fff60793          	add	a5,a2,-1 # fff <freerange+0xc7>
uvmunmap(pagetable_t pagetable, uint32 va, uint32 size, int do_free)
    1d64:	00812c23          	sw	s0,24(sp)
    1d68:	01212823          	sw	s2,16(sp)
    1d6c:	01312623          	sw	s3,12(sp)
    1d70:	01412423          	sw	s4,8(sp)
    1d74:	01512223          	sw	s5,4(sp)
    1d78:	01612023          	sw	s6,0(sp)
  a = PGROUNDDOWN(va);
    1d7c:	fffff737          	lui	a4,0xfffff
uvmunmap(pagetable_t pagetable, uint32 va, uint32 size, int do_free)
    1d80:	00112e23          	sw	ra,28(sp)
    1d84:	00912a23          	sw	s1,20(sp)
    1d88:	02010413          	add	s0,sp,32
  last = PGROUNDDOWN(va + size - 1);
    1d8c:	00b787b3          	add	a5,a5,a1
uvmunmap(pagetable_t pagetable, uint32 va, uint32 size, int do_free)
    1d90:	00050993          	mv	s3,a0
  a = PGROUNDDOWN(va);
    1d94:	00e5fb33          	and	s6,a1,a4
  last = PGROUNDDOWN(va + size - 1);
    1d98:	00e7f933          	and	s2,a5,a4
      panic("uvmunmap: walk");
    if((*pte & PTE_V) == 0){
      printf("va=%p pte=%p\n", a, *pte);
      panic("uvmunmap: not mapped");
    }
    if(PTE_FLAGS(*pte) == PTE_V)
    1d9c:	00100a13          	li	s4,1
      kfree((void*)pa);
    }
    *pte = 0;
    if(a == last)
      break;
    a += PGSIZE;
    1da0:	00001ab7          	lui	s5,0x1
    pte_t *pte = &pagetable[PX(level, va)];
    1da4:	016b5793          	srl	a5,s6,0x16
    if(*pte & PTE_V) {
    1da8:	00279793          	sll	a5,a5,0x2
    1dac:	00f987b3          	add	a5,s3,a5
    1db0:	0007a483          	lw	s1,0(a5) # 1000 <freerange+0xc8>
    1db4:	0014f793          	and	a5,s1,1
    1db8:	00079a63          	bnez	a5,1dcc <uvmunmap.constprop.0+0x70>
      panic("uvmunmap: walk");
    1dbc:	00009517          	auipc	a0,0x9
    1dc0:	52850513          	add	a0,a0,1320 # b2e4 <main+0x1b4>
    1dc4:	fffff097          	auipc	ra,0xfffff
    1dc8:	910080e7          	jalr	-1776(ra) # 6d4 <panic>
  return &pagetable[PX(0, va)];
    1dcc:	00cb5793          	srl	a5,s6,0xc
      pagetable = (pagetable_t)PTE2PA(*pte);
    1dd0:	00a4d493          	srl	s1,s1,0xa
  return &pagetable[PX(0, va)];
    1dd4:	3ff7f793          	and	a5,a5,1023
      pagetable = (pagetable_t)PTE2PA(*pte);
    1dd8:	00c49493          	sll	s1,s1,0xc
  return &pagetable[PX(0, va)];
    1ddc:	00279793          	sll	a5,a5,0x2
    1de0:	00f484b3          	add	s1,s1,a5
    if((pte = walk(pagetable, a, 0)) == 0)
    1de4:	fc048ce3          	beqz	s1,1dbc <uvmunmap.constprop.0+0x60>
    if((*pte & PTE_V) == 0){
    1de8:	0004a603          	lw	a2,0(s1)
    1dec:	00167793          	and	a5,a2,1
    1df0:	04078a63          	beqz	a5,1e44 <uvmunmap.constprop.0+0xe8>
    if(PTE_FLAGS(*pte) == PTE_V)
    1df4:	3ff67793          	and	a5,a2,1023
    1df8:	07478863          	beq	a5,s4,1e68 <uvmunmap.constprop.0+0x10c>
      pa = PTE2PA(*pte);
    1dfc:	00a65613          	srl	a2,a2,0xa
      kfree((void*)pa);
    1e00:	00c61513          	sll	a0,a2,0xc
    1e04:	fffff097          	auipc	ra,0xfffff
    1e08:	220080e7          	jalr	544(ra) # 1024 <kfree>
    *pte = 0;
    1e0c:	0004a023          	sw	zero,0(s1)
    if(a == last)
    1e10:	01690663          	beq	s2,s6,1e1c <uvmunmap.constprop.0+0xc0>
    a += PGSIZE;
    1e14:	015b0b33          	add	s6,s6,s5
    if((pte = walk(pagetable, a, 0)) == 0)
    1e18:	f8dff06f          	j	1da4 <uvmunmap.constprop.0+0x48>
    pa += PGSIZE;
  }
}
    1e1c:	01c12083          	lw	ra,28(sp)
    1e20:	01812403          	lw	s0,24(sp)
    1e24:	01412483          	lw	s1,20(sp)
    1e28:	01012903          	lw	s2,16(sp)
    1e2c:	00c12983          	lw	s3,12(sp)
    1e30:	00812a03          	lw	s4,8(sp)
    1e34:	00412a83          	lw	s5,4(sp)
    1e38:	00012b03          	lw	s6,0(sp)
    1e3c:	02010113          	add	sp,sp,32
    1e40:	00008067          	ret
      printf("va=%p pte=%p\n", a, *pte);
    1e44:	00009517          	auipc	a0,0x9
    1e48:	4b050513          	add	a0,a0,1200 # b2f4 <main+0x1c4>
    1e4c:	000b0593          	mv	a1,s6
    1e50:	fffff097          	auipc	ra,0xfffff
    1e54:	8e0080e7          	jalr	-1824(ra) # 730 <printf>
      panic("uvmunmap: not mapped");
    1e58:	00009517          	auipc	a0,0x9
    1e5c:	4ac50513          	add	a0,a0,1196 # b304 <main+0x1d4>
    1e60:	fffff097          	auipc	ra,0xfffff
    1e64:	874080e7          	jalr	-1932(ra) # 6d4 <panic>
      panic("uvmunmap: not a leaf");
    1e68:	00009517          	auipc	a0,0x9
    1e6c:	4b450513          	add	a0,a0,1204 # b31c <main+0x1ec>
    1e70:	fffff097          	auipc	ra,0xfffff
    1e74:	864080e7          	jalr	-1948(ra) # 6d4 <panic>

00001e78 <freewalk>:

// Recursively free page-table pages.
// All leaf mappings must already have been removed.
static void
freewalk(pagetable_t pagetable)
{
    1e78:	f7010113          	add	sp,sp,-144
    1e7c:	000017b7          	lui	a5,0x1
    1e80:	08812423          	sw	s0,136(sp)
    1e84:	08912223          	sw	s1,132(sp)
    1e88:	07912223          	sw	s9,100(sp)
    1e8c:	07a12023          	sw	s10,96(sp)
    1e90:	08112623          	sw	ra,140(sp)
    1e94:	09212023          	sw	s2,128(sp)
    1e98:	07312e23          	sw	s3,124(sp)
    1e9c:	07412c23          	sw	s4,120(sp)
    1ea0:	07512a23          	sw	s5,116(sp)
    1ea4:	07612823          	sw	s6,112(sp)
    1ea8:	07712623          	sw	s7,108(sp)
    1eac:	07812423          	sw	s8,104(sp)
    1eb0:	05b12e23          	sw	s11,92(sp)
    1eb4:	09010413          	add	s0,sp,144
    1eb8:	80078793          	add	a5,a5,-2048 # 800 <printf+0xd0>
    1ebc:	00050493          	mv	s1,a0
    1ec0:	00f50d33          	add	s10,a0,a5
  // there are 2^9 = 512 PTEs in a page table.
  for(int i = 0; i < 512; i++){
    pte_t pte = pagetable[i];
    if((pte & PTE_V) && (pte & (PTE_R|PTE_W|PTE_X)) == 0){
    1ec4:	00050c93          	mv	s9,a0
    pte_t pte = pagetable[i];
    1ec8:	0004a783          	lw	a5,0(s1)
    if((pte & PTE_V) && (pte & (PTE_R|PTE_W|PTE_X)) == 0){
    1ecc:	00100693          	li	a3,1
    1ed0:	00f7f713          	and	a4,a5,15
    1ed4:	04d70c63          	beq	a4,a3,1f2c <freewalk+0xb4>
      // this PTE points to a lower-level page table.
      uint32 child = PTE2PA(pte);
      freewalk((pagetable_t)child);
      pagetable[i] = 0;
    } else if(pte & PTE_V){
    1ed8:	0017f793          	and	a5,a5,1
    1edc:	32079663          	bnez	a5,2208 <freewalk+0x390>
  for(int i = 0; i < 512; i++){
    1ee0:	00448493          	add	s1,s1,4
    1ee4:	fe9d12e3          	bne	s10,s1,1ec8 <freewalk+0x50>
      panic("freewalk: leaf");
    }
  }
  kfree((void*)pagetable);
}
    1ee8:	08812403          	lw	s0,136(sp)
    1eec:	08c12083          	lw	ra,140(sp)
    1ef0:	08412483          	lw	s1,132(sp)
    1ef4:	08012903          	lw	s2,128(sp)
    1ef8:	07c12983          	lw	s3,124(sp)
    1efc:	07812a03          	lw	s4,120(sp)
    1f00:	07412a83          	lw	s5,116(sp)
    1f04:	07012b03          	lw	s6,112(sp)
    1f08:	06c12b83          	lw	s7,108(sp)
    1f0c:	06812c03          	lw	s8,104(sp)
    1f10:	06012d03          	lw	s10,96(sp)
    1f14:	05c12d83          	lw	s11,92(sp)
  kfree((void*)pagetable);
    1f18:	000c8513          	mv	a0,s9
}
    1f1c:	06412c83          	lw	s9,100(sp)
    1f20:	09010113          	add	sp,sp,144
  kfree((void*)pagetable);
    1f24:	fffff317          	auipc	t1,0xfffff
    1f28:	10030067          	jr	256(t1) # 1024 <kfree>
      uint32 child = PTE2PA(pte);
    1f2c:	00a7d793          	srl	a5,a5,0xa
    1f30:	00c79b13          	sll	s6,a5,0xc
  for(int i = 0; i < 512; i++){
    1f34:	000017b7          	lui	a5,0x1
    1f38:	80078793          	add	a5,a5,-2048 # 800 <printf+0xd0>
    1f3c:	00fb0db3          	add	s11,s6,a5
      uint32 child = PTE2PA(pte);
    1f40:	000b0b93          	mv	s7,s6
    pte_t pte = pagetable[i];
    1f44:	000ba783          	lw	a5,0(s7) # 2000000 <end+0x1fdbfec>
    if((pte & PTE_V) && (pte & (PTE_R|PTE_W|PTE_X)) == 0){
    1f48:	00100693          	li	a3,1
    1f4c:	00f7f713          	and	a4,a5,15
    1f50:	02d70463          	beq	a4,a3,1f78 <freewalk+0x100>
    } else if(pte & PTE_V){
    1f54:	0017f793          	and	a5,a5,1
    1f58:	2a079863          	bnez	a5,2208 <freewalk+0x390>
  for(int i = 0; i < 512; i++){
    1f5c:	004b8b93          	add	s7,s7,4
    1f60:	ff7d92e3          	bne	s11,s7,1f44 <freewalk+0xcc>
  kfree((void*)pagetable);
    1f64:	000b0513          	mv	a0,s6
    1f68:	fffff097          	auipc	ra,0xfffff
    1f6c:	0bc080e7          	jalr	188(ra) # 1024 <kfree>
      pagetable[i] = 0;
    1f70:	0004a023          	sw	zero,0(s1)
    1f74:	f6dff06f          	j	1ee0 <freewalk+0x68>
      uint32 child = PTE2PA(pte);
    1f78:	00a7d793          	srl	a5,a5,0xa
    1f7c:	00c79913          	sll	s2,a5,0xc
  for(int i = 0; i < 512; i++){
    1f80:	000017b7          	lui	a5,0x1
    1f84:	80078793          	add	a5,a5,-2048 # 800 <printf+0xd0>
    if((pte & PTE_V) && (pte & (PTE_R|PTE_W|PTE_X)) == 0){
    1f88:	fb642823          	sw	s6,-80(s0)
    1f8c:	00f90a33          	add	s4,s2,a5
    1f90:	fb242623          	sw	s2,-84(s0)
    1f94:	00090b13          	mv	s6,s2
    pte_t pte = pagetable[i];
    1f98:	000b2783          	lw	a5,0(s6) # 1000 <freerange+0xc8>
    if((pte & PTE_V) && (pte & (PTE_R|PTE_W|PTE_X)) == 0){
    1f9c:	00100693          	li	a3,1
    1fa0:	00f7f713          	and	a4,a5,15
    1fa4:	02d70863          	beq	a4,a3,1fd4 <freewalk+0x15c>
    } else if(pte & PTE_V){
    1fa8:	0017f793          	and	a5,a5,1
    1fac:	24079e63          	bnez	a5,2208 <freewalk+0x390>
  for(int i = 0; i < 512; i++){
    1fb0:	004b0b13          	add	s6,s6,4
    1fb4:	ff6a12e3          	bne	s4,s6,1f98 <freewalk+0x120>
  kfree((void*)pagetable);
    1fb8:	fac42903          	lw	s2,-84(s0)
    1fbc:	fb042b03          	lw	s6,-80(s0)
    1fc0:	00090513          	mv	a0,s2
    1fc4:	fffff097          	auipc	ra,0xfffff
    1fc8:	060080e7          	jalr	96(ra) # 1024 <kfree>
      pagetable[i] = 0;
    1fcc:	000ba023          	sw	zero,0(s7)
    1fd0:	f8dff06f          	j	1f5c <freewalk+0xe4>
      uint32 child = PTE2PA(pte);
    1fd4:	00a7d793          	srl	a5,a5,0xa
    1fd8:	00c79a93          	sll	s5,a5,0xc
  for(int i = 0; i < 512; i++){
    1fdc:	000017b7          	lui	a5,0x1
    1fe0:	80078793          	add	a5,a5,-2048 # 800 <printf+0xd0>
    1fe4:	00fa87b3          	add	a5,s5,a5
    1fe8:	faf42e23          	sw	a5,-68(s0)
    if((pte & PTE_V) && (pte & (PTE_R|PTE_W|PTE_X)) == 0){
    1fec:	fb642423          	sw	s6,-88(s0)
    1ff0:	000a8993          	mv	s3,s5
    pte_t pte = pagetable[i];
    1ff4:	0009a783          	lw	a5,0(s3)
    if((pte & PTE_V) && (pte & (PTE_R|PTE_W|PTE_X)) == 0){
    1ff8:	00100693          	li	a3,1
    1ffc:	00f7f713          	and	a4,a5,15
    2000:	02d70863          	beq	a4,a3,2030 <freewalk+0x1b8>
    } else if(pte & PTE_V){
    2004:	0017f793          	and	a5,a5,1
    2008:	20079063          	bnez	a5,2208 <freewalk+0x390>
  for(int i = 0; i < 512; i++){
    200c:	fbc42783          	lw	a5,-68(s0)
    2010:	00498993          	add	s3,s3,4
    2014:	ff3790e3          	bne	a5,s3,1ff4 <freewalk+0x17c>
  kfree((void*)pagetable);
    2018:	fa842b03          	lw	s6,-88(s0)
    201c:	000a8513          	mv	a0,s5
    2020:	fffff097          	auipc	ra,0xfffff
    2024:	004080e7          	jalr	4(ra) # 1024 <kfree>
      pagetable[i] = 0;
    2028:	000b2023          	sw	zero,0(s6)
    202c:	f85ff06f          	j	1fb0 <freewalk+0x138>
      uint32 child = PTE2PA(pte);
    2030:	00a7d793          	srl	a5,a5,0xa
    2034:	00001937          	lui	s2,0x1
    2038:	00c79c13          	sll	s8,a5,0xc
  for(int i = 0; i < 512; i++){
    203c:	80090913          	add	s2,s2,-2048 # 800 <printf+0xd0>
    2040:	012c07b3          	add	a5,s8,s2
    2044:	faf42c23          	sw	a5,-72(s0)
    if((pte & PTE_V) && (pte & (PTE_R|PTE_W|PTE_X)) == 0){
    2048:	00100b13          	li	s6,1
    204c:	000c0613          	mv	a2,s8
    pte_t pte = pagetable[i];
    2050:	00062783          	lw	a5,0(a2)
    if((pte & PTE_V) && (pte & (PTE_R|PTE_W|PTE_X)) == 0){
    2054:	00f7f693          	and	a3,a5,15
    2058:	03668663          	beq	a3,s6,2084 <freewalk+0x20c>
    } else if(pte & PTE_V){
    205c:	0017f793          	and	a5,a5,1
    2060:	1a079463          	bnez	a5,2208 <freewalk+0x390>
  for(int i = 0; i < 512; i++){
    2064:	fb842783          	lw	a5,-72(s0)
    2068:	00460613          	add	a2,a2,4
    206c:	fec792e3          	bne	a5,a2,2050 <freewalk+0x1d8>
  kfree((void*)pagetable);
    2070:	000c0513          	mv	a0,s8
    2074:	fffff097          	auipc	ra,0xfffff
    2078:	fb0080e7          	jalr	-80(ra) # 1024 <kfree>
      pagetable[i] = 0;
    207c:	0009a023          	sw	zero,0(s3)
    2080:	f8dff06f          	j	200c <freewalk+0x194>
      uint32 child = PTE2PA(pte);
    2084:	00a7d793          	srl	a5,a5,0xa
    2088:	00c79513          	sll	a0,a5,0xc
  for(int i = 0; i < 512; i++){
    208c:	012507b3          	add	a5,a0,s2
    2090:	faf42a23          	sw	a5,-76(s0)
      uint32 child = PTE2PA(pte);
    2094:	00050713          	mv	a4,a0
    2098:	fb542223          	sw	s5,-92(s0)
    209c:	faa42023          	sw	a0,-96(s0)
    20a0:	f8942e23          	sw	s1,-100(s0)
    20a4:	f9442c23          	sw	s4,-104(s0)
    20a8:	f8c42a23          	sw	a2,-108(s0)
    20ac:	0180006f          	j	20c4 <freewalk+0x24c>
    } else if(pte & PTE_V){
    20b0:	0017f793          	and	a5,a5,1
    20b4:	14079a63          	bnez	a5,2208 <freewalk+0x390>
  for(int i = 0; i < 512; i++){
    20b8:	fb442783          	lw	a5,-76(s0)
    20bc:	00470713          	add	a4,a4,4 # fffff004 <end+0xfffdaff0>
    20c0:	14e78c63          	beq	a5,a4,2218 <freewalk+0x3a0>
    pte_t pte = pagetable[i];
    20c4:	00072783          	lw	a5,0(a4)
    if((pte & PTE_V) && (pte & (PTE_R|PTE_W|PTE_X)) == 0){
    20c8:	00f7f693          	and	a3,a5,15
    20cc:	ff6692e3          	bne	a3,s6,20b0 <freewalk+0x238>
      uint32 child = PTE2PA(pte);
    20d0:	00a7d793          	srl	a5,a5,0xa
    20d4:	00c79513          	sll	a0,a5,0xc
  for(int i = 0; i < 512; i++){
    20d8:	01250ab3          	add	s5,a0,s2
      uint32 child = PTE2PA(pte);
    20dc:	f9342623          	sw	s3,-116(s0)
    20e0:	f8a42823          	sw	a0,-112(s0)
    20e4:	f8e42423          	sw	a4,-120(s0)
    20e8:	000a8493          	mv	s1,s5
    20ec:	00050993          	mv	s3,a0
    20f0:	0140006f          	j	2104 <freewalk+0x28c>
    } else if(pte & PTE_V){
    20f4:	0016f693          	and	a3,a3,1
    20f8:	10069863          	bnez	a3,2208 <freewalk+0x390>
  for(int i = 0; i < 512; i++){
    20fc:	00498993          	add	s3,s3,4
    2100:	0f348263          	beq	s1,s3,21e4 <freewalk+0x36c>
    pte_t pte = pagetable[i];
    2104:	0009a683          	lw	a3,0(s3)
    if((pte & PTE_V) && (pte & (PTE_R|PTE_W|PTE_X)) == 0){
    2108:	00f6f613          	and	a2,a3,15
    210c:	ff6614e3          	bne	a2,s6,20f4 <freewalk+0x27c>
      uint32 child = PTE2PA(pte);
    2110:	00a6d693          	srl	a3,a3,0xa
    2114:	00c69513          	sll	a0,a3,0xc
  for(int i = 0; i < 512; i++){
    2118:	01250ab3          	add	s5,a0,s2
      uint32 child = PTE2PA(pte);
    211c:	f8942023          	sw	s1,-128(s0)
    2120:	00098a13          	mv	s4,s3
    2124:	f8a42223          	sw	a0,-124(s0)
    2128:	000a8493          	mv	s1,s5
    212c:	00050993          	mv	s3,a0
    2130:	0140006f          	j	2144 <freewalk+0x2cc>
    } else if(pte & PTE_V){
    2134:	0017f793          	and	a5,a5,1
    2138:	0c079863          	bnez	a5,2208 <freewalk+0x390>
  for(int i = 0; i < 512; i++){
    213c:	00498993          	add	s3,s3,4
    2140:	09348263          	beq	s1,s3,21c4 <freewalk+0x34c>
    pte_t pte = pagetable[i];
    2144:	0009a783          	lw	a5,0(s3)
    if((pte & PTE_V) && (pte & (PTE_R|PTE_W|PTE_X)) == 0){
    2148:	00f7f713          	and	a4,a5,15
    214c:	ff6714e3          	bne	a4,s6,2134 <freewalk+0x2bc>
      uint32 child = PTE2PA(pte);
    2150:	00a7d793          	srl	a5,a5,0xa
    2154:	00c79a93          	sll	s5,a5,0xc
      freewalk((pagetable_t)child);
    2158:	000a8793          	mv	a5,s5
  for(int i = 0; i < 512; i++){
    215c:	012a86b3          	add	a3,s5,s2
    2160:	0140006f          	j	2174 <freewalk+0x2fc>
    } else if(pte & PTE_V){
    2164:	00177713          	and	a4,a4,1
    2168:	0a071063          	bnez	a4,2208 <freewalk+0x390>
  for(int i = 0; i < 512; i++){
    216c:	004a8a93          	add	s5,s5,4 # 1004 <freerange+0xcc>
    2170:	03568e63          	beq	a3,s5,21ac <freewalk+0x334>
    pte_t pte = pagetable[i];
    2174:	000aa703          	lw	a4,0(s5)
    if((pte & PTE_V) && (pte & (PTE_R|PTE_W|PTE_X)) == 0){
    2178:	00f77613          	and	a2,a4,15
    217c:	ff6614e3          	bne	a2,s6,2164 <freewalk+0x2ec>
      uint32 child = PTE2PA(pte);
    2180:	00a75713          	srl	a4,a4,0xa
      freewalk((pagetable_t)child);
    2184:	00c71513          	sll	a0,a4,0xc
    2188:	f6d42c23          	sw	a3,-136(s0)
    218c:	f6f42e23          	sw	a5,-132(s0)
    2190:	00000097          	auipc	ra,0x0
    2194:	ce8080e7          	jalr	-792(ra) # 1e78 <freewalk>
      pagetable[i] = 0;
    2198:	f7842683          	lw	a3,-136(s0)
    219c:	000aa023          	sw	zero,0(s5)
  for(int i = 0; i < 512; i++){
    21a0:	004a8a93          	add	s5,s5,4
    21a4:	f7c42783          	lw	a5,-132(s0)
    21a8:	fd5696e3          	bne	a3,s5,2174 <freewalk+0x2fc>
  kfree((void*)pagetable);
    21ac:	00078513          	mv	a0,a5
    21b0:	fffff097          	auipc	ra,0xfffff
    21b4:	e74080e7          	jalr	-396(ra) # 1024 <kfree>
  for(int i = 0; i < 512; i++){
    21b8:	00498993          	add	s3,s3,4
      pagetable[i] = 0;
    21bc:	fe09ae23          	sw	zero,-4(s3)
  for(int i = 0; i < 512; i++){
    21c0:	f93492e3          	bne	s1,s3,2144 <freewalk+0x2cc>
  kfree((void*)pagetable);
    21c4:	f8442503          	lw	a0,-124(s0)
    21c8:	f8042483          	lw	s1,-128(s0)
    21cc:	000a0993          	mv	s3,s4
    21d0:	fffff097          	auipc	ra,0xfffff
    21d4:	e54080e7          	jalr	-428(ra) # 1024 <kfree>
  for(int i = 0; i < 512; i++){
    21d8:	00498993          	add	s3,s3,4
      pagetable[i] = 0;
    21dc:	000a2023          	sw	zero,0(s4)
  for(int i = 0; i < 512; i++){
    21e0:	f33492e3          	bne	s1,s3,2104 <freewalk+0x28c>
  kfree((void*)pagetable);
    21e4:	f8842703          	lw	a4,-120(s0)
    21e8:	f9042503          	lw	a0,-112(s0)
    21ec:	f8c42983          	lw	s3,-116(s0)
    21f0:	f8e42823          	sw	a4,-112(s0)
    21f4:	fffff097          	auipc	ra,0xfffff
    21f8:	e30080e7          	jalr	-464(ra) # 1024 <kfree>
      pagetable[i] = 0;
    21fc:	f9042703          	lw	a4,-112(s0)
    2200:	00072023          	sw	zero,0(a4)
    2204:	eb5ff06f          	j	20b8 <freewalk+0x240>
      panic("freewalk: leaf");
    2208:	00009517          	auipc	a0,0x9
    220c:	12c50513          	add	a0,a0,300 # b334 <main+0x204>
    2210:	ffffe097          	auipc	ra,0xffffe
    2214:	4c4080e7          	jalr	1220(ra) # 6d4 <panic>
  kfree((void*)pagetable);
    2218:	f9442603          	lw	a2,-108(s0)
    221c:	fa042503          	lw	a0,-96(s0)
    2220:	fa442a83          	lw	s5,-92(s0)
    2224:	fac42a23          	sw	a2,-76(s0)
    2228:	f9c42483          	lw	s1,-100(s0)
    222c:	f9842a03          	lw	s4,-104(s0)
    2230:	fffff097          	auipc	ra,0xfffff
    2234:	df4080e7          	jalr	-524(ra) # 1024 <kfree>
      pagetable[i] = 0;
    2238:	fb442603          	lw	a2,-76(s0)
    223c:	00062023          	sw	zero,0(a2)
    2240:	e25ff06f          	j	2064 <freewalk+0x1ec>

00002244 <kvminithart>:
{
    2244:	ff010113          	add	sp,sp,-16
    2248:	00812623          	sw	s0,12(sp)
    224c:	01010413          	add	s0,sp,16
  w_satp(MAKE_SATP(kernel_pagetable));
    2250:	00022797          	auipc	a5,0x22
    2254:	db87a783          	lw	a5,-584(a5) # 24008 <kernel_pagetable>
    2258:	80000737          	lui	a4,0x80000
    225c:	00c7d793          	srl	a5,a5,0xc
    2260:	00e7e7b3          	or	a5,a5,a4
  asm volatile("csrw satp, %0" : : "r" (x));
    2264:	18079073          	csrw	satp,a5
// flush the TLB.
static inline void
sfence_vma()
{
  // the zero, zero means flush all TLB entries.
  asm volatile("sfence.vma zero, zero");
    2268:	12000073          	sfence.vma
}
    226c:	00c12403          	lw	s0,12(sp)
    2270:	01010113          	add	sp,sp,16
    2274:	00008067          	ret

00002278 <walkaddr>:
{
    2278:	ff010113          	add	sp,sp,-16
    227c:	00812623          	sw	s0,12(sp)
    2280:	01010413          	add	s0,sp,16
  if(va >= MAXVA)
    2284:	fff00793          	li	a5,-1
    2288:	06f58663          	beq	a1,a5,22f4 <walkaddr+0x7c>
    pte_t *pte = &pagetable[PX(level, va)];
    228c:	0165d793          	srl	a5,a1,0x16
    if(*pte & PTE_V) {
    2290:	00279793          	sll	a5,a5,0x2
    2294:	00f50533          	add	a0,a0,a5
    2298:	00052783          	lw	a5,0(a0)
    229c:	0017f513          	and	a0,a5,1
    22a0:	02050a63          	beqz	a0,22d4 <walkaddr+0x5c>
  return &pagetable[PX(0, va)];
    22a4:	00c5d593          	srl	a1,a1,0xc
      pagetable = (pagetable_t)PTE2PA(*pte);
    22a8:	00a7d793          	srl	a5,a5,0xa
  return &pagetable[PX(0, va)];
    22ac:	3ff5f593          	and	a1,a1,1023
      pagetable = (pagetable_t)PTE2PA(*pte);
    22b0:	00c79793          	sll	a5,a5,0xc
  return &pagetable[PX(0, va)];
    22b4:	00259593          	sll	a1,a1,0x2
    22b8:	00b787b3          	add	a5,a5,a1
  if(pte == 0)
    22bc:	02078c63          	beqz	a5,22f4 <walkaddr+0x7c>
  if((*pte & PTE_V) == 0)
    22c0:	0007a783          	lw	a5,0(a5)
  if((*pte & PTE_U) == 0)
    22c4:	01100713          	li	a4,17
    return 0;
    22c8:	00000513          	li	a0,0
  if((*pte & PTE_U) == 0)
    22cc:	0117f693          	and	a3,a5,17
    22d0:	00e68863          	beq	a3,a4,22e0 <walkaddr+0x68>
}
    22d4:	00c12403          	lw	s0,12(sp)
    22d8:	01010113          	add	sp,sp,16
    22dc:	00008067          	ret
    22e0:	00c12403          	lw	s0,12(sp)
  pa = PTE2PA(*pte);
    22e4:	00a7d793          	srl	a5,a5,0xa
    22e8:	00c79513          	sll	a0,a5,0xc
}
    22ec:	01010113          	add	sp,sp,16
    22f0:	00008067          	ret
    22f4:	00c12403          	lw	s0,12(sp)
    return 0;
    22f8:	00000513          	li	a0,0
}
    22fc:	01010113          	add	sp,sp,16
    2300:	00008067          	ret

00002304 <kvmpa>:
{
    2304:	ff010113          	add	sp,sp,-16
    2308:	00812423          	sw	s0,8(sp)
    230c:	00112623          	sw	ra,12(sp)
    2310:	01010413          	add	s0,sp,16
  if(va >= MAXVA)
    2314:	fff00613          	li	a2,-1
  pte = walk(kernel_pagetable, va, 0);
    2318:	00022717          	auipc	a4,0x22
    231c:	cf072703          	lw	a4,-784(a4) # 24008 <kernel_pagetable>
  if(va >= MAXVA)
    2320:	06c50c63          	beq	a0,a2,2398 <kvmpa+0x94>
    2324:	01451793          	sll	a5,a0,0x14
    2328:	0147d693          	srl	a3,a5,0x14
    pte_t *pte = &pagetable[PX(level, va)];
    232c:	01655793          	srl	a5,a0,0x16
    if(*pte & PTE_V) {
    2330:	00279793          	sll	a5,a5,0x2
    2334:	00f707b3          	add	a5,a4,a5
    2338:	0007a703          	lw	a4,0(a5)
    233c:	00177793          	and	a5,a4,1
    2340:	00079a63          	bnez	a5,2354 <kvmpa+0x50>
    panic("kvmpa");
    2344:	00009517          	auipc	a0,0x9
    2348:	00850513          	add	a0,a0,8 # b34c <main+0x21c>
    234c:	ffffe097          	auipc	ra,0xffffe
    2350:	388080e7          	jalr	904(ra) # 6d4 <panic>
  return &pagetable[PX(0, va)];
    2354:	00c55793          	srl	a5,a0,0xc
      pagetable = (pagetable_t)PTE2PA(*pte);
    2358:	00a75713          	srl	a4,a4,0xa
  return &pagetable[PX(0, va)];
    235c:	3ff7f793          	and	a5,a5,1023
      pagetable = (pagetable_t)PTE2PA(*pte);
    2360:	00c71713          	sll	a4,a4,0xc
  return &pagetable[PX(0, va)];
    2364:	00279793          	sll	a5,a5,0x2
    2368:	00f70733          	add	a4,a4,a5
  if(pte == 0)
    236c:	fc070ce3          	beqz	a4,2344 <kvmpa+0x40>
  if((*pte & PTE_V) == 0)
    2370:	00072783          	lw	a5,0(a4)
    2374:	0017f713          	and	a4,a5,1
    2378:	fc0706e3          	beqz	a4,2344 <kvmpa+0x40>
}
    237c:	00c12083          	lw	ra,12(sp)
    2380:	00812403          	lw	s0,8(sp)
  pa = PTE2PA(*pte);
    2384:	00a7d793          	srl	a5,a5,0xa
    2388:	00c79793          	sll	a5,a5,0xc
}
    238c:	00d78533          	add	a0,a5,a3
    2390:	01010113          	add	sp,sp,16
    2394:	00008067          	ret
    panic("walk");
    2398:	00009517          	auipc	a0,0x9
    239c:	fac50513          	add	a0,a0,-84 # b344 <main+0x214>
    23a0:	ffffe097          	auipc	ra,0xffffe
    23a4:	334080e7          	jalr	820(ra) # 6d4 <panic>

000023a8 <mappages>:
{
    23a8:	fd010113          	add	sp,sp,-48
  a = PGROUNDDOWN(va);
    23ac:	fffff837          	lui	a6,0xfffff
  last = PGROUNDDOWN(va + size - 1);
    23b0:	fff60793          	add	a5,a2,-1
{
    23b4:	02812423          	sw	s0,40(sp)
    23b8:	03212023          	sw	s2,32(sp)
    23bc:	01412c23          	sw	s4,24(sp)
    23c0:	01512a23          	sw	s5,20(sp)
    23c4:	01612823          	sw	s6,16(sp)
    23c8:	01712623          	sw	s7,12(sp)
    23cc:	02112623          	sw	ra,44(sp)
    23d0:	02912223          	sw	s1,36(sp)
    23d4:	01312e23          	sw	s3,28(sp)
    23d8:	01812423          	sw	s8,8(sp)
    23dc:	03010413          	add	s0,sp,48
  last = PGROUNDDOWN(va + size - 1);
    23e0:	00b787b3          	add	a5,a5,a1
  a = PGROUNDDOWN(va);
    23e4:	0105f933          	and	s2,a1,a6
{
    23e8:	00050b13          	mv	s6,a0
    23ec:	00070b93          	mv	s7,a4
  last = PGROUNDDOWN(va + size - 1);
    23f0:	0107fa33          	and	s4,a5,a6
    23f4:	41268ab3          	sub	s5,a3,s2
    23f8:	04c0006f          	j	2444 <mappages+0x9c>
  return &pagetable[PX(0, va)];
    23fc:	00c95793          	srl	a5,s2,0xc
      pagetable = (pagetable_t)PTE2PA(*pte);
    2400:	00a4d493          	srl	s1,s1,0xa
  return &pagetable[PX(0, va)];
    2404:	3ff7f793          	and	a5,a5,1023
      pagetable = (pagetable_t)PTE2PA(*pte);
    2408:	00c49493          	sll	s1,s1,0xc
  return &pagetable[PX(0, va)];
    240c:	00279793          	sll	a5,a5,0x2
    2410:	00f484b3          	add	s1,s1,a5
    if((pte = walk(pagetable, a, 1)) == 0)
    2414:	08048863          	beqz	s1,24a4 <mappages+0xfc>
    if(*pte & PTE_V)
    2418:	0004a783          	lw	a5,0(s1)
    241c:	0017f793          	and	a5,a5,1
    2420:	0c079063          	bnez	a5,24e0 <mappages+0x138>
    *pte = PA2PTE(pa) | perm | PTE_V;
    2424:	00c9d793          	srl	a5,s3,0xc
    2428:	00a79793          	sll	a5,a5,0xa
    242c:	0177e7b3          	or	a5,a5,s7
    2430:	0017e793          	or	a5,a5,1
    2434:	00f4a023          	sw	a5,0(s1)
    if(a == last)
    2438:	0b490063          	beq	s2,s4,24d8 <mappages+0x130>
    a += PGSIZE;
    243c:	000017b7          	lui	a5,0x1
    2440:	00f90933          	add	s2,s2,a5
    pte_t *pte = &pagetable[PX(level, va)];
    2444:	01695c13          	srl	s8,s2,0x16
    2448:	002c1c13          	sll	s8,s8,0x2
    244c:	018b0c33          	add	s8,s6,s8
    if(*pte & PTE_V) {
    2450:	000c2483          	lw	s1,0(s8)
    2454:	015909b3          	add	s3,s2,s5
    2458:	0014f793          	and	a5,s1,1
    245c:	fa0790e3          	bnez	a5,23fc <mappages+0x54>
      if(!alloc || (pagetable = (pde_t*)kalloc()) == 0)
    2460:	fffff097          	auipc	ra,0xfffff
    2464:	c4c080e7          	jalr	-948(ra) # 10ac <kalloc>
    2468:	00050493          	mv	s1,a0
    246c:	02050c63          	beqz	a0,24a4 <mappages+0xfc>
      memset(pagetable, 0, PGSIZE);
    2470:	00001637          	lui	a2,0x1
    2474:	00000593          	li	a1,0
    2478:	fffff097          	auipc	ra,0xfffff
    247c:	20c080e7          	jalr	524(ra) # 1684 <memset>
      *pte = PA2PTE(pagetable) | PTE_V;
    2480:	00c4d713          	srl	a4,s1,0xc
  return &pagetable[PX(0, va)];
    2484:	00c95793          	srl	a5,s2,0xc
      *pte = PA2PTE(pagetable) | PTE_V;
    2488:	00a71713          	sll	a4,a4,0xa
  return &pagetable[PX(0, va)];
    248c:	3ff7f793          	and	a5,a5,1023
      *pte = PA2PTE(pagetable) | PTE_V;
    2490:	00176713          	or	a4,a4,1
  return &pagetable[PX(0, va)];
    2494:	00279793          	sll	a5,a5,0x2
      *pte = PA2PTE(pagetable) | PTE_V;
    2498:	00ec2023          	sw	a4,0(s8)
  return &pagetable[PX(0, va)];
    249c:	00f484b3          	add	s1,s1,a5
    24a0:	f79ff06f          	j	2418 <mappages+0x70>
      return -1;
    24a4:	fff00513          	li	a0,-1
}
    24a8:	02c12083          	lw	ra,44(sp)
    24ac:	02812403          	lw	s0,40(sp)
    24b0:	02412483          	lw	s1,36(sp)
    24b4:	02012903          	lw	s2,32(sp)
    24b8:	01c12983          	lw	s3,28(sp)
    24bc:	01812a03          	lw	s4,24(sp)
    24c0:	01412a83          	lw	s5,20(sp)
    24c4:	01012b03          	lw	s6,16(sp)
    24c8:	00c12b83          	lw	s7,12(sp)
    24cc:	00812c03          	lw	s8,8(sp)
    24d0:	03010113          	add	sp,sp,48
    24d4:	00008067          	ret
  return 0;
    24d8:	00000513          	li	a0,0
    24dc:	fcdff06f          	j	24a8 <mappages+0x100>
      panic("remap");
    24e0:	00009517          	auipc	a0,0x9
    24e4:	dfc50513          	add	a0,a0,-516 # b2dc <main+0x1ac>
    24e8:	ffffe097          	auipc	ra,0xffffe
    24ec:	1ec080e7          	jalr	492(ra) # 6d4 <panic>

000024f0 <kvmmap>:
{
    24f0:	ff010113          	add	sp,sp,-16
    24f4:	00812423          	sw	s0,8(sp)
    24f8:	00112623          	sw	ra,12(sp)
    24fc:	01010413          	add	s0,sp,16
    2500:	00068713          	mv	a4,a3
  if(mappages(kernel_pagetable, va, sz, pa, perm) != 0)
    2504:	00058693          	mv	a3,a1
    2508:	00050593          	mv	a1,a0
    250c:	00022517          	auipc	a0,0x22
    2510:	afc52503          	lw	a0,-1284(a0) # 24008 <kernel_pagetable>
    2514:	00000097          	auipc	ra,0x0
    2518:	e94080e7          	jalr	-364(ra) # 23a8 <mappages>
    251c:	00051a63          	bnez	a0,2530 <kvmmap+0x40>
}
    2520:	00c12083          	lw	ra,12(sp)
    2524:	00812403          	lw	s0,8(sp)
    2528:	01010113          	add	sp,sp,16
    252c:	00008067          	ret
    panic("kvmmap");
    2530:	00009517          	auipc	a0,0x9
    2534:	e2450513          	add	a0,a0,-476 # b354 <main+0x224>
    2538:	ffffe097          	auipc	ra,0xffffe
    253c:	19c080e7          	jalr	412(ra) # 6d4 <panic>

00002540 <kvminit>:
{
    2540:	ff010113          	add	sp,sp,-16
    2544:	00812423          	sw	s0,8(sp)
    2548:	00912223          	sw	s1,4(sp)
    254c:	00112623          	sw	ra,12(sp)
    2550:	01212023          	sw	s2,0(sp)
    2554:	01010413          	add	s0,sp,16
  kernel_pagetable = (pagetable_t) kalloc();
    2558:	fffff097          	auipc	ra,0xfffff
    255c:	b54080e7          	jalr	-1196(ra) # 10ac <kalloc>
    2560:	00022497          	auipc	s1,0x22
    2564:	aa848493          	add	s1,s1,-1368 # 24008 <kernel_pagetable>
    2568:	00a4a023          	sw	a0,0(s1)
  if (kernel_pagetable == 0) { 
    256c:	0e050e63          	beqz	a0,2668 <kvminit+0x128>
  memset(kernel_pagetable, 0, PGSIZE);
    2570:	00001637          	lui	a2,0x1
    2574:	00000593          	li	a1,0
    2578:	fffff097          	auipc	ra,0xfffff
    257c:	10c080e7          	jalr	268(ra) # 1684 <memset>
  if(mappages(kernel_pagetable, va, sz, pa, perm) != 0)
    2580:	0004a503          	lw	a0,0(s1)
    2584:	00600713          	li	a4,6
    2588:	ff0006b7          	lui	a3,0xff000
    258c:	00001637          	lui	a2,0x1
    2590:	ff0005b7          	lui	a1,0xff000
    2594:	00000097          	auipc	ra,0x0
    2598:	e14080e7          	jalr	-492(ra) # 23a8 <mappages>
    259c:	0e051263          	bnez	a0,2680 <kvminit+0x140>
    25a0:	0004a503          	lw	a0,0(s1)
    25a4:	00600713          	li	a4,6
    25a8:	f80006b7          	lui	a3,0xf8000
    25ac:	00001637          	lui	a2,0x1
    25b0:	f80005b7          	lui	a1,0xf8000
    25b4:	00000097          	auipc	ra,0x0
    25b8:	df4080e7          	jalr	-524(ra) # 23a8 <mappages>
    25bc:	0c051263          	bnez	a0,2680 <kvminit+0x140>
    25c0:	0004a503          	lw	a0,0(s1)
    25c4:	00600713          	li	a4,6
    25c8:	f00006b7          	lui	a3,0xf0000
    25cc:	00010637          	lui	a2,0x10
    25d0:	f00005b7          	lui	a1,0xf0000
    25d4:	00000097          	auipc	ra,0x0
    25d8:	dd4080e7          	jalr	-556(ra) # 23a8 <mappages>
    25dc:	0a051263          	bnez	a0,2680 <kvminit+0x140>
    25e0:	0004a503          	lw	a0,0(s1)
  kvmmap(KERNBASE, KERNBASE, (uint32)etext-KERNBASE, PTE_R | PTE_X);
    25e4:	0000a917          	auipc	s2,0xa
    25e8:	a1c90913          	add	s2,s2,-1508 # c000 <initcode>
  if(mappages(kernel_pagetable, va, sz, pa, perm) != 0)
    25ec:	00a00713          	li	a4,10
    25f0:	00000693          	li	a3,0
    25f4:	00090613          	mv	a2,s2
    25f8:	00000593          	li	a1,0
    25fc:	00000097          	auipc	ra,0x0
    2600:	dac080e7          	jalr	-596(ra) # 23a8 <mappages>
    2604:	06051e63          	bnez	a0,2680 <kvminit+0x140>
    2608:	0004a503          	lw	a0,0(s1)
    260c:	02000637          	lui	a2,0x2000
    2610:	00600713          	li	a4,6
    2614:	00090693          	mv	a3,s2
    2618:	41260633          	sub	a2,a2,s2
    261c:	00090593          	mv	a1,s2
    2620:	00000097          	auipc	ra,0x0
    2624:	d88080e7          	jalr	-632(ra) # 23a8 <mappages>
    2628:	04051c63          	bnez	a0,2680 <kvminit+0x140>
    262c:	0004a503          	lw	a0,0(s1)
    2630:	00a00713          	li	a4,10
    2634:	00009697          	auipc	a3,0x9
    2638:	9cc68693          	add	a3,a3,-1588 # b000 <trampoline>
    263c:	00001637          	lui	a2,0x1
    2640:	fffff5b7          	lui	a1,0xfffff
    2644:	00000097          	auipc	ra,0x0
    2648:	d64080e7          	jalr	-668(ra) # 23a8 <mappages>
    264c:	02051a63          	bnez	a0,2680 <kvminit+0x140>
}
    2650:	00c12083          	lw	ra,12(sp)
    2654:	00812403          	lw	s0,8(sp)
    2658:	00412483          	lw	s1,4(sp)
    265c:	00012903          	lw	s2,0(sp)
    2660:	01010113          	add	sp,sp,16
    2664:	00008067          	ret
    printf("kalloc failed\n");
    2668:	00009517          	auipc	a0,0x9
    266c:	cf450513          	add	a0,a0,-780 # b35c <main+0x22c>
    2670:	ffffe097          	auipc	ra,0xffffe
    2674:	0c0080e7          	jalr	192(ra) # 730 <printf>
  memset(kernel_pagetable, 0, PGSIZE);
    2678:	0004a503          	lw	a0,0(s1)
    267c:	ef5ff06f          	j	2570 <kvminit+0x30>
    panic("kvmmap");
    2680:	00009517          	auipc	a0,0x9
    2684:	cd450513          	add	a0,a0,-812 # b354 <main+0x224>
    2688:	ffffe097          	auipc	ra,0xffffe
    268c:	04c080e7          	jalr	76(ra) # 6d4 <panic>

00002690 <uvmunmap>:
{
    2690:	fe010113          	add	sp,sp,-32
    2694:	00812c23          	sw	s0,24(sp)
    2698:	00912a23          	sw	s1,20(sp)
    269c:	01312623          	sw	s3,12(sp)
    26a0:	01412423          	sw	s4,8(sp)
    26a4:	01512223          	sw	s5,4(sp)
    26a8:	01612023          	sw	s6,0(sp)
    26ac:	00112e23          	sw	ra,28(sp)
    26b0:	01212823          	sw	s2,16(sp)
    26b4:	02010413          	add	s0,sp,32
  last = PGROUNDDOWN(va + size - 1);
    26b8:	fff60793          	add	a5,a2,-1 # fff <freerange+0xc7>
  a = PGROUNDDOWN(va);
    26bc:	fffff737          	lui	a4,0xfffff
  last = PGROUNDDOWN(va + size - 1);
    26c0:	00b787b3          	add	a5,a5,a1
{
    26c4:	00050b13          	mv	s6,a0
  a = PGROUNDDOWN(va);
    26c8:	00e5f4b3          	and	s1,a1,a4
  last = PGROUNDDOWN(va + size - 1);
    26cc:	00e7fab3          	and	s5,a5,a4
    if(PTE_FLAGS(*pte) == PTE_V)
    26d0:	00100993          	li	s3,1
    a += PGSIZE;
    26d4:	00001a37          	lui	s4,0x1
    26d8:	02069c63          	bnez	a3,2710 <uvmunmap+0x80>
    if(PTE_FLAGS(*pte) == PTE_V)
    26dc:	00100693          	li	a3,1
    a += PGSIZE;
    26e0:	000015b7          	lui	a1,0x1
    pte_t *pte = &pagetable[PX(level, va)];
    26e4:	0164d793          	srl	a5,s1,0x16
    if(*pte & PTE_V) {
    26e8:	00279793          	sll	a5,a5,0x2
    26ec:	00fb07b3          	add	a5,s6,a5
    26f0:	0007a783          	lw	a5,0(a5) # 1000 <freerange+0xc8>
    26f4:	0017f713          	and	a4,a5,1
    26f8:	0a071063          	bnez	a4,2798 <uvmunmap+0x108>
      panic("uvmunmap: walk");
    26fc:	00009517          	auipc	a0,0x9
    2700:	be850513          	add	a0,a0,-1048 # b2e4 <main+0x1b4>
    2704:	ffffe097          	auipc	ra,0xffffe
    2708:	fd0080e7          	jalr	-48(ra) # 6d4 <panic>
    a += PGSIZE;
    270c:	014484b3          	add	s1,s1,s4
    pte_t *pte = &pagetable[PX(level, va)];
    2710:	0164d793          	srl	a5,s1,0x16
    if(*pte & PTE_V) {
    2714:	00279793          	sll	a5,a5,0x2
    2718:	00fb07b3          	add	a5,s6,a5
    271c:	0007a903          	lw	s2,0(a5)
    2720:	00197793          	and	a5,s2,1
    2724:	fc078ce3          	beqz	a5,26fc <uvmunmap+0x6c>
  return &pagetable[PX(0, va)];
    2728:	00c4d793          	srl	a5,s1,0xc
      pagetable = (pagetable_t)PTE2PA(*pte);
    272c:	00a95913          	srl	s2,s2,0xa
  return &pagetable[PX(0, va)];
    2730:	3ff7f793          	and	a5,a5,1023
      pagetable = (pagetable_t)PTE2PA(*pte);
    2734:	00c91913          	sll	s2,s2,0xc
  return &pagetable[PX(0, va)];
    2738:	00279793          	sll	a5,a5,0x2
    273c:	00f90933          	add	s2,s2,a5
    if((pte = walk(pagetable, a, 0)) == 0)
    2740:	fa090ee3          	beqz	s2,26fc <uvmunmap+0x6c>
    if((*pte & PTE_V) == 0){
    2744:	00092603          	lw	a2,0(s2)
    2748:	00167793          	and	a5,a2,1
    274c:	08078663          	beqz	a5,27d8 <uvmunmap+0x148>
    if(PTE_FLAGS(*pte) == PTE_V)
    2750:	3ff67793          	and	a5,a2,1023
    2754:	0b378463          	beq	a5,s3,27fc <uvmunmap+0x16c>
      pa = PTE2PA(*pte);
    2758:	00a65613          	srl	a2,a2,0xa
      kfree((void*)pa);
    275c:	00c61513          	sll	a0,a2,0xc
    2760:	fffff097          	auipc	ra,0xfffff
    2764:	8c4080e7          	jalr	-1852(ra) # 1024 <kfree>
    *pte = 0;
    2768:	00092023          	sw	zero,0(s2)
    if(a == last)
    276c:	fb5490e3          	bne	s1,s5,270c <uvmunmap+0x7c>
}
    2770:	01c12083          	lw	ra,28(sp)
    2774:	01812403          	lw	s0,24(sp)
    2778:	01412483          	lw	s1,20(sp)
    277c:	01012903          	lw	s2,16(sp)
    2780:	00c12983          	lw	s3,12(sp)
    2784:	00812a03          	lw	s4,8(sp)
    2788:	00412a83          	lw	s5,4(sp)
    278c:	00012b03          	lw	s6,0(sp)
    2790:	02010113          	add	sp,sp,32
    2794:	00008067          	ret
  return &pagetable[PX(0, va)];
    2798:	00c4d713          	srl	a4,s1,0xc
      pagetable = (pagetable_t)PTE2PA(*pte);
    279c:	00a7d793          	srl	a5,a5,0xa
  return &pagetable[PX(0, va)];
    27a0:	3ff77713          	and	a4,a4,1023
      pagetable = (pagetable_t)PTE2PA(*pte);
    27a4:	00c79793          	sll	a5,a5,0xc
  return &pagetable[PX(0, va)];
    27a8:	00271713          	sll	a4,a4,0x2
    27ac:	00e787b3          	add	a5,a5,a4
    if((pte = walk(pagetable, a, 0)) == 0)
    27b0:	f40786e3          	beqz	a5,26fc <uvmunmap+0x6c>
    if((*pte & PTE_V) == 0){
    27b4:	0007a603          	lw	a2,0(a5)
    27b8:	00167713          	and	a4,a2,1
    27bc:	00070e63          	beqz	a4,27d8 <uvmunmap+0x148>
    if(PTE_FLAGS(*pte) == PTE_V)
    27c0:	3ff67613          	and	a2,a2,1023
    27c4:	02d60c63          	beq	a2,a3,27fc <uvmunmap+0x16c>
    *pte = 0;
    27c8:	0007a023          	sw	zero,0(a5)
    if(a == last)
    27cc:	fa9a82e3          	beq	s5,s1,2770 <uvmunmap+0xe0>
    a += PGSIZE;
    27d0:	00b484b3          	add	s1,s1,a1
  for(;;){
    27d4:	f11ff06f          	j	26e4 <uvmunmap+0x54>
      printf("va=%p pte=%p\n", a, *pte);
    27d8:	00009517          	auipc	a0,0x9
    27dc:	b1c50513          	add	a0,a0,-1252 # b2f4 <main+0x1c4>
    27e0:	00048593          	mv	a1,s1
    27e4:	ffffe097          	auipc	ra,0xffffe
    27e8:	f4c080e7          	jalr	-180(ra) # 730 <printf>
      panic("uvmunmap: not mapped");
    27ec:	00009517          	auipc	a0,0x9
    27f0:	b1850513          	add	a0,a0,-1256 # b304 <main+0x1d4>
    27f4:	ffffe097          	auipc	ra,0xffffe
    27f8:	ee0080e7          	jalr	-288(ra) # 6d4 <panic>
      panic("uvmunmap: not a leaf");
    27fc:	00009517          	auipc	a0,0x9
    2800:	b2050513          	add	a0,a0,-1248 # b31c <main+0x1ec>
    2804:	ffffe097          	auipc	ra,0xffffe
    2808:	ed0080e7          	jalr	-304(ra) # 6d4 <panic>

0000280c <uvmcreate>:
{
    280c:	ff010113          	add	sp,sp,-16
    2810:	00812423          	sw	s0,8(sp)
    2814:	00112623          	sw	ra,12(sp)
    2818:	00912223          	sw	s1,4(sp)
    281c:	01010413          	add	s0,sp,16
  pagetable = (pagetable_t) kalloc();
    2820:	fffff097          	auipc	ra,0xfffff
    2824:	88c080e7          	jalr	-1908(ra) # 10ac <kalloc>
  if(pagetable == 0)
    2828:	02050863          	beqz	a0,2858 <uvmcreate+0x4c>
  memset(pagetable, 0, PGSIZE);
    282c:	00001637          	lui	a2,0x1
    2830:	00000593          	li	a1,0
    2834:	00050493          	mv	s1,a0
    2838:	fffff097          	auipc	ra,0xfffff
    283c:	e4c080e7          	jalr	-436(ra) # 1684 <memset>
}
    2840:	00c12083          	lw	ra,12(sp)
    2844:	00812403          	lw	s0,8(sp)
    2848:	00048513          	mv	a0,s1
    284c:	00412483          	lw	s1,4(sp)
    2850:	01010113          	add	sp,sp,16
    2854:	00008067          	ret
    panic("uvmcreate: out of memory");
    2858:	00009517          	auipc	a0,0x9
    285c:	b1450513          	add	a0,a0,-1260 # b36c <main+0x23c>
    2860:	ffffe097          	auipc	ra,0xffffe
    2864:	e74080e7          	jalr	-396(ra) # 6d4 <panic>

00002868 <uvminit>:
{
    2868:	fe010113          	add	sp,sp,-32
    286c:	00812c23          	sw	s0,24(sp)
    2870:	00112e23          	sw	ra,28(sp)
    2874:	00912a23          	sw	s1,20(sp)
    2878:	01212823          	sw	s2,16(sp)
    287c:	01312623          	sw	s3,12(sp)
    2880:	01412423          	sw	s4,8(sp)
    2884:	02010413          	add	s0,sp,32
  if(sz >= PGSIZE)
    2888:	000017b7          	lui	a5,0x1
    288c:	06f67a63          	bgeu	a2,a5,2900 <uvminit+0x98>
    2890:	00060493          	mv	s1,a2
    2894:	00058993          	mv	s3,a1
  mem = kalloc();
    2898:	00050a13          	mv	s4,a0
    289c:	fffff097          	auipc	ra,0xfffff
    28a0:	810080e7          	jalr	-2032(ra) # 10ac <kalloc>
  memset(mem, 0, PGSIZE);
    28a4:	00001637          	lui	a2,0x1
    28a8:	00000593          	li	a1,0
  mem = kalloc();
    28ac:	00050913          	mv	s2,a0
  memset(mem, 0, PGSIZE);
    28b0:	fffff097          	auipc	ra,0xfffff
    28b4:	dd4080e7          	jalr	-556(ra) # 1684 <memset>
  mappages(pagetable, 0, PGSIZE, (uint32)mem, PTE_W|PTE_R|PTE_X|PTE_U);
    28b8:	00090613          	mv	a2,s2
    28bc:	00000593          	li	a1,0
    28c0:	000a0513          	mv	a0,s4
    28c4:	01e00693          	li	a3,30
    28c8:	fffff097          	auipc	ra,0xfffff
    28cc:	348080e7          	jalr	840(ra) # 1c10 <mappages.constprop.0>
}
    28d0:	01812403          	lw	s0,24(sp)
    28d4:	01c12083          	lw	ra,28(sp)
    28d8:	00812a03          	lw	s4,8(sp)
  memmove(mem, src, sz);
    28dc:	00048613          	mv	a2,s1
    28e0:	00098593          	mv	a1,s3
}
    28e4:	01412483          	lw	s1,20(sp)
    28e8:	00c12983          	lw	s3,12(sp)
  memmove(mem, src, sz);
    28ec:	00090513          	mv	a0,s2
}
    28f0:	01012903          	lw	s2,16(sp)
    28f4:	02010113          	add	sp,sp,32
  memmove(mem, src, sz);
    28f8:	fffff317          	auipc	t1,0xfffff
    28fc:	f0c30067          	jr	-244(t1) # 1804 <memmove>
    panic("inituvm: more than a page");
    2900:	00009517          	auipc	a0,0x9
    2904:	a8850513          	add	a0,a0,-1400 # b388 <main+0x258>
    2908:	ffffe097          	auipc	ra,0xffffe
    290c:	dcc080e7          	jalr	-564(ra) # 6d4 <panic>

00002910 <uvmalloc>:
  if(newsz < oldsz)
    2910:	0cb66263          	bltu	a2,a1,29d4 <uvmalloc+0xc4>
  oldsz = PGROUNDUP(oldsz);
    2914:	000017b7          	lui	a5,0x1
{
    2918:	fe010113          	add	sp,sp,-32
  oldsz = PGROUNDUP(oldsz);
    291c:	fff78793          	add	a5,a5,-1 # fff <freerange+0xc7>
{
    2920:	00812c23          	sw	s0,24(sp)
    2924:	01212823          	sw	s2,16(sp)
    2928:	01312623          	sw	s3,12(sp)
    292c:	01412423          	sw	s4,8(sp)
    2930:	01512223          	sw	s5,4(sp)
  oldsz = PGROUNDUP(oldsz);
    2934:	00f585b3          	add	a1,a1,a5
{
    2938:	00112e23          	sw	ra,28(sp)
    293c:	00912a23          	sw	s1,20(sp)
    2940:	02010413          	add	s0,sp,32
  oldsz = PGROUNDUP(oldsz);
    2944:	fffff7b7          	lui	a5,0xfffff
    2948:	00f5f9b3          	and	s3,a1,a5
{
    294c:	00060a93          	mv	s5,a2
    2950:	00050a13          	mv	s4,a0
  oldsz = PGROUNDUP(oldsz);
    2954:	00098913          	mv	s2,s3
  for(; a < newsz; a += PGSIZE){
    2958:	02c9ec63          	bltu	s3,a2,2990 <uvmalloc+0x80>
    295c:	0800006f          	j	29dc <uvmalloc+0xcc>
    memset(mem, 0, PGSIZE);
    2960:	fffff097          	auipc	ra,0xfffff
    2964:	d24080e7          	jalr	-732(ra) # 1684 <memset>
    if(mappages(pagetable, a, PGSIZE, (uint32)mem, PTE_W|PTE_X|PTE_R|PTE_U) != 0){
    2968:	00090593          	mv	a1,s2
    296c:	01e00693          	li	a3,30
    2970:	00048613          	mv	a2,s1
    2974:	000a0513          	mv	a0,s4
    2978:	fffff097          	auipc	ra,0xfffff
    297c:	298080e7          	jalr	664(ra) # 1c10 <mappages.constprop.0>
    2980:	08051263          	bnez	a0,2a04 <uvmalloc+0xf4>
  for(; a < newsz; a += PGSIZE){
    2984:	000017b7          	lui	a5,0x1
    2988:	00f90933          	add	s2,s2,a5
    298c:	05597863          	bgeu	s2,s5,29dc <uvmalloc+0xcc>
    mem = kalloc();
    2990:	ffffe097          	auipc	ra,0xffffe
    2994:	71c080e7          	jalr	1820(ra) # 10ac <kalloc>
    memset(mem, 0, PGSIZE);
    2998:	00001637          	lui	a2,0x1
    299c:	00000593          	li	a1,0
    mem = kalloc();
    29a0:	00050493          	mv	s1,a0
    if(mem == 0){
    29a4:	fa051ee3          	bnez	a0,2960 <uvmalloc+0x50>
  if(newsz >= oldsz)
    29a8:	0329f263          	bgeu	s3,s2,29cc <uvmalloc+0xbc>
  uint32 newup = PGROUNDUP(newsz);
    29ac:	000017b7          	lui	a5,0x1
    29b0:	fff78793          	add	a5,a5,-1 # fff <freerange+0xc7>
    29b4:	fffff737          	lui	a4,0xfffff
    29b8:	00f985b3          	add	a1,s3,a5
  if(newup < PGROUNDUP(oldsz))
    29bc:	00f907b3          	add	a5,s2,a5
  uint32 newup = PGROUNDUP(newsz);
    29c0:	00e5f5b3          	and	a1,a1,a4
  if(newup < PGROUNDUP(oldsz))
    29c4:	00e7f7b3          	and	a5,a5,a4
    29c8:	04f5e663          	bltu	a1,a5,2a14 <uvmalloc+0x104>
      return 0;
    29cc:	00000513          	li	a0,0
    29d0:	0100006f          	j	29e0 <uvmalloc+0xd0>
    29d4:	00058513          	mv	a0,a1
}
    29d8:	00008067          	ret
      return 0;
    29dc:	000a8513          	mv	a0,s5
}
    29e0:	01c12083          	lw	ra,28(sp)
    29e4:	01812403          	lw	s0,24(sp)
    29e8:	01412483          	lw	s1,20(sp)
    29ec:	01012903          	lw	s2,16(sp)
    29f0:	00c12983          	lw	s3,12(sp)
    29f4:	00812a03          	lw	s4,8(sp)
    29f8:	00412a83          	lw	s5,4(sp)
    29fc:	02010113          	add	sp,sp,32
    2a00:	00008067          	ret
      kfree(mem);
    2a04:	00048513          	mv	a0,s1
    2a08:	ffffe097          	auipc	ra,0xffffe
    2a0c:	61c080e7          	jalr	1564(ra) # 1024 <kfree>
    2a10:	f99ff06f          	j	29a8 <uvmalloc+0x98>
    uvmunmap(pagetable, newup, oldsz - newup, 1);
    2a14:	000a0513          	mv	a0,s4
    2a18:	40b90633          	sub	a2,s2,a1
    2a1c:	fffff097          	auipc	ra,0xfffff
    2a20:	340080e7          	jalr	832(ra) # 1d5c <uvmunmap.constprop.0>
      return 0;
    2a24:	00000513          	li	a0,0
    2a28:	fb9ff06f          	j	29e0 <uvmalloc+0xd0>

00002a2c <uvmdealloc>:
  if(newsz >= oldsz)
    2a2c:	06b67e63          	bgeu	a2,a1,2aa8 <uvmdealloc+0x7c>
  uint32 newup = PGROUNDUP(newsz);
    2a30:	000017b7          	lui	a5,0x1
{
    2a34:	ff010113          	add	sp,sp,-16
  uint32 newup = PGROUNDUP(newsz);
    2a38:	fff78793          	add	a5,a5,-1 # fff <freerange+0xc7>
{
    2a3c:	00812423          	sw	s0,8(sp)
    2a40:	00912223          	sw	s1,4(sp)
  uint32 newup = PGROUNDUP(newsz);
    2a44:	fffff6b7          	lui	a3,0xfffff
    2a48:	00f60733          	add	a4,a2,a5
{
    2a4c:	00112623          	sw	ra,12(sp)
    2a50:	01010413          	add	s0,sp,16
  if(newup < PGROUNDUP(oldsz))
    2a54:	00f587b3          	add	a5,a1,a5
  uint32 newup = PGROUNDUP(newsz);
    2a58:	00d77733          	and	a4,a4,a3
  if(newup < PGROUNDUP(oldsz))
    2a5c:	00d7f7b3          	and	a5,a5,a3
    2a60:	00060493          	mv	s1,a2
    2a64:	00f76e63          	bltu	a4,a5,2a80 <uvmdealloc+0x54>
}
    2a68:	00c12083          	lw	ra,12(sp)
    2a6c:	00812403          	lw	s0,8(sp)
    2a70:	00048513          	mv	a0,s1
    2a74:	00412483          	lw	s1,4(sp)
    2a78:	01010113          	add	sp,sp,16
    2a7c:	00008067          	ret
    uvmunmap(pagetable, newup, oldsz - newup, 1);
    2a80:	40e58633          	sub	a2,a1,a4
    2a84:	00070593          	mv	a1,a4
    2a88:	fffff097          	auipc	ra,0xfffff
    2a8c:	2d4080e7          	jalr	724(ra) # 1d5c <uvmunmap.constprop.0>
}
    2a90:	00c12083          	lw	ra,12(sp)
    2a94:	00812403          	lw	s0,8(sp)
    2a98:	00048513          	mv	a0,s1
    2a9c:	00412483          	lw	s1,4(sp)
    2aa0:	01010113          	add	sp,sp,16
    2aa4:	00008067          	ret
    2aa8:	00058513          	mv	a0,a1
    2aac:	00008067          	ret

00002ab0 <uvmfree>:

// Free user memory pages,
// then free page-table pages.
void
uvmfree(pagetable_t pagetable, uint32 sz)
{
    2ab0:	fe010113          	add	sp,sp,-32
    2ab4:	00812c23          	sw	s0,24(sp)
    2ab8:	00912a23          	sw	s1,20(sp)
    2abc:	01212823          	sw	s2,16(sp)
    2ac0:	01312623          	sw	s3,12(sp)
    2ac4:	01412423          	sw	s4,8(sp)
    2ac8:	00112e23          	sw	ra,28(sp)
    2acc:	02010413          	add	s0,sp,32
    2ad0:	00001937          	lui	s2,0x1
    2ad4:	00050a13          	mv	s4,a0
    2ad8:	00058613          	mv	a2,a1
  uvmunmap(pagetable, 0, sz, 1);
    2adc:	00000593          	li	a1,0
    2ae0:	80090913          	add	s2,s2,-2048 # 800 <printf+0xd0>
    2ae4:	fffff097          	auipc	ra,0xfffff
    2ae8:	278080e7          	jalr	632(ra) # 1d5c <uvmunmap.constprop.0>
  for(int i = 0; i < 512; i++){
    2aec:	000a0493          	mv	s1,s4
    2af0:	012a0933          	add	s2,s4,s2
    if((pte & PTE_V) && (pte & (PTE_R|PTE_W|PTE_X)) == 0){
    2af4:	00100993          	li	s3,1
    2af8:	0140006f          	j	2b0c <uvmfree+0x5c>
    } else if(pte & PTE_V){
    2afc:	00157513          	and	a0,a0,1
    2b00:	04051e63          	bnez	a0,2b5c <uvmfree+0xac>
  for(int i = 0; i < 512; i++){
    2b04:	00448493          	add	s1,s1,4
    2b08:	03248663          	beq	s1,s2,2b34 <uvmfree+0x84>
    pte_t pte = pagetable[i];
    2b0c:	0004a503          	lw	a0,0(s1)
    if((pte & PTE_V) && (pte & (PTE_R|PTE_W|PTE_X)) == 0){
    2b10:	00f57793          	and	a5,a0,15
    2b14:	ff3794e3          	bne	a5,s3,2afc <uvmfree+0x4c>
      uint32 child = PTE2PA(pte);
    2b18:	00a55513          	srl	a0,a0,0xa
      freewalk((pagetable_t)child);
    2b1c:	00c51513          	sll	a0,a0,0xc
    2b20:	fffff097          	auipc	ra,0xfffff
    2b24:	358080e7          	jalr	856(ra) # 1e78 <freewalk>
  for(int i = 0; i < 512; i++){
    2b28:	00448493          	add	s1,s1,4
      pagetable[i] = 0;
    2b2c:	fe04ae23          	sw	zero,-4(s1)
  for(int i = 0; i < 512; i++){
    2b30:	fd249ee3          	bne	s1,s2,2b0c <uvmfree+0x5c>
  freewalk(pagetable);
}
    2b34:	01812403          	lw	s0,24(sp)
    2b38:	01c12083          	lw	ra,28(sp)
    2b3c:	01412483          	lw	s1,20(sp)
    2b40:	01012903          	lw	s2,16(sp)
    2b44:	00c12983          	lw	s3,12(sp)
  kfree((void*)pagetable);
    2b48:	000a0513          	mv	a0,s4
}
    2b4c:	00812a03          	lw	s4,8(sp)
    2b50:	02010113          	add	sp,sp,32
  kfree((void*)pagetable);
    2b54:	ffffe317          	auipc	t1,0xffffe
    2b58:	4d030067          	jr	1232(t1) # 1024 <kfree>
      panic("freewalk: leaf");
    2b5c:	00008517          	auipc	a0,0x8
    2b60:	7d850513          	add	a0,a0,2008 # b334 <main+0x204>
    2b64:	ffffe097          	auipc	ra,0xffffe
    2b68:	b70080e7          	jalr	-1168(ra) # 6d4 <panic>

00002b6c <uvmcopy>:
  pte_t *pte;
  uint32 pa, i;
  uint flags;
  char *mem;

  for(i = 0; i < sz; i += PGSIZE){
    2b6c:	12060e63          	beqz	a2,2ca8 <uvmcopy+0x13c>
{
    2b70:	fd010113          	add	sp,sp,-48
    2b74:	02812423          	sw	s0,40(sp)
    2b78:	02912223          	sw	s1,36(sp)
    2b7c:	03212023          	sw	s2,32(sp)
    2b80:	01312e23          	sw	s3,28(sp)
    2b84:	01412c23          	sw	s4,24(sp)
    2b88:	02112623          	sw	ra,44(sp)
    2b8c:	01512a23          	sw	s5,20(sp)
    2b90:	01612823          	sw	s6,16(sp)
    2b94:	01712623          	sw	s7,12(sp)
    2b98:	03010413          	add	s0,sp,48
    2b9c:	00060913          	mv	s2,a2
    2ba0:	00050493          	mv	s1,a0
    2ba4:	00058993          	mv	s3,a1
    2ba8:	00000a13          	li	s4,0
    pte_t *pte = &pagetable[PX(level, va)];
    2bac:	016a5793          	srl	a5,s4,0x16
    if(*pte & PTE_V) {
    2bb0:	00279793          	sll	a5,a5,0x2
    2bb4:	00f487b3          	add	a5,s1,a5
    2bb8:	0007a783          	lw	a5,0(a5)
    2bbc:	0017f713          	and	a4,a5,1
    2bc0:	00071a63          	bnez	a4,2bd4 <uvmcopy+0x68>
    if((pte = walk(old, i, 0)) == 0)
      panic("uvmcopy: pte should exist");
    2bc4:	00008517          	auipc	a0,0x8
    2bc8:	7e050513          	add	a0,a0,2016 # b3a4 <main+0x274>
    2bcc:	ffffe097          	auipc	ra,0xffffe
    2bd0:	b08080e7          	jalr	-1272(ra) # 6d4 <panic>
  return &pagetable[PX(0, va)];
    2bd4:	00ca5713          	srl	a4,s4,0xc
      pagetable = (pagetable_t)PTE2PA(*pte);
    2bd8:	00a7d793          	srl	a5,a5,0xa
  return &pagetable[PX(0, va)];
    2bdc:	3ff77713          	and	a4,a4,1023
      pagetable = (pagetable_t)PTE2PA(*pte);
    2be0:	00c79793          	sll	a5,a5,0xc
  return &pagetable[PX(0, va)];
    2be4:	00271713          	sll	a4,a4,0x2
    2be8:	00e787b3          	add	a5,a5,a4
    if((pte = walk(old, i, 0)) == 0)
    2bec:	fc078ce3          	beqz	a5,2bc4 <uvmcopy+0x58>
    if((*pte & PTE_V) == 0)
    2bf0:	0007a683          	lw	a3,0(a5)
    2bf4:	0016f793          	and	a5,a3,1
    2bf8:	0a078c63          	beqz	a5,2cb0 <uvmcopy+0x144>
      panic("uvmcopy: page not present");
    pa = PTE2PA(*pte);
    2bfc:	00a6d593          	srl	a1,a3,0xa
    2c00:	00c59b93          	sll	s7,a1,0xc
    flags = PTE_FLAGS(*pte);
    2c04:	3ff6fa93          	and	s5,a3,1023
    if((mem = kalloc()) == 0)
    2c08:	ffffe097          	auipc	ra,0xffffe
    2c0c:	4a4080e7          	jalr	1188(ra) # 10ac <kalloc>
    2c10:	00050b13          	mv	s6,a0
    2c14:	04050863          	beqz	a0,2c64 <uvmcopy+0xf8>
      goto err;
    memmove(mem, (char*)pa, PGSIZE);
    2c18:	00001637          	lui	a2,0x1
    2c1c:	000b8593          	mv	a1,s7
    2c20:	fffff097          	auipc	ra,0xfffff
    2c24:	be4080e7          	jalr	-1052(ra) # 1804 <memmove>
    if(mappages(new, i, PGSIZE, (uint32)mem, flags) != 0){
    2c28:	000a8693          	mv	a3,s5
    2c2c:	000b0613          	mv	a2,s6
    2c30:	000a0593          	mv	a1,s4
    2c34:	00098513          	mv	a0,s3
    2c38:	fffff097          	auipc	ra,0xfffff
    2c3c:	fd8080e7          	jalr	-40(ra) # 1c10 <mappages.constprop.0>
    2c40:	00051c63          	bnez	a0,2c58 <uvmcopy+0xec>
  for(i = 0; i < sz; i += PGSIZE){
    2c44:	000017b7          	lui	a5,0x1
    2c48:	00fa0a33          	add	s4,s4,a5
    2c4c:	f72a60e3          	bltu	s4,s2,2bac <uvmcopy+0x40>
      kfree(mem);
      goto err;
    }
  }
  return 0;
    2c50:	00000513          	li	a0,0
    2c54:	0280006f          	j	2c7c <uvmcopy+0x110>
      kfree(mem);
    2c58:	000b0513          	mv	a0,s6
    2c5c:	ffffe097          	auipc	ra,0xffffe
    2c60:	3c8080e7          	jalr	968(ra) # 1024 <kfree>

 err:
  uvmunmap(new, 0, i, 1);
    2c64:	00098513          	mv	a0,s3
    2c68:	000a0613          	mv	a2,s4
    2c6c:	00000593          	li	a1,0
    2c70:	fffff097          	auipc	ra,0xfffff
    2c74:	0ec080e7          	jalr	236(ra) # 1d5c <uvmunmap.constprop.0>
  return -1;
    2c78:	fff00513          	li	a0,-1
}
    2c7c:	02c12083          	lw	ra,44(sp)
    2c80:	02812403          	lw	s0,40(sp)
    2c84:	02412483          	lw	s1,36(sp)
    2c88:	02012903          	lw	s2,32(sp)
    2c8c:	01c12983          	lw	s3,28(sp)
    2c90:	01812a03          	lw	s4,24(sp)
    2c94:	01412a83          	lw	s5,20(sp)
    2c98:	01012b03          	lw	s6,16(sp)
    2c9c:	00c12b83          	lw	s7,12(sp)
    2ca0:	03010113          	add	sp,sp,48
    2ca4:	00008067          	ret
  return 0;
    2ca8:	00000513          	li	a0,0
}
    2cac:	00008067          	ret
      panic("uvmcopy: page not present");
    2cb0:	00008517          	auipc	a0,0x8
    2cb4:	71050513          	add	a0,a0,1808 # b3c0 <main+0x290>
    2cb8:	ffffe097          	auipc	ra,0xffffe
    2cbc:	a1c080e7          	jalr	-1508(ra) # 6d4 <panic>

00002cc0 <uvmclear>:

// mark a PTE invalid for user access.
// used by exec for the user stack guard page.
void
uvmclear(pagetable_t pagetable, uint32 va)
{
    2cc0:	ff010113          	add	sp,sp,-16
    2cc4:	00812423          	sw	s0,8(sp)
    2cc8:	00112623          	sw	ra,12(sp)
    2ccc:	01010413          	add	s0,sp,16
  if(va >= MAXVA)
    2cd0:	fff00793          	li	a5,-1
    2cd4:	06f58263          	beq	a1,a5,2d38 <uvmclear+0x78>
    pte_t *pte = &pagetable[PX(level, va)];
    2cd8:	0165d793          	srl	a5,a1,0x16
    if(*pte & PTE_V) {
    2cdc:	00279793          	sll	a5,a5,0x2
    2ce0:	00f50533          	add	a0,a0,a5
    2ce4:	00052783          	lw	a5,0(a0)
    2ce8:	0017f713          	and	a4,a5,1
    2cec:	00071a63          	bnez	a4,2d00 <uvmclear+0x40>
  pte_t *pte;
  
  pte = walk(pagetable, va, 0);
  if(pte == 0)
    panic("uvmclear");
    2cf0:	00008517          	auipc	a0,0x8
    2cf4:	6ec50513          	add	a0,a0,1772 # b3dc <main+0x2ac>
    2cf8:	ffffe097          	auipc	ra,0xffffe
    2cfc:	9dc080e7          	jalr	-1572(ra) # 6d4 <panic>
  return &pagetable[PX(0, va)];
    2d00:	00c5d593          	srl	a1,a1,0xc
      pagetable = (pagetable_t)PTE2PA(*pte);
    2d04:	00a7d793          	srl	a5,a5,0xa
  return &pagetable[PX(0, va)];
    2d08:	3ff5f593          	and	a1,a1,1023
      pagetable = (pagetable_t)PTE2PA(*pte);
    2d0c:	00c79793          	sll	a5,a5,0xc
  return &pagetable[PX(0, va)];
    2d10:	00259593          	sll	a1,a1,0x2
    2d14:	00b787b3          	add	a5,a5,a1
  if(pte == 0)
    2d18:	fc078ce3          	beqz	a5,2cf0 <uvmclear+0x30>
  *pte &= ~PTE_U;
    2d1c:	0007a703          	lw	a4,0(a5) # 1000 <freerange+0xc8>
}
    2d20:	00c12083          	lw	ra,12(sp)
    2d24:	00812403          	lw	s0,8(sp)
  *pte &= ~PTE_U;
    2d28:	fef77713          	and	a4,a4,-17
    2d2c:	00e7a023          	sw	a4,0(a5)
}
    2d30:	01010113          	add	sp,sp,16
    2d34:	00008067          	ret
    panic("walk");
    2d38:	00008517          	auipc	a0,0x8
    2d3c:	60c50513          	add	a0,a0,1548 # b344 <main+0x214>
    2d40:	ffffe097          	auipc	ra,0xffffe
    2d44:	994080e7          	jalr	-1644(ra) # 6d4 <panic>

00002d48 <copyout>:
int
copyout(pagetable_t pagetable, uint32 dstva, char *src, uint32 len)
{
  uint32 n, va0, pa0;

  while(len > 0){
    2d48:	10068863          	beqz	a3,2e58 <copyout+0x110>
{
    2d4c:	fd010113          	add	sp,sp,-48
    2d50:	02812423          	sw	s0,40(sp)
    2d54:	03212023          	sw	s2,32(sp)
    2d58:	01312e23          	sw	s3,28(sp)
    2d5c:	01412c23          	sw	s4,24(sp)
    2d60:	01612823          	sw	s6,16(sp)
    2d64:	01712623          	sw	s7,12(sp)
    2d68:	01812423          	sw	s8,8(sp)
    2d6c:	02112623          	sw	ra,44(sp)
    2d70:	02912223          	sw	s1,36(sp)
    2d74:	01512a23          	sw	s5,20(sp)
    2d78:	03010413          	add	s0,sp,48
    2d7c:	00068b13          	mv	s6,a3
    2d80:	00050913          	mv	s2,a0
    2d84:	00060b93          	mv	s7,a2
    va0 = PGROUNDDOWN(dstva);
    2d88:	fffff9b7          	lui	s3,0xfffff
  if((*pte & PTE_U) == 0)
    2d8c:	01100a13          	li	s4,17
    pa0 = walkaddr(pagetable, va0);
    if(pa0 == 0)
      return -1;
    n = PGSIZE - (dstva - va0);
    2d90:	00001c37          	lui	s8,0x1
    va0 = PGROUNDDOWN(dstva);
    2d94:	0135fab3          	and	s5,a1,s3
    pte_t *pte = &pagetable[PX(level, va)];
    2d98:	016ad793          	srl	a5,s5,0x16
    if(*pte & PTE_V) {
    2d9c:	00279793          	sll	a5,a5,0x2
    2da0:	00f907b3          	add	a5,s2,a5
    2da4:	0007a503          	lw	a0,0(a5)
  return &pagetable[PX(0, va)];
    2da8:	00cad713          	srl	a4,s5,0xc
    2dac:	3ff77713          	and	a4,a4,1023
      pagetable = (pagetable_t)PTE2PA(*pte);
    2db0:	00a55793          	srl	a5,a0,0xa
    2db4:	00c79793          	sll	a5,a5,0xc
  return &pagetable[PX(0, va)];
    2db8:	00271713          	sll	a4,a4,0x2
    if(*pte & PTE_V) {
    2dbc:	00157513          	and	a0,a0,1
  return &pagetable[PX(0, va)];
    2dc0:	00e787b3          	add	a5,a5,a4
    if(*pte & PTE_V) {
    2dc4:	02050863          	beqz	a0,2df4 <copyout+0xac>
    n = PGSIZE - (dstva - va0);
    2dc8:	40ba84b3          	sub	s1,s5,a1
    if(n > len)
      n = len;
    memmove((void *)(pa0 + (dstva - va0)), src, n);
    2dcc:	41558533          	sub	a0,a1,s5
    n = PGSIZE - (dstva - va0);
    2dd0:	018484b3          	add	s1,s1,s8
    memmove((void *)(pa0 + (dstva - va0)), src, n);
    2dd4:	000b8593          	mv	a1,s7
  if(pte == 0)
    2dd8:	00078e63          	beqz	a5,2df4 <copyout+0xac>
  if((*pte & PTE_V) == 0)
    2ddc:	0007a783          	lw	a5,0(a5)
  pa = PTE2PA(*pte);
    2de0:	00a7d713          	srl	a4,a5,0xa
    2de4:	00c71713          	sll	a4,a4,0xc
  if((*pte & PTE_U) == 0)
    2de8:	0117f793          	and	a5,a5,17
    memmove((void *)(pa0 + (dstva - va0)), src, n);
    2dec:	00e50533          	add	a0,a0,a4
  if((*pte & PTE_U) == 0)
    2df0:	03478c63          	beq	a5,s4,2e28 <copyout+0xe0>
      return -1;
    2df4:	fff00513          	li	a0,-1
    len -= n;
    src += n;
    dstva = va0 + PGSIZE;
  }
  return 0;
}
    2df8:	02c12083          	lw	ra,44(sp)
    2dfc:	02812403          	lw	s0,40(sp)
    2e00:	02412483          	lw	s1,36(sp)
    2e04:	02012903          	lw	s2,32(sp)
    2e08:	01c12983          	lw	s3,28(sp)
    2e0c:	01812a03          	lw	s4,24(sp)
    2e10:	01412a83          	lw	s5,20(sp)
    2e14:	01012b03          	lw	s6,16(sp)
    2e18:	00c12b83          	lw	s7,12(sp)
    2e1c:	00812c03          	lw	s8,8(sp)
    2e20:	03010113          	add	sp,sp,48
    2e24:	00008067          	ret
    if(pa0 == 0)
    2e28:	fc0706e3          	beqz	a4,2df4 <copyout+0xac>
    2e2c:	009b7463          	bgeu	s6,s1,2e34 <copyout+0xec>
    2e30:	000b0493          	mv	s1,s6
    memmove((void *)(pa0 + (dstva - va0)), src, n);
    2e34:	00048613          	mv	a2,s1
    2e38:	fffff097          	auipc	ra,0xfffff
    2e3c:	9cc080e7          	jalr	-1588(ra) # 1804 <memmove>
    len -= n;
    2e40:	409b0b33          	sub	s6,s6,s1
    src += n;
    2e44:	009b8bb3          	add	s7,s7,s1
    dstva = va0 + PGSIZE;
    2e48:	018a85b3          	add	a1,s5,s8
  while(len > 0){
    2e4c:	f40b14e3          	bnez	s6,2d94 <copyout+0x4c>
  return 0;
    2e50:	00000513          	li	a0,0
    2e54:	fa5ff06f          	j	2df8 <copyout+0xb0>
    2e58:	00000513          	li	a0,0
}
    2e5c:	00008067          	ret

00002e60 <copyin>:
int
copyin(pagetable_t pagetable, char *dst, uint32 srcva, uint32 len)
{
  uint32 n, va0, pa0;

  while(len > 0){
    2e60:	10068863          	beqz	a3,2f70 <copyin+0x110>
{
    2e64:	fd010113          	add	sp,sp,-48
    2e68:	02812423          	sw	s0,40(sp)
    2e6c:	03212023          	sw	s2,32(sp)
    2e70:	01312e23          	sw	s3,28(sp)
    2e74:	01412c23          	sw	s4,24(sp)
    2e78:	01612823          	sw	s6,16(sp)
    2e7c:	01712623          	sw	s7,12(sp)
    2e80:	01812423          	sw	s8,8(sp)
    2e84:	02112623          	sw	ra,44(sp)
    2e88:	02912223          	sw	s1,36(sp)
    2e8c:	01512a23          	sw	s5,20(sp)
    2e90:	03010413          	add	s0,sp,48
    2e94:	00068b13          	mv	s6,a3
    2e98:	00050913          	mv	s2,a0
    2e9c:	00058b93          	mv	s7,a1
    va0 = PGROUNDDOWN(srcva);
    2ea0:	fffff9b7          	lui	s3,0xfffff
  if((*pte & PTE_U) == 0)
    2ea4:	01100a13          	li	s4,17
    pa0 = walkaddr(pagetable, va0);
    if(pa0 == 0)
      return -1;
    n = PGSIZE - (srcva - va0);
    2ea8:	00001c37          	lui	s8,0x1
    va0 = PGROUNDDOWN(srcva);
    2eac:	01367ab3          	and	s5,a2,s3
    pte_t *pte = &pagetable[PX(level, va)];
    2eb0:	016ad793          	srl	a5,s5,0x16
    if(*pte & PTE_V) {
    2eb4:	00279793          	sll	a5,a5,0x2
    2eb8:	00f907b3          	add	a5,s2,a5
    2ebc:	0007a803          	lw	a6,0(a5)
  return &pagetable[PX(0, va)];
    2ec0:	00cad713          	srl	a4,s5,0xc
    2ec4:	3ff77713          	and	a4,a4,1023
      pagetable = (pagetable_t)PTE2PA(*pte);
    2ec8:	00a85793          	srl	a5,a6,0xa
    2ecc:	00c79793          	sll	a5,a5,0xc
  return &pagetable[PX(0, va)];
    2ed0:	00271713          	sll	a4,a4,0x2
    if(*pte & PTE_V) {
    2ed4:	00187813          	and	a6,a6,1
  return &pagetable[PX(0, va)];
    2ed8:	00e787b3          	add	a5,a5,a4
    if(*pte & PTE_V) {
    2edc:	02080863          	beqz	a6,2f0c <copyin+0xac>
    n = PGSIZE - (srcva - va0);
    2ee0:	40ca84b3          	sub	s1,s5,a2
    2ee4:	018484b3          	add	s1,s1,s8
    if(n > len)
      n = len;
    memmove(dst, (void *)(pa0 + (srcva - va0)), n);
    2ee8:	41560633          	sub	a2,a2,s5
    2eec:	000b8513          	mv	a0,s7
  if(pte == 0)
    2ef0:	00078e63          	beqz	a5,2f0c <copyin+0xac>
  if((*pte & PTE_V) == 0)
    2ef4:	0007a783          	lw	a5,0(a5)
  pa = PTE2PA(*pte);
    2ef8:	00a7d713          	srl	a4,a5,0xa
    2efc:	00c71713          	sll	a4,a4,0xc
  if((*pte & PTE_U) == 0)
    2f00:	0117f793          	and	a5,a5,17
    memmove(dst, (void *)(pa0 + (srcva - va0)), n);
    2f04:	00e605b3          	add	a1,a2,a4
  if((*pte & PTE_U) == 0)
    2f08:	03478c63          	beq	a5,s4,2f40 <copyin+0xe0>
      return -1;
    2f0c:	fff00513          	li	a0,-1
    len -= n;
    dst += n;
    srcva = va0 + PGSIZE;
  }
  return 0;
}
    2f10:	02c12083          	lw	ra,44(sp)
    2f14:	02812403          	lw	s0,40(sp)
    2f18:	02412483          	lw	s1,36(sp)
    2f1c:	02012903          	lw	s2,32(sp)
    2f20:	01c12983          	lw	s3,28(sp)
    2f24:	01812a03          	lw	s4,24(sp)
    2f28:	01412a83          	lw	s5,20(sp)
    2f2c:	01012b03          	lw	s6,16(sp)
    2f30:	00c12b83          	lw	s7,12(sp)
    2f34:	00812c03          	lw	s8,8(sp)
    2f38:	03010113          	add	sp,sp,48
    2f3c:	00008067          	ret
    if(pa0 == 0)
    2f40:	fc0706e3          	beqz	a4,2f0c <copyin+0xac>
    2f44:	009b7463          	bgeu	s6,s1,2f4c <copyin+0xec>
    2f48:	000b0493          	mv	s1,s6
    memmove(dst, (void *)(pa0 + (srcva - va0)), n);
    2f4c:	00048613          	mv	a2,s1
    2f50:	fffff097          	auipc	ra,0xfffff
    2f54:	8b4080e7          	jalr	-1868(ra) # 1804 <memmove>
    len -= n;
    2f58:	409b0b33          	sub	s6,s6,s1
    dst += n;
    2f5c:	009b8bb3          	add	s7,s7,s1
    srcva = va0 + PGSIZE;
    2f60:	018a8633          	add	a2,s5,s8
  while(len > 0){
    2f64:	f40b14e3          	bnez	s6,2eac <copyin+0x4c>
  return 0;
    2f68:	00000513          	li	a0,0
    2f6c:	fa5ff06f          	j	2f10 <copyin+0xb0>
    2f70:	00000513          	li	a0,0
}
    2f74:	00008067          	ret

00002f78 <copyinstr>:
// Copy bytes to dst from virtual address srcva in a given page table,
// until a '\0', or max.
// Return 0 on success, -1 on error.
int
copyinstr(pagetable_t pagetable, char *dst, uint32 srcva, uint32 max)
{
    2f78:	ff010113          	add	sp,sp,-16
    2f7c:	00812623          	sw	s0,12(sp)
    2f80:	01010413          	add	s0,sp,16
  uint32 n, va0, pa0;
  int got_null = 0;

  while(got_null == 0 && max > 0){
    2f84:	04068c63          	beqz	a3,2fdc <copyinstr+0x64>
    2f88:	00060813          	mv	a6,a2
    2f8c:	fffffeb7          	lui	t4,0xfffff
    2f90:	01100f13          	li	t5,17
    2f94:	00001e37          	lui	t3,0x1
    va0 = PGROUNDDOWN(srcva);
    2f98:	01d87333          	and	t1,a6,t4
    pte_t *pte = &pagetable[PX(level, va)];
    2f9c:	01635793          	srl	a5,t1,0x16
    if(*pte & PTE_V) {
    2fa0:	00279793          	sll	a5,a5,0x2
    2fa4:	00f507b3          	add	a5,a0,a5
    2fa8:	0007a783          	lw	a5,0(a5)
    2fac:	0017f713          	and	a4,a5,1
    2fb0:	02070663          	beqz	a4,2fdc <copyinstr+0x64>
  return &pagetable[PX(0, va)];
    2fb4:	00c35713          	srl	a4,t1,0xc
      pagetable = (pagetable_t)PTE2PA(*pte);
    2fb8:	00a7d793          	srl	a5,a5,0xa
  return &pagetable[PX(0, va)];
    2fbc:	3ff77713          	and	a4,a4,1023
      pagetable = (pagetable_t)PTE2PA(*pte);
    2fc0:	00c79793          	sll	a5,a5,0xc
  return &pagetable[PX(0, va)];
    2fc4:	00271713          	sll	a4,a4,0x2
    2fc8:	00e787b3          	add	a5,a5,a4
  if(pte == 0)
    2fcc:	00078863          	beqz	a5,2fdc <copyinstr+0x64>
  if((*pte & PTE_V) == 0)
    2fd0:	0007a783          	lw	a5,0(a5)
  if((*pte & PTE_U) == 0)
    2fd4:	0117f713          	and	a4,a5,17
    2fd8:	01e70a63          	beq	a4,t5,2fec <copyinstr+0x74>
  if(got_null){
    return 0;
  } else {
    return -1;
  }
}
    2fdc:	00c12403          	lw	s0,12(sp)
      return -1;
    2fe0:	fff00513          	li	a0,-1
}
    2fe4:	01010113          	add	sp,sp,16
    2fe8:	00008067          	ret
  pa = PTE2PA(*pte);
    2fec:	00a7d793          	srl	a5,a5,0xa
    2ff0:	00c79793          	sll	a5,a5,0xc
    if(pa0 == 0)
    2ff4:	fe0784e3          	beqz	a5,2fdc <copyinstr+0x64>
    n = PGSIZE - (srcva - va0);
    2ff8:	41030633          	sub	a2,t1,a6
    2ffc:	01c60633          	add	a2,a2,t3
    3000:	00c6f463          	bgeu	a3,a2,3008 <copyinstr+0x90>
    3004:	00068613          	mv	a2,a3
    char *p = (char *) (pa0 + (srcva - va0));
    3008:	40680833          	sub	a6,a6,t1
    300c:	00f80833          	add	a6,a6,a5
    while(n > 0){
    3010:	06060063          	beqz	a2,3070 <copyinstr+0xf8>
    3014:	00058793          	mv	a5,a1
    3018:	40b80833          	sub	a6,a6,a1
    301c:	00b60633          	add	a2,a2,a1
    3020:	0100006f          	j	3030 <copyinstr+0xb8>
        *dst = *p;
    3024:	00e78023          	sb	a4,0(a5)
      dst++;
    3028:	00178793          	add	a5,a5,1
    while(n > 0){
    302c:	02c78463          	beq	a5,a2,3054 <copyinstr+0xdc>
      if(*p == '\0'){
    3030:	01078733          	add	a4,a5,a6
    3034:	00074703          	lbu	a4,0(a4) # fffff000 <end+0xfffdafec>
    3038:	00078893          	mv	a7,a5
    303c:	fe0714e3          	bnez	a4,3024 <copyinstr+0xac>
        *dst = '\0';
    3040:	00078023          	sb	zero,0(a5)
}
    3044:	00c12403          	lw	s0,12(sp)
        *dst = '\0';
    3048:	00000513          	li	a0,0
}
    304c:	01010113          	add	sp,sp,16
    3050:	00008067          	ret
    3054:	fff68713          	add	a4,a3,-1 # ffffefff <end+0xfffdafeb>
    3058:	00b70733          	add	a4,a4,a1
      --max;
    305c:	411706b3          	sub	a3,a4,a7
    srcva = va0 + PGSIZE;
    3060:	01c30833          	add	a6,t1,t3
  while(got_null == 0 && max > 0){
    3064:	f6e88ce3          	beq	a7,a4,2fdc <copyinstr+0x64>
{
    3068:	00078593          	mv	a1,a5
    306c:	f2dff06f          	j	2f98 <copyinstr+0x20>
    srcva = va0 + PGSIZE;
    3070:	00001837          	lui	a6,0x1
    3074:	00058793          	mv	a5,a1
    3078:	01030833          	add	a6,t1,a6
{
    307c:	00078593          	mv	a1,a5
    3080:	f19ff06f          	j	2f98 <copyinstr+0x20>

00003084 <forkret>:

// A fork child's very first scheduling by scheduler()
// will swtch to forkret.
void
forkret(void)
{
    3084:	ff010113          	add	sp,sp,-16
    3088:	00812423          	sw	s0,8(sp)
    308c:	00112623          	sw	ra,12(sp)
    3090:	00912223          	sw	s1,4(sp)
    3094:	01010413          	add	s0,sp,16
  push_off();
    3098:	ffffe097          	auipc	ra,0xffffe
    309c:	4f0080e7          	jalr	1264(ra) # 1588 <push_off>
  asm volatile("mv %0, tp" : "=r" (x) );
    30a0:	00020713          	mv	a4,tp
  struct proc *p = c->proc;
    30a4:	00471793          	sll	a5,a4,0x4
    30a8:	00e787b3          	add	a5,a5,a4
    30ac:	00279793          	sll	a5,a5,0x2
    30b0:	00012717          	auipc	a4,0x12
    30b4:	40870713          	add	a4,a4,1032 # 154b8 <cpus>
    30b8:	00f707b3          	add	a5,a4,a5
    30bc:	0007a483          	lw	s1,0(a5)
  pop_off();
    30c0:	ffffe097          	auipc	ra,0xffffe
    30c4:	53c080e7          	jalr	1340(ra) # 15fc <pop_off>
  static int first = 1;

  // Still holding p->lock from scheduler.
  release(&myproc()->lock);
    30c8:	00048513          	mv	a0,s1
    30cc:	ffffe097          	auipc	ra,0xffffe
    30d0:	230080e7          	jalr	560(ra) # 12fc <release>

  if (first) {
    30d4:	00009797          	auipc	a5,0x9
    30d8:	f647a783          	lw	a5,-156(a5) # c038 <first.1>
    30dc:	00079e63          	bnez	a5,30f8 <forkret+0x74>
    first = 0;
    fsinit(ROOTDEV);
  }

  usertrapret();
}
    30e0:	00812403          	lw	s0,8(sp)
    30e4:	00c12083          	lw	ra,12(sp)
    30e8:	00412483          	lw	s1,4(sp)
    30ec:	01010113          	add	sp,sp,16
  usertrapret();
    30f0:	00001317          	auipc	t1,0x1
    30f4:	79430067          	jr	1940(t1) # 4884 <usertrapret>
    fsinit(ROOTDEV);
    30f8:	00100513          	li	a0,1
    first = 0;
    30fc:	00009797          	auipc	a5,0x9
    3100:	f207ae23          	sw	zero,-196(a5) # c038 <first.1>
    fsinit(ROOTDEV);
    3104:	00003097          	auipc	ra,0x3
    3108:	a30080e7          	jalr	-1488(ra) # 5b34 <fsinit>
}
    310c:	00812403          	lw	s0,8(sp)
    3110:	00c12083          	lw	ra,12(sp)
    3114:	00412483          	lw	s1,4(sp)
    3118:	01010113          	add	sp,sp,16
  usertrapret();
    311c:	00001317          	auipc	t1,0x1
    3120:	76830067          	jr	1896(t1) # 4884 <usertrapret>

00003124 <wakeup1>:

// Wake up p if it is sleeping in wait(); used by exit().
// Caller must hold p->lock.
static void
wakeup1(struct proc *p)
{
    3124:	ff010113          	add	sp,sp,-16
    3128:	00812423          	sw	s0,8(sp)
    312c:	00912223          	sw	s1,4(sp)
    3130:	00112623          	sw	ra,12(sp)
    3134:	01010413          	add	s0,sp,16
    3138:	00050493          	mv	s1,a0
  if(!holding(&p->lock))
    313c:	ffffe097          	auipc	ra,0xffffe
    3140:	33c080e7          	jalr	828(ra) # 1478 <holding>
    3144:	02050c63          	beqz	a0,317c <wakeup1+0x58>
    panic("wakeup1");
  if(p->chan == p && p->state == SLEEPING) {
    3148:	0144a783          	lw	a5,20(s1)
    314c:	00978c63          	beq	a5,s1,3164 <wakeup1+0x40>
    p->state = RUNNABLE;
  }
}
    3150:	00c12083          	lw	ra,12(sp)
    3154:	00812403          	lw	s0,8(sp)
    3158:	00412483          	lw	s1,4(sp)
    315c:	01010113          	add	sp,sp,16
    3160:	00008067          	ret
  if(p->chan == p && p->state == SLEEPING) {
    3164:	00c7a683          	lw	a3,12(a5)
    3168:	00100713          	li	a4,1
    316c:	fee692e3          	bne	a3,a4,3150 <wakeup1+0x2c>
    p->state = RUNNABLE;
    3170:	00200713          	li	a4,2
    3174:	00e7a623          	sw	a4,12(a5)
}
    3178:	fd9ff06f          	j	3150 <wakeup1+0x2c>
    panic("wakeup1");
    317c:	00008517          	auipc	a0,0x8
    3180:	26c50513          	add	a0,a0,620 # b3e8 <main+0x2b8>
    3184:	ffffd097          	auipc	ra,0xffffd
    3188:	550080e7          	jalr	1360(ra) # 6d4 <panic>

0000318c <allocproc>:
{
    318c:	ff010113          	add	sp,sp,-16
    3190:	00812423          	sw	s0,8(sp)
    3194:	00912223          	sw	s1,4(sp)
    3198:	01212023          	sw	s2,0(sp)
    319c:	00112623          	sw	ra,12(sp)
    31a0:	01010413          	add	s0,sp,16
  for(p = proc; p < &proc[NPROC]; p++) {
    31a4:	00012497          	auipc	s1,0x12
    31a8:	54048493          	add	s1,s1,1344 # 156e4 <proc>
    31ac:	00015917          	auipc	s2,0x15
    31b0:	53890913          	add	s2,s2,1336 # 186e4 <tickslock>
    31b4:	0140006f          	j	31c8 <allocproc+0x3c>
    31b8:	0c048493          	add	s1,s1,192
      release(&p->lock);
    31bc:	ffffe097          	auipc	ra,0xffffe
    31c0:	140080e7          	jalr	320(ra) # 12fc <release>
  for(p = proc; p < &proc[NPROC]; p++) {
    31c4:	11248263          	beq	s1,s2,32c8 <allocproc+0x13c>
    acquire(&p->lock);
    31c8:	00048513          	mv	a0,s1
    31cc:	ffffe097          	auipc	ra,0xffffe
    31d0:	fa4080e7          	jalr	-92(ra) # 1170 <acquire>
    if(p->state == UNUSED) {
    31d4:	00c4a783          	lw	a5,12(s1)
      release(&p->lock);
    31d8:	00048513          	mv	a0,s1
    if(p->state == UNUSED) {
    31dc:	fc079ee3          	bnez	a5,31b8 <allocproc+0x2c>
  acquire(&pid_lock);
    31e0:	00012517          	auipc	a0,0x12
    31e4:	4f850513          	add	a0,a0,1272 # 156d8 <pid_lock>
    31e8:	ffffe097          	auipc	ra,0xffffe
    31ec:	f88080e7          	jalr	-120(ra) # 1170 <acquire>
  pid = nextpid;
    31f0:	00009797          	auipc	a5,0x9
    31f4:	e4c78793          	add	a5,a5,-436 # c03c <nextpid>
    31f8:	0007a903          	lw	s2,0(a5)
  release(&pid_lock);
    31fc:	00012517          	auipc	a0,0x12
    3200:	4dc50513          	add	a0,a0,1244 # 156d8 <pid_lock>
  nextpid = nextpid + 1;
    3204:	00190713          	add	a4,s2,1
    3208:	00e7a023          	sw	a4,0(a5)
  release(&pid_lock);
    320c:	ffffe097          	auipc	ra,0xffffe
    3210:	0f0080e7          	jalr	240(ra) # 12fc <release>
  p->pid = allocpid();
    3214:	0324a023          	sw	s2,32(s1)
  if((p->tf = (struct trapframe *)kalloc()) == 0){
    3218:	ffffe097          	auipc	ra,0xffffe
    321c:	e94080e7          	jalr	-364(ra) # 10ac <kalloc>
    3220:	02a4a823          	sw	a0,48(s1)
    3224:	08050c63          	beqz	a0,32bc <allocproc+0x130>
  pagetable = uvmcreate();
    3228:	fffff097          	auipc	ra,0xfffff
    322c:	5e4080e7          	jalr	1508(ra) # 280c <uvmcreate>
  mappages(pagetable, TRAMPOLINE, PGSIZE,
    3230:	00a00713          	li	a4,10
    3234:	00008697          	auipc	a3,0x8
    3238:	dcc68693          	add	a3,a3,-564 # b000 <trampoline>
    323c:	00001637          	lui	a2,0x1
    3240:	fffff5b7          	lui	a1,0xfffff
  pagetable = uvmcreate();
    3244:	00050913          	mv	s2,a0
  mappages(pagetable, TRAMPOLINE, PGSIZE,
    3248:	fffff097          	auipc	ra,0xfffff
    324c:	160080e7          	jalr	352(ra) # 23a8 <mappages>
  mappages(pagetable, TRAPFRAME, PGSIZE,
    3250:	0304a683          	lw	a3,48(s1)
    3254:	00600713          	li	a4,6
    3258:	00001637          	lui	a2,0x1
    325c:	ffffe5b7          	lui	a1,0xffffe
    3260:	00090513          	mv	a0,s2
    3264:	fffff097          	auipc	ra,0xfffff
    3268:	144080e7          	jalr	324(ra) # 23a8 <mappages>
  memset(&p->context, 0, sizeof p->context);
    326c:	03800613          	li	a2,56
  p->pagetable = proc_pagetable(p);
    3270:	0324a623          	sw	s2,44(s1)
  memset(&p->context, 0, sizeof p->context);
    3274:	00000593          	li	a1,0
    3278:	03448513          	add	a0,s1,52
    327c:	ffffe097          	auipc	ra,0xffffe
    3280:	408080e7          	jalr	1032(ra) # 1684 <memset>
  p->context.sp = p->kstack + PGSIZE;
    3284:	0244a783          	lw	a5,36(s1)
    3288:	00001737          	lui	a4,0x1
    328c:	00e787b3          	add	a5,a5,a4
  p->context.ra = (uint32)forkret;
    3290:	00000717          	auipc	a4,0x0
    3294:	df470713          	add	a4,a4,-524 # 3084 <forkret>
    3298:	02e4aa23          	sw	a4,52(s1)
  p->context.sp = p->kstack + PGSIZE;
    329c:	02f4ac23          	sw	a5,56(s1)
}
    32a0:	00c12083          	lw	ra,12(sp)
    32a4:	00812403          	lw	s0,8(sp)
    32a8:	00012903          	lw	s2,0(sp)
    32ac:	00048513          	mv	a0,s1
    32b0:	00412483          	lw	s1,4(sp)
    32b4:	01010113          	add	sp,sp,16
    32b8:	00008067          	ret
    release(&p->lock);
    32bc:	00048513          	mv	a0,s1
    32c0:	ffffe097          	auipc	ra,0xffffe
    32c4:	03c080e7          	jalr	60(ra) # 12fc <release>
  return 0;
    32c8:	00000493          	li	s1,0
    32cc:	fd5ff06f          	j	32a0 <allocproc+0x114>

000032d0 <procinit>:
{
    32d0:	fd010113          	add	sp,sp,-48
    32d4:	02812423          	sw	s0,40(sp)
    32d8:	03212023          	sw	s2,32(sp)
    32dc:	01312e23          	sw	s3,28(sp)
    32e0:	01412c23          	sw	s4,24(sp)
    32e4:	01512a23          	sw	s5,20(sp)
    32e8:	01612823          	sw	s6,16(sp)
    32ec:	01712623          	sw	s7,12(sp)
    32f0:	02112623          	sw	ra,44(sp)
    32f4:	02912223          	sw	s1,36(sp)
    32f8:	03010413          	add	s0,sp,48
  initlock(&pid_lock, "nextpid");
    32fc:	00008597          	auipc	a1,0x8
    3300:	0f458593          	add	a1,a1,244 # b3f0 <main+0x2c0>
    3304:	00012517          	auipc	a0,0x12
    3308:	3d450513          	add	a0,a0,980 # 156d8 <pid_lock>
  for(p = proc; p < &proc[NPROC]; p++) {
    330c:	00012997          	auipc	s3,0x12
    3310:	3d898993          	add	s3,s3,984 # 156e4 <proc>
      uint32 va = KSTACK((int) (p - proc));
    3314:	aaaab937          	lui	s2,0xaaaab
  initlock(&pid_lock, "nextpid");
    3318:	ffffe097          	auipc	ra,0xffffe
    331c:	e34080e7          	jalr	-460(ra) # 114c <initlock>
  for(p = proc; p < &proc[NPROC]; p++) {
    3320:	00098b93          	mv	s7,s3
      initlock(&p->lock, "proc");
    3324:	00008b17          	auipc	s6,0x8
    3328:	0d4b0b13          	add	s6,s6,212 # b3f8 <main+0x2c8>
      uint32 va = KSTACK((int) (p - proc));
    332c:	aab90913          	add	s2,s2,-1365 # aaaaaaab <end+0xaaa86a97>
    3330:	fffffab7          	lui	s5,0xfffff
  for(p = proc; p < &proc[NPROC]; p++) {
    3334:	00015a17          	auipc	s4,0x15
    3338:	3b0a0a13          	add	s4,s4,944 # 186e4 <tickslock>
      initlock(&p->lock, "proc");
    333c:	000b0593          	mv	a1,s6
    3340:	000b8513          	mv	a0,s7
    3344:	ffffe097          	auipc	ra,0xffffe
    3348:	e08080e7          	jalr	-504(ra) # 114c <initlock>
      char *pa = kalloc();
    334c:	ffffe097          	auipc	ra,0xffffe
    3350:	d60080e7          	jalr	-672(ra) # 10ac <kalloc>
    3354:	00050593          	mv	a1,a0
      if(pa == 0)
    3358:	06050663          	beqz	a0,33c4 <procinit+0xf4>
      uint32 va = KSTACK((int) (p - proc));
    335c:	413b84b3          	sub	s1,s7,s3
    3360:	4064d493          	sra	s1,s1,0x6
    3364:	032484b3          	mul	s1,s1,s2
      kvmmap(va, (uint32)pa, PGSIZE, PTE_R | PTE_W);
    3368:	00600693          	li	a3,6
    336c:	00001637          	lui	a2,0x1
  for(p = proc; p < &proc[NPROC]; p++) {
    3370:	0c0b8b93          	add	s7,s7,192
      uint32 va = KSTACK((int) (p - proc));
    3374:	00148493          	add	s1,s1,1
    3378:	00d49493          	sll	s1,s1,0xd
    337c:	409a84b3          	sub	s1,s5,s1
      kvmmap(va, (uint32)pa, PGSIZE, PTE_R | PTE_W);
    3380:	00048513          	mv	a0,s1
    3384:	fffff097          	auipc	ra,0xfffff
    3388:	16c080e7          	jalr	364(ra) # 24f0 <kvmmap>
      p->kstack = va;
    338c:	f69ba223          	sw	s1,-156(s7)
  for(p = proc; p < &proc[NPROC]; p++) {
    3390:	fb4b96e3          	bne	s7,s4,333c <procinit+0x6c>
}
    3394:	02812403          	lw	s0,40(sp)
    3398:	02c12083          	lw	ra,44(sp)
    339c:	02412483          	lw	s1,36(sp)
    33a0:	02012903          	lw	s2,32(sp)
    33a4:	01c12983          	lw	s3,28(sp)
    33a8:	01812a03          	lw	s4,24(sp)
    33ac:	01412a83          	lw	s5,20(sp)
    33b0:	01012b03          	lw	s6,16(sp)
    33b4:	00c12b83          	lw	s7,12(sp)
    33b8:	03010113          	add	sp,sp,48
  kvminithart();
    33bc:	fffff317          	auipc	t1,0xfffff
    33c0:	e8830067          	jr	-376(t1) # 2244 <kvminithart>
        panic("kalloc");
    33c4:	00008517          	auipc	a0,0x8
    33c8:	03c50513          	add	a0,a0,60 # b400 <main+0x2d0>
    33cc:	ffffd097          	auipc	ra,0xffffd
    33d0:	308080e7          	jalr	776(ra) # 6d4 <panic>

000033d4 <cpuid>:
{
    33d4:	ff010113          	add	sp,sp,-16
    33d8:	00812623          	sw	s0,12(sp)
    33dc:	01010413          	add	s0,sp,16
    33e0:	00020513          	mv	a0,tp
}
    33e4:	00c12403          	lw	s0,12(sp)
    33e8:	01010113          	add	sp,sp,16
    33ec:	00008067          	ret

000033f0 <mycpu>:
mycpu(void) {
    33f0:	ff010113          	add	sp,sp,-16
    33f4:	00812623          	sw	s0,12(sp)
    33f8:	01010413          	add	s0,sp,16
    33fc:	00020713          	mv	a4,tp
}
    3400:	00c12403          	lw	s0,12(sp)
  struct cpu *c = &cpus[id];
    3404:	00471793          	sll	a5,a4,0x4
    3408:	00e787b3          	add	a5,a5,a4
    340c:	00279793          	sll	a5,a5,0x2
}
    3410:	00012517          	auipc	a0,0x12
    3414:	0a850513          	add	a0,a0,168 # 154b8 <cpus>
    3418:	00f50533          	add	a0,a0,a5
    341c:	01010113          	add	sp,sp,16
    3420:	00008067          	ret

00003424 <myproc>:
myproc(void) {
    3424:	ff010113          	add	sp,sp,-16
    3428:	00812423          	sw	s0,8(sp)
    342c:	00112623          	sw	ra,12(sp)
    3430:	00912223          	sw	s1,4(sp)
    3434:	01010413          	add	s0,sp,16
  push_off();
    3438:	ffffe097          	auipc	ra,0xffffe
    343c:	150080e7          	jalr	336(ra) # 1588 <push_off>
    3440:	00020713          	mv	a4,tp
  struct proc *p = c->proc;
    3444:	00471793          	sll	a5,a4,0x4
    3448:	00e787b3          	add	a5,a5,a4
    344c:	00279793          	sll	a5,a5,0x2
    3450:	00012717          	auipc	a4,0x12
    3454:	06870713          	add	a4,a4,104 # 154b8 <cpus>
    3458:	00f707b3          	add	a5,a4,a5
    345c:	0007a483          	lw	s1,0(a5)
  pop_off();
    3460:	ffffe097          	auipc	ra,0xffffe
    3464:	19c080e7          	jalr	412(ra) # 15fc <pop_off>
}
    3468:	00c12083          	lw	ra,12(sp)
    346c:	00812403          	lw	s0,8(sp)
    3470:	00048513          	mv	a0,s1
    3474:	00412483          	lw	s1,4(sp)
    3478:	01010113          	add	sp,sp,16
    347c:	00008067          	ret

00003480 <allocpid>:
allocpid() {
    3480:	ff010113          	add	sp,sp,-16
    3484:	00112623          	sw	ra,12(sp)
    3488:	00812423          	sw	s0,8(sp)
    348c:	00912223          	sw	s1,4(sp)
    3490:	01212023          	sw	s2,0(sp)
    3494:	01010413          	add	s0,sp,16
  acquire(&pid_lock);
    3498:	00012917          	auipc	s2,0x12
    349c:	24090913          	add	s2,s2,576 # 156d8 <pid_lock>
    34a0:	00090513          	mv	a0,s2
    34a4:	ffffe097          	auipc	ra,0xffffe
    34a8:	ccc080e7          	jalr	-820(ra) # 1170 <acquire>
  pid = nextpid;
    34ac:	00009797          	auipc	a5,0x9
    34b0:	b9078793          	add	a5,a5,-1136 # c03c <nextpid>
    34b4:	0007a483          	lw	s1,0(a5)
  release(&pid_lock);
    34b8:	00090513          	mv	a0,s2
  nextpid = nextpid + 1;
    34bc:	00148713          	add	a4,s1,1
    34c0:	00e7a023          	sw	a4,0(a5)
  release(&pid_lock);
    34c4:	ffffe097          	auipc	ra,0xffffe
    34c8:	e38080e7          	jalr	-456(ra) # 12fc <release>
}
    34cc:	00c12083          	lw	ra,12(sp)
    34d0:	00812403          	lw	s0,8(sp)
    34d4:	00012903          	lw	s2,0(sp)
    34d8:	00048513          	mv	a0,s1
    34dc:	00412483          	lw	s1,4(sp)
    34e0:	01010113          	add	sp,sp,16
    34e4:	00008067          	ret

000034e8 <proc_pagetable>:
{
    34e8:	ff010113          	add	sp,sp,-16
    34ec:	00112623          	sw	ra,12(sp)
    34f0:	00812423          	sw	s0,8(sp)
    34f4:	00912223          	sw	s1,4(sp)
    34f8:	01010413          	add	s0,sp,16
    34fc:	01212023          	sw	s2,0(sp)
    3500:	00050913          	mv	s2,a0
  pagetable = uvmcreate();
    3504:	fffff097          	auipc	ra,0xfffff
    3508:	308080e7          	jalr	776(ra) # 280c <uvmcreate>
  mappages(pagetable, TRAMPOLINE, PGSIZE,
    350c:	00a00713          	li	a4,10
    3510:	00008697          	auipc	a3,0x8
    3514:	af068693          	add	a3,a3,-1296 # b000 <trampoline>
    3518:	00001637          	lui	a2,0x1
    351c:	fffff5b7          	lui	a1,0xfffff
  pagetable = uvmcreate();
    3520:	00050493          	mv	s1,a0
  mappages(pagetable, TRAMPOLINE, PGSIZE,
    3524:	fffff097          	auipc	ra,0xfffff
    3528:	e84080e7          	jalr	-380(ra) # 23a8 <mappages>
  mappages(pagetable, TRAPFRAME, PGSIZE,
    352c:	03092683          	lw	a3,48(s2)
    3530:	00048513          	mv	a0,s1
    3534:	00600713          	li	a4,6
    3538:	00001637          	lui	a2,0x1
    353c:	ffffe5b7          	lui	a1,0xffffe
    3540:	fffff097          	auipc	ra,0xfffff
    3544:	e68080e7          	jalr	-408(ra) # 23a8 <mappages>
}
    3548:	00c12083          	lw	ra,12(sp)
    354c:	00812403          	lw	s0,8(sp)
    3550:	00012903          	lw	s2,0(sp)
    3554:	00048513          	mv	a0,s1
    3558:	00412483          	lw	s1,4(sp)
    355c:	01010113          	add	sp,sp,16
    3560:	00008067          	ret

00003564 <proc_freepagetable>:
{
    3564:	ff010113          	add	sp,sp,-16
    3568:	00812423          	sw	s0,8(sp)
    356c:	00912223          	sw	s1,4(sp)
    3570:	01212023          	sw	s2,0(sp)
    3574:	00112623          	sw	ra,12(sp)
    3578:	01010413          	add	s0,sp,16
    357c:	00058913          	mv	s2,a1
  uvmunmap(pagetable, TRAMPOLINE, PGSIZE, 0);
    3580:	00000693          	li	a3,0
    3584:	00001637          	lui	a2,0x1
    3588:	fffff5b7          	lui	a1,0xfffff
{
    358c:	00050493          	mv	s1,a0
  uvmunmap(pagetable, TRAMPOLINE, PGSIZE, 0);
    3590:	fffff097          	auipc	ra,0xfffff
    3594:	100080e7          	jalr	256(ra) # 2690 <uvmunmap>
  uvmunmap(pagetable, TRAPFRAME, PGSIZE, 0);
    3598:	00000693          	li	a3,0
    359c:	00001637          	lui	a2,0x1
    35a0:	ffffe5b7          	lui	a1,0xffffe
    35a4:	00048513          	mv	a0,s1
    35a8:	fffff097          	auipc	ra,0xfffff
    35ac:	0e8080e7          	jalr	232(ra) # 2690 <uvmunmap>
  if(sz > 0)
    35b0:	00091e63          	bnez	s2,35cc <proc_freepagetable+0x68>
}
    35b4:	00c12083          	lw	ra,12(sp)
    35b8:	00812403          	lw	s0,8(sp)
    35bc:	00412483          	lw	s1,4(sp)
    35c0:	00012903          	lw	s2,0(sp)
    35c4:	01010113          	add	sp,sp,16
    35c8:	00008067          	ret
    35cc:	00812403          	lw	s0,8(sp)
    35d0:	00c12083          	lw	ra,12(sp)
    uvmfree(pagetable, sz);
    35d4:	00090593          	mv	a1,s2
    35d8:	00048513          	mv	a0,s1
}
    35dc:	00012903          	lw	s2,0(sp)
    35e0:	00412483          	lw	s1,4(sp)
    35e4:	01010113          	add	sp,sp,16
    uvmfree(pagetable, sz);
    35e8:	fffff317          	auipc	t1,0xfffff
    35ec:	4c830067          	jr	1224(t1) # 2ab0 <uvmfree>

000035f0 <userinit>:
{
    35f0:	ff010113          	add	sp,sp,-16
    35f4:	00112623          	sw	ra,12(sp)
    35f8:	00812423          	sw	s0,8(sp)
    35fc:	00912223          	sw	s1,4(sp)
    3600:	01010413          	add	s0,sp,16
  p = allocproc();
    3604:	00000097          	auipc	ra,0x0
    3608:	b88080e7          	jalr	-1144(ra) # 318c <allocproc>
    360c:	00050493          	mv	s1,a0
  uvminit(p->pagetable, initcode, sizeof(initcode));
    3610:	02c52503          	lw	a0,44(a0)
    3614:	03800613          	li	a2,56
    3618:	00009597          	auipc	a1,0x9
    361c:	9e858593          	add	a1,a1,-1560 # c000 <initcode>
  initproc = p;
    3620:	00021797          	auipc	a5,0x21
    3624:	9e97a623          	sw	s1,-1556(a5) # 2400c <initproc>
  uvminit(p->pagetable, initcode, sizeof(initcode));
    3628:	fffff097          	auipc	ra,0xfffff
    362c:	240080e7          	jalr	576(ra) # 2868 <uvminit>
  p->tf->epc = 0;      // user program counter
    3630:	0304a783          	lw	a5,48(s1)
  p->sz = PGSIZE;
    3634:	00001737          	lui	a4,0x1
    3638:	02e4a423          	sw	a4,40(s1)
  p->tf->epc = 0;      // user program counter
    363c:	0007a623          	sw	zero,12(a5)
  p->tf->sp = PGSIZE;  // user stack pointer
    3640:	00e7ac23          	sw	a4,24(a5)
  safestrcpy(p->name, "initcode", sizeof(p->name));
    3644:	01000613          	li	a2,16
    3648:	00008597          	auipc	a1,0x8
    364c:	dc058593          	add	a1,a1,-576 # b408 <main+0x2d8>
    3650:	0b048513          	add	a0,s1,176
    3654:	ffffe097          	auipc	ra,0xffffe
    3658:	530080e7          	jalr	1328(ra) # 1b84 <safestrcpy>
  p->cwd = namei("/");
    365c:	00008517          	auipc	a0,0x8
    3660:	db850513          	add	a0,a0,-584 # b414 <main+0x2e4>
    3664:	00004097          	auipc	ra,0x4
    3668:	b80080e7          	jalr	-1152(ra) # 71e4 <namei>
  p->state = RUNNABLE;
    366c:	00200793          	li	a5,2
}
    3670:	00812403          	lw	s0,8(sp)
  p->cwd = namei("/");
    3674:	0aa4a623          	sw	a0,172(s1)
}
    3678:	00c12083          	lw	ra,12(sp)
  p->state = RUNNABLE;
    367c:	00f4a623          	sw	a5,12(s1)
  release(&p->lock);
    3680:	00048513          	mv	a0,s1
}
    3684:	00412483          	lw	s1,4(sp)
    3688:	01010113          	add	sp,sp,16
  release(&p->lock);
    368c:	ffffe317          	auipc	t1,0xffffe
    3690:	c7030067          	jr	-912(t1) # 12fc <release>

00003694 <growproc>:
{
    3694:	ff010113          	add	sp,sp,-16
    3698:	00812423          	sw	s0,8(sp)
    369c:	00912223          	sw	s1,4(sp)
    36a0:	00112623          	sw	ra,12(sp)
    36a4:	01212023          	sw	s2,0(sp)
    36a8:	01010413          	add	s0,sp,16
    36ac:	00050493          	mv	s1,a0
  push_off();
    36b0:	ffffe097          	auipc	ra,0xffffe
    36b4:	ed8080e7          	jalr	-296(ra) # 1588 <push_off>
    36b8:	00020713          	mv	a4,tp
  struct proc *p = c->proc;
    36bc:	00471793          	sll	a5,a4,0x4
    36c0:	00e787b3          	add	a5,a5,a4
    36c4:	00279793          	sll	a5,a5,0x2
    36c8:	00012717          	auipc	a4,0x12
    36cc:	df070713          	add	a4,a4,-528 # 154b8 <cpus>
    36d0:	00f707b3          	add	a5,a4,a5
    36d4:	0007a903          	lw	s2,0(a5)
  pop_off();
    36d8:	ffffe097          	auipc	ra,0xffffe
    36dc:	f24080e7          	jalr	-220(ra) # 15fc <pop_off>
  sz = p->sz;
    36e0:	02892583          	lw	a1,40(s2)
  if(n > 0){
    36e4:	02904463          	bgtz	s1,370c <growproc+0x78>
  } else if(n < 0){
    36e8:	04049263          	bnez	s1,372c <growproc+0x98>
  p->sz = sz;
    36ec:	02b92423          	sw	a1,40(s2)
  return 0;
    36f0:	00000513          	li	a0,0
}
    36f4:	00c12083          	lw	ra,12(sp)
    36f8:	00812403          	lw	s0,8(sp)
    36fc:	00412483          	lw	s1,4(sp)
    3700:	00012903          	lw	s2,0(sp)
    3704:	01010113          	add	sp,sp,16
    3708:	00008067          	ret
    if((sz = uvmalloc(p->pagetable, sz, sz + n)) == 0) {
    370c:	02c92503          	lw	a0,44(s2)
    3710:	00b48633          	add	a2,s1,a1
    3714:	fffff097          	auipc	ra,0xfffff
    3718:	1fc080e7          	jalr	508(ra) # 2910 <uvmalloc>
    371c:	00050593          	mv	a1,a0
    3720:	fc0516e3          	bnez	a0,36ec <growproc+0x58>
      return -1;
    3724:	fff00513          	li	a0,-1
    3728:	fcdff06f          	j	36f4 <growproc+0x60>
    sz = uvmdealloc(p->pagetable, sz, sz + n);
    372c:	02c92503          	lw	a0,44(s2)
    3730:	00b48633          	add	a2,s1,a1
    3734:	fffff097          	auipc	ra,0xfffff
    3738:	2f8080e7          	jalr	760(ra) # 2a2c <uvmdealloc>
    373c:	00050593          	mv	a1,a0
    3740:	fadff06f          	j	36ec <growproc+0x58>

00003744 <fork>:
{
    3744:	fe010113          	add	sp,sp,-32
    3748:	00812c23          	sw	s0,24(sp)
    374c:	00112e23          	sw	ra,28(sp)
    3750:	00912a23          	sw	s1,20(sp)
    3754:	01212823          	sw	s2,16(sp)
    3758:	01312623          	sw	s3,12(sp)
    375c:	01412423          	sw	s4,8(sp)
    3760:	01512223          	sw	s5,4(sp)
    3764:	02010413          	add	s0,sp,32
  push_off();
    3768:	ffffe097          	auipc	ra,0xffffe
    376c:	e20080e7          	jalr	-480(ra) # 1588 <push_off>
    3770:	00020713          	mv	a4,tp
  struct proc *p = c->proc;
    3774:	00471793          	sll	a5,a4,0x4
    3778:	00e787b3          	add	a5,a5,a4
    377c:	00279793          	sll	a5,a5,0x2
    3780:	00012717          	auipc	a4,0x12
    3784:	d3870713          	add	a4,a4,-712 # 154b8 <cpus>
    3788:	00f707b3          	add	a5,a4,a5
    378c:	0007aa83          	lw	s5,0(a5)
  pop_off();
    3790:	ffffe097          	auipc	ra,0xffffe
    3794:	e6c080e7          	jalr	-404(ra) # 15fc <pop_off>
  if((np = allocproc()) == 0){
    3798:	00000097          	auipc	ra,0x0
    379c:	9f4080e7          	jalr	-1548(ra) # 318c <allocproc>
    37a0:	18050063          	beqz	a0,3920 <fork+0x1dc>
  if(uvmcopy(p->pagetable, np->pagetable, p->sz) < 0){
    37a4:	02c52583          	lw	a1,44(a0)
    37a8:	00050a13          	mv	s4,a0
    37ac:	028aa603          	lw	a2,40(s5) # fffff028 <end+0xfffdb014>
    37b0:	02caa503          	lw	a0,44(s5)
    37b4:	fffff097          	auipc	ra,0xfffff
    37b8:	3b8080e7          	jalr	952(ra) # 2b6c <uvmcopy>
    37bc:	0e054063          	bltz	a0,389c <fork+0x158>
  np->sz = p->sz;
    37c0:	028aa703          	lw	a4,40(s5)
  *(np->tf) = *(p->tf);
    37c4:	030aa783          	lw	a5,48(s5)
    37c8:	030a2883          	lw	a7,48(s4)
  np->sz = p->sz;
    37cc:	02ea2423          	sw	a4,40(s4)
  np->parent = p;
    37d0:	015a2823          	sw	s5,16(s4)
  *(np->tf) = *(p->tf);
    37d4:	00088713          	mv	a4,a7
    37d8:	09078813          	add	a6,a5,144
    37dc:	0007a503          	lw	a0,0(a5)
    37e0:	0047a583          	lw	a1,4(a5)
    37e4:	0087a603          	lw	a2,8(a5)
    37e8:	00c7a683          	lw	a3,12(a5)
    37ec:	00a72023          	sw	a0,0(a4)
    37f0:	00b72223          	sw	a1,4(a4)
    37f4:	00c72423          	sw	a2,8(a4)
    37f8:	00d72623          	sw	a3,12(a4)
    37fc:	01078793          	add	a5,a5,16
    3800:	01070713          	add	a4,a4,16
    3804:	fd079ce3          	bne	a5,a6,37dc <fork+0x98>
  np->tf->a0 = 0;
    3808:	0208ac23          	sw	zero,56(a7)
  for(i = 0; i < NOFILE; i++)
    380c:	06ca8493          	add	s1,s5,108
    3810:	06ca0913          	add	s2,s4,108
    3814:	0aca8993          	add	s3,s5,172
    if(p->ofile[i])
    3818:	0004a503          	lw	a0,0(s1)
  for(i = 0; i < NOFILE; i++)
    381c:	00448493          	add	s1,s1,4
    if(p->ofile[i])
    3820:	00050863          	beqz	a0,3830 <fork+0xec>
      np->ofile[i] = filedup(p->ofile[i]);
    3824:	00004097          	auipc	ra,0x4
    3828:	2b4080e7          	jalr	692(ra) # 7ad8 <filedup>
    382c:	00a92023          	sw	a0,0(s2)
  for(i = 0; i < NOFILE; i++)
    3830:	00490913          	add	s2,s2,4
    3834:	ff3492e3          	bne	s1,s3,3818 <fork+0xd4>
  np->cwd = idup(p->cwd);
    3838:	0acaa503          	lw	a0,172(s5)
    383c:	00002097          	auipc	ra,0x2
    3840:	68c080e7          	jalr	1676(ra) # 5ec8 <idup>
    3844:	0aaa2623          	sw	a0,172(s4)
  safestrcpy(np->name, p->name, sizeof(p->name));
    3848:	01000613          	li	a2,16
    384c:	0b0a8593          	add	a1,s5,176
    3850:	0b0a0513          	add	a0,s4,176
    3854:	ffffe097          	auipc	ra,0xffffe
    3858:	330080e7          	jalr	816(ra) # 1b84 <safestrcpy>
  np->state = RUNNABLE;
    385c:	00200793          	li	a5,2
    3860:	00fa2623          	sw	a5,12(s4)
  release(&np->lock);
    3864:	000a0513          	mv	a0,s4
  pid = np->pid;
    3868:	020a2483          	lw	s1,32(s4)
  release(&np->lock);
    386c:	ffffe097          	auipc	ra,0xffffe
    3870:	a90080e7          	jalr	-1392(ra) # 12fc <release>
}
    3874:	01c12083          	lw	ra,28(sp)
    3878:	01812403          	lw	s0,24(sp)
    387c:	01012903          	lw	s2,16(sp)
    3880:	00c12983          	lw	s3,12(sp)
    3884:	00812a03          	lw	s4,8(sp)
    3888:	00412a83          	lw	s5,4(sp)
    388c:	00048513          	mv	a0,s1
    3890:	01412483          	lw	s1,20(sp)
    3894:	02010113          	add	sp,sp,32
    3898:	00008067          	ret
  if(p->tf)
    389c:	030a2503          	lw	a0,48(s4)
    38a0:	00050663          	beqz	a0,38ac <fork+0x168>
    kfree((void*)p->tf);
    38a4:	ffffd097          	auipc	ra,0xffffd
    38a8:	780080e7          	jalr	1920(ra) # 1024 <kfree>
  if(p->pagetable)
    38ac:	02ca2483          	lw	s1,44(s4)
  p->tf = 0;
    38b0:	020a2823          	sw	zero,48(s4)
  if(p->pagetable)
    38b4:	02048e63          	beqz	s1,38f0 <fork+0x1ac>
    proc_freepagetable(p->pagetable, p->sz);
    38b8:	028a2903          	lw	s2,40(s4)
  uvmunmap(pagetable, TRAMPOLINE, PGSIZE, 0);
    38bc:	00000693          	li	a3,0
    38c0:	00001637          	lui	a2,0x1
    38c4:	fffff5b7          	lui	a1,0xfffff
    38c8:	00048513          	mv	a0,s1
    38cc:	fffff097          	auipc	ra,0xfffff
    38d0:	dc4080e7          	jalr	-572(ra) # 2690 <uvmunmap>
  uvmunmap(pagetable, TRAPFRAME, PGSIZE, 0);
    38d4:	00000693          	li	a3,0
    38d8:	00001637          	lui	a2,0x1
    38dc:	ffffe5b7          	lui	a1,0xffffe
    38e0:	00048513          	mv	a0,s1
    38e4:	fffff097          	auipc	ra,0xfffff
    38e8:	dac080e7          	jalr	-596(ra) # 2690 <uvmunmap>
  if(sz > 0)
    38ec:	02091e63          	bnez	s2,3928 <fork+0x1e4>
  p->pagetable = 0;
    38f0:	020a2623          	sw	zero,44(s4)
  p->sz = 0;
    38f4:	020a2423          	sw	zero,40(s4)
  p->pid = 0;
    38f8:	020a2023          	sw	zero,32(s4)
  p->parent = 0;
    38fc:	000a2823          	sw	zero,16(s4)
  p->name[0] = 0;
    3900:	0a0a0823          	sb	zero,176(s4)
  p->chan = 0;
    3904:	000a2a23          	sw	zero,20(s4)
  p->killed = 0;
    3908:	000a2c23          	sw	zero,24(s4)
  p->xstate = 0;
    390c:	000a2e23          	sw	zero,28(s4)
  p->state = UNUSED;
    3910:	000a2623          	sw	zero,12(s4)
    release(&np->lock);
    3914:	000a0513          	mv	a0,s4
    3918:	ffffe097          	auipc	ra,0xffffe
    391c:	9e4080e7          	jalr	-1564(ra) # 12fc <release>
    return -1;
    3920:	fff00493          	li	s1,-1
    3924:	f51ff06f          	j	3874 <fork+0x130>
    uvmfree(pagetable, sz);
    3928:	00090593          	mv	a1,s2
    392c:	00048513          	mv	a0,s1
    3930:	fffff097          	auipc	ra,0xfffff
    3934:	180080e7          	jalr	384(ra) # 2ab0 <uvmfree>
    3938:	fb9ff06f          	j	38f0 <fork+0x1ac>

0000393c <reparent>:
{
    393c:	fe010113          	add	sp,sp,-32
    3940:	00812c23          	sw	s0,24(sp)
    3944:	00912a23          	sw	s1,20(sp)
    3948:	01212823          	sw	s2,16(sp)
    394c:	01312623          	sw	s3,12(sp)
    3950:	01412423          	sw	s4,8(sp)
    3954:	00112e23          	sw	ra,28(sp)
    3958:	02010413          	add	s0,sp,32
    395c:	00050913          	mv	s2,a0
  for(pp = proc; pp < &proc[NPROC]; pp++){
    3960:	00012497          	auipc	s1,0x12
    3964:	d8448493          	add	s1,s1,-636 # 156e4 <proc>
    3968:	00015997          	auipc	s3,0x15
    396c:	d7c98993          	add	s3,s3,-644 # 186e4 <tickslock>
      pp->parent = initproc;
    3970:	00020a17          	auipc	s4,0x20
    3974:	69ca0a13          	add	s4,s4,1692 # 2400c <initproc>
    3978:	00c0006f          	j	3984 <reparent+0x48>
  for(pp = proc; pp < &proc[NPROC]; pp++){
    397c:	0c048493          	add	s1,s1,192
    3980:	03348a63          	beq	s1,s3,39b4 <reparent+0x78>
    if(pp->parent == p){
    3984:	0104a783          	lw	a5,16(s1)
    3988:	ff279ae3          	bne	a5,s2,397c <reparent+0x40>
      acquire(&pp->lock);
    398c:	00048513          	mv	a0,s1
    3990:	ffffd097          	auipc	ra,0xffffd
    3994:	7e0080e7          	jalr	2016(ra) # 1170 <acquire>
      pp->parent = initproc;
    3998:	000a2783          	lw	a5,0(s4)
      release(&pp->lock);
    399c:	00048513          	mv	a0,s1
  for(pp = proc; pp < &proc[NPROC]; pp++){
    39a0:	0c048493          	add	s1,s1,192
      pp->parent = initproc;
    39a4:	f4f4a823          	sw	a5,-176(s1)
      release(&pp->lock);
    39a8:	ffffe097          	auipc	ra,0xffffe
    39ac:	954080e7          	jalr	-1708(ra) # 12fc <release>
  for(pp = proc; pp < &proc[NPROC]; pp++){
    39b0:	fd349ae3          	bne	s1,s3,3984 <reparent+0x48>
}
    39b4:	01c12083          	lw	ra,28(sp)
    39b8:	01812403          	lw	s0,24(sp)
    39bc:	01412483          	lw	s1,20(sp)
    39c0:	01012903          	lw	s2,16(sp)
    39c4:	00c12983          	lw	s3,12(sp)
    39c8:	00812a03          	lw	s4,8(sp)
    39cc:	02010113          	add	sp,sp,32
    39d0:	00008067          	ret

000039d4 <scheduler>:
{
    39d4:	fe010113          	add	sp,sp,-32
    39d8:	00812c23          	sw	s0,24(sp)
    39dc:	00112e23          	sw	ra,28(sp)
    39e0:	00912a23          	sw	s1,20(sp)
    39e4:	01212823          	sw	s2,16(sp)
    39e8:	01312623          	sw	s3,12(sp)
    39ec:	01412423          	sw	s4,8(sp)
    39f0:	01512223          	sw	s5,4(sp)
    39f4:	01612023          	sw	s6,0(sp)
    39f8:	02010413          	add	s0,sp,32
    39fc:	00020713          	mv	a4,tp
  c->proc = 0;
    3a00:	00471793          	sll	a5,a4,0x4
    3a04:	00e787b3          	add	a5,a5,a4
    3a08:	00012a97          	auipc	s5,0x12
    3a0c:	ab0a8a93          	add	s5,s5,-1360 # 154b8 <cpus>
    3a10:	00279793          	sll	a5,a5,0x2
    3a14:	00fa8a33          	add	s4,s5,a5
        swtch(&c->scheduler, &p->context);
    3a18:	00478793          	add	a5,a5,4
  c->proc = 0;
    3a1c:	000a2023          	sw	zero,0(s4)
        swtch(&c->scheduler, &p->context);
    3a20:	00fa8ab3          	add	s5,s5,a5
    3a24:	00015997          	auipc	s3,0x15
    3a28:	cc098993          	add	s3,s3,-832 # 186e4 <tickslock>
      if(p->state == RUNNABLE) {
    3a2c:	00200913          	li	s2,2
        p->state = RUNNING;
    3a30:	00300b13          	li	s6,3
  asm volatile("csrr %0, sie" : "=r" (x) );
    3a34:	104027f3          	csrr	a5,sie
  w_sie(r_sie() | SIE_SEIE | SIE_STIE | SIE_SSIE);
    3a38:	2227e793          	or	a5,a5,546
  asm volatile("csrw sie, %0" : : "r" (x));
    3a3c:	10479073          	csrw	sie,a5
  asm volatile("csrr %0, sstatus" : "=r" (x) );
    3a40:	100027f3          	csrr	a5,sstatus
  w_sstatus(r_sstatus() | SSTATUS_SIE);
    3a44:	0027e793          	or	a5,a5,2
  asm volatile("csrw sstatus, %0" : : "r" (x));
    3a48:	10079073          	csrw	sstatus,a5
    for(p = proc; p < &proc[NPROC]; p++) {
    3a4c:	00012497          	auipc	s1,0x12
    3a50:	c9848493          	add	s1,s1,-872 # 156e4 <proc>
      acquire(&p->lock);
    3a54:	00048513          	mv	a0,s1
    3a58:	ffffd097          	auipc	ra,0xffffd
    3a5c:	718080e7          	jalr	1816(ra) # 1170 <acquire>
      if(p->state == RUNNABLE) {
    3a60:	00c4a783          	lw	a5,12(s1)
      release(&p->lock);
    3a64:	00048513          	mv	a0,s1
      if(p->state == RUNNABLE) {
    3a68:	03278663          	beq	a5,s2,3a94 <scheduler+0xc0>
    for(p = proc; p < &proc[NPROC]; p++) {
    3a6c:	0c048493          	add	s1,s1,192
      release(&p->lock);
    3a70:	ffffe097          	auipc	ra,0xffffe
    3a74:	88c080e7          	jalr	-1908(ra) # 12fc <release>
    for(p = proc; p < &proc[NPROC]; p++) {
    3a78:	fb348ee3          	beq	s1,s3,3a34 <scheduler+0x60>
      acquire(&p->lock);
    3a7c:	00048513          	mv	a0,s1
    3a80:	ffffd097          	auipc	ra,0xffffd
    3a84:	6f0080e7          	jalr	1776(ra) # 1170 <acquire>
      if(p->state == RUNNABLE) {
    3a88:	00c4a783          	lw	a5,12(s1)
      release(&p->lock);
    3a8c:	00048513          	mv	a0,s1
      if(p->state == RUNNABLE) {
    3a90:	fd279ee3          	bne	a5,s2,3a6c <scheduler+0x98>
        swtch(&c->scheduler, &p->context);
    3a94:	03448593          	add	a1,s1,52
    3a98:	000a8513          	mv	a0,s5
        p->state = RUNNING;
    3a9c:	0164a623          	sw	s6,12(s1)
        c->proc = p;
    3aa0:	009a2023          	sw	s1,0(s4)
        swtch(&c->scheduler, &p->context);
    3aa4:	00001097          	auipc	ra,0x1
    3aa8:	ac8080e7          	jalr	-1336(ra) # 456c <swtch>
      release(&p->lock);
    3aac:	00048513          	mv	a0,s1
    for(p = proc; p < &proc[NPROC]; p++) {
    3ab0:	0c048493          	add	s1,s1,192
        c->proc = 0;
    3ab4:	000a2023          	sw	zero,0(s4)
      release(&p->lock);
    3ab8:	ffffe097          	auipc	ra,0xffffe
    3abc:	844080e7          	jalr	-1980(ra) # 12fc <release>
    for(p = proc; p < &proc[NPROC]; p++) {
    3ac0:	f9349ae3          	bne	s1,s3,3a54 <scheduler+0x80>
    3ac4:	f71ff06f          	j	3a34 <scheduler+0x60>

00003ac8 <sched>:
{
    3ac8:	fe010113          	add	sp,sp,-32
    3acc:	00812c23          	sw	s0,24(sp)
    3ad0:	00112e23          	sw	ra,28(sp)
    3ad4:	00912a23          	sw	s1,20(sp)
    3ad8:	01212823          	sw	s2,16(sp)
    3adc:	01312623          	sw	s3,12(sp)
    3ae0:	02010413          	add	s0,sp,32
  push_off();
    3ae4:	ffffe097          	auipc	ra,0xffffe
    3ae8:	aa4080e7          	jalr	-1372(ra) # 1588 <push_off>
  asm volatile("mv %0, tp" : "=r" (x) );
    3aec:	00020713          	mv	a4,tp
  struct proc *p = c->proc;
    3af0:	00471793          	sll	a5,a4,0x4
    3af4:	00e787b3          	add	a5,a5,a4
    3af8:	00279793          	sll	a5,a5,0x2
    3afc:	00012497          	auipc	s1,0x12
    3b00:	9bc48493          	add	s1,s1,-1604 # 154b8 <cpus>
    3b04:	00f487b3          	add	a5,s1,a5
    3b08:	0007a903          	lw	s2,0(a5)
  pop_off();
    3b0c:	ffffe097          	auipc	ra,0xffffe
    3b10:	af0080e7          	jalr	-1296(ra) # 15fc <pop_off>
  if(!holding(&p->lock))
    3b14:	00090513          	mv	a0,s2
    3b18:	ffffe097          	auipc	ra,0xffffe
    3b1c:	960080e7          	jalr	-1696(ra) # 1478 <holding>
    3b20:	0a050663          	beqz	a0,3bcc <sched+0x104>
    3b24:	00020713          	mv	a4,tp
  if(mycpu()->noff != 1)
    3b28:	00471793          	sll	a5,a4,0x4
    3b2c:	00e787b3          	add	a5,a5,a4
    3b30:	00279793          	sll	a5,a5,0x2
    3b34:	00f487b3          	add	a5,s1,a5
    3b38:	03c7a703          	lw	a4,60(a5)
    3b3c:	00100793          	li	a5,1
    3b40:	0af71e63          	bne	a4,a5,3bfc <sched+0x134>
  if(p->state == RUNNING)
    3b44:	00c92703          	lw	a4,12(s2)
    3b48:	00300793          	li	a5,3
    3b4c:	0af70063          	beq	a4,a5,3bec <sched+0x124>
  asm volatile("csrr %0, sstatus" : "=r" (x) );
    3b50:	100027f3          	csrr	a5,sstatus
  return (x & SSTATUS_SIE) != 0;
    3b54:	0027f793          	and	a5,a5,2
  if(intr_get())
    3b58:	08079263          	bnez	a5,3bdc <sched+0x114>
  asm volatile("mv %0, tp" : "=r" (x) );
    3b5c:	00020713          	mv	a4,tp
  intena = mycpu()->intena;
    3b60:	00471793          	sll	a5,a4,0x4
    3b64:	00e787b3          	add	a5,a5,a4
    3b68:	00279793          	sll	a5,a5,0x2
    3b6c:	00f487b3          	add	a5,s1,a5
    3b70:	0407a983          	lw	s3,64(a5)
    3b74:	00020793          	mv	a5,tp
  swtch(&p->context, &mycpu()->scheduler);
    3b78:	00479593          	sll	a1,a5,0x4
    3b7c:	00f585b3          	add	a1,a1,a5
    3b80:	00259593          	sll	a1,a1,0x2
    3b84:	00458593          	add	a1,a1,4 # ffffe004 <end+0xfffd9ff0>
    3b88:	00b485b3          	add	a1,s1,a1
    3b8c:	03490513          	add	a0,s2,52
    3b90:	00001097          	auipc	ra,0x1
    3b94:	9dc080e7          	jalr	-1572(ra) # 456c <swtch>
    3b98:	00020713          	mv	a4,tp
  mycpu()->intena = intena;
    3b9c:	00471793          	sll	a5,a4,0x4
    3ba0:	00e787b3          	add	a5,a5,a4
}
    3ba4:	01c12083          	lw	ra,28(sp)
    3ba8:	01812403          	lw	s0,24(sp)
  mycpu()->intena = intena;
    3bac:	00279793          	sll	a5,a5,0x2
    3bb0:	00f484b3          	add	s1,s1,a5
    3bb4:	0534a023          	sw	s3,64(s1)
}
    3bb8:	01012903          	lw	s2,16(sp)
    3bbc:	01412483          	lw	s1,20(sp)
    3bc0:	00c12983          	lw	s3,12(sp)
    3bc4:	02010113          	add	sp,sp,32
    3bc8:	00008067          	ret
    panic("sched p->lock");
    3bcc:	00008517          	auipc	a0,0x8
    3bd0:	84c50513          	add	a0,a0,-1972 # b418 <main+0x2e8>
    3bd4:	ffffd097          	auipc	ra,0xffffd
    3bd8:	b00080e7          	jalr	-1280(ra) # 6d4 <panic>
    panic("sched interruptible");
    3bdc:	00008517          	auipc	a0,0x8
    3be0:	86850513          	add	a0,a0,-1944 # b444 <main+0x314>
    3be4:	ffffd097          	auipc	ra,0xffffd
    3be8:	af0080e7          	jalr	-1296(ra) # 6d4 <panic>
    panic("sched running");
    3bec:	00008517          	auipc	a0,0x8
    3bf0:	84850513          	add	a0,a0,-1976 # b434 <main+0x304>
    3bf4:	ffffd097          	auipc	ra,0xffffd
    3bf8:	ae0080e7          	jalr	-1312(ra) # 6d4 <panic>
    panic("sched locks");
    3bfc:	00008517          	auipc	a0,0x8
    3c00:	82c50513          	add	a0,a0,-2004 # b428 <main+0x2f8>
    3c04:	ffffd097          	auipc	ra,0xffffd
    3c08:	ad0080e7          	jalr	-1328(ra) # 6d4 <panic>

00003c0c <exit>:
{
    3c0c:	fe010113          	add	sp,sp,-32
    3c10:	00812c23          	sw	s0,24(sp)
    3c14:	01512223          	sw	s5,4(sp)
    3c18:	00112e23          	sw	ra,28(sp)
    3c1c:	00912a23          	sw	s1,20(sp)
    3c20:	01212823          	sw	s2,16(sp)
    3c24:	01312623          	sw	s3,12(sp)
    3c28:	01412423          	sw	s4,8(sp)
    3c2c:	02010413          	add	s0,sp,32
    3c30:	00050a93          	mv	s5,a0
  push_off();
    3c34:	ffffe097          	auipc	ra,0xffffe
    3c38:	954080e7          	jalr	-1708(ra) # 1588 <push_off>
    3c3c:	00020713          	mv	a4,tp
  struct proc *p = c->proc;
    3c40:	00471793          	sll	a5,a4,0x4
    3c44:	00e787b3          	add	a5,a5,a4
    3c48:	00279793          	sll	a5,a5,0x2
    3c4c:	00012717          	auipc	a4,0x12
    3c50:	86c70713          	add	a4,a4,-1940 # 154b8 <cpus>
    3c54:	00f707b3          	add	a5,a4,a5
    3c58:	0007a983          	lw	s3,0(a5)
  if(p == initproc)
    3c5c:	00020a17          	auipc	s4,0x20
    3c60:	3b0a0a13          	add	s4,s4,944 # 2400c <initproc>
  pop_off();
    3c64:	ffffe097          	auipc	ra,0xffffe
    3c68:	998080e7          	jalr	-1640(ra) # 15fc <pop_off>
  if(p == initproc)
    3c6c:	000a2783          	lw	a5,0(s4)
    3c70:	06c98493          	add	s1,s3,108
    3c74:	0ac98913          	add	s2,s3,172
    3c78:	0f378063          	beq	a5,s3,3d58 <exit+0x14c>
    if(p->ofile[fd]){
    3c7c:	0004a503          	lw	a0,0(s1)
    3c80:	00050863          	beqz	a0,3c90 <exit+0x84>
      fileclose(f);
    3c84:	00004097          	auipc	ra,0x4
    3c88:	ec4080e7          	jalr	-316(ra) # 7b48 <fileclose>
      p->ofile[fd] = 0;
    3c8c:	0004a023          	sw	zero,0(s1)
  for(int fd = 0; fd < NOFILE; fd++){
    3c90:	00448493          	add	s1,s1,4
    3c94:	ff2494e3          	bne	s1,s2,3c7c <exit+0x70>
  begin_op();
    3c98:	00003097          	auipc	ra,0x3
    3c9c:	7ac080e7          	jalr	1964(ra) # 7444 <begin_op>
  iput(p->cwd);
    3ca0:	0ac9a503          	lw	a0,172(s3)
    3ca4:	00002097          	auipc	ra,0x2
    3ca8:	3e0080e7          	jalr	992(ra) # 6084 <iput>
  end_op();
    3cac:	00004097          	auipc	ra,0x4
    3cb0:	834080e7          	jalr	-1996(ra) # 74e0 <end_op>
  acquire(&initproc->lock);
    3cb4:	000a2503          	lw	a0,0(s4)
  p->cwd = 0;
    3cb8:	0a09a623          	sw	zero,172(s3)
  acquire(&initproc->lock);
    3cbc:	ffffd097          	auipc	ra,0xffffd
    3cc0:	4b4080e7          	jalr	1204(ra) # 1170 <acquire>
  wakeup1(initproc);
    3cc4:	000a2503          	lw	a0,0(s4)
    3cc8:	fffff097          	auipc	ra,0xfffff
    3ccc:	45c080e7          	jalr	1116(ra) # 3124 <wakeup1>
  release(&initproc->lock);
    3cd0:	000a2503          	lw	a0,0(s4)
    3cd4:	ffffd097          	auipc	ra,0xffffd
    3cd8:	628080e7          	jalr	1576(ra) # 12fc <release>
  acquire(&p->lock);
    3cdc:	00098513          	mv	a0,s3
    3ce0:	ffffd097          	auipc	ra,0xffffd
    3ce4:	490080e7          	jalr	1168(ra) # 1170 <acquire>
  struct proc *original_parent = p->parent;
    3ce8:	0109a483          	lw	s1,16(s3)
  release(&p->lock);
    3cec:	00098513          	mv	a0,s3
    3cf0:	ffffd097          	auipc	ra,0xffffd
    3cf4:	60c080e7          	jalr	1548(ra) # 12fc <release>
  acquire(&original_parent->lock);
    3cf8:	00048513          	mv	a0,s1
    3cfc:	ffffd097          	auipc	ra,0xffffd
    3d00:	474080e7          	jalr	1140(ra) # 1170 <acquire>
  acquire(&p->lock);
    3d04:	00098513          	mv	a0,s3
    3d08:	ffffd097          	auipc	ra,0xffffd
    3d0c:	468080e7          	jalr	1128(ra) # 1170 <acquire>
  reparent(p);
    3d10:	00098513          	mv	a0,s3
    3d14:	00000097          	auipc	ra,0x0
    3d18:	c28080e7          	jalr	-984(ra) # 393c <reparent>
  wakeup1(original_parent);
    3d1c:	00048513          	mv	a0,s1
    3d20:	fffff097          	auipc	ra,0xfffff
    3d24:	404080e7          	jalr	1028(ra) # 3124 <wakeup1>
  p->state = ZOMBIE;
    3d28:	00400793          	li	a5,4
  release(&original_parent->lock);
    3d2c:	00048513          	mv	a0,s1
  p->state = ZOMBIE;
    3d30:	00f9a623          	sw	a5,12(s3)
  p->xstate = status;
    3d34:	0159ae23          	sw	s5,28(s3)
  release(&original_parent->lock);
    3d38:	ffffd097          	auipc	ra,0xffffd
    3d3c:	5c4080e7          	jalr	1476(ra) # 12fc <release>
  sched();
    3d40:	00000097          	auipc	ra,0x0
    3d44:	d88080e7          	jalr	-632(ra) # 3ac8 <sched>
  panic("zombie exit");
    3d48:	00007517          	auipc	a0,0x7
    3d4c:	72050513          	add	a0,a0,1824 # b468 <main+0x338>
    3d50:	ffffd097          	auipc	ra,0xffffd
    3d54:	984080e7          	jalr	-1660(ra) # 6d4 <panic>
    panic("init exiting");
    3d58:	00007517          	auipc	a0,0x7
    3d5c:	70050513          	add	a0,a0,1792 # b458 <main+0x328>
    3d60:	ffffd097          	auipc	ra,0xffffd
    3d64:	974080e7          	jalr	-1676(ra) # 6d4 <panic>

00003d68 <wait>:
{
    3d68:	fe010113          	add	sp,sp,-32
    3d6c:	00812c23          	sw	s0,24(sp)
    3d70:	01512223          	sw	s5,4(sp)
    3d74:	00112e23          	sw	ra,28(sp)
    3d78:	00912a23          	sw	s1,20(sp)
    3d7c:	01212823          	sw	s2,16(sp)
    3d80:	01312623          	sw	s3,12(sp)
    3d84:	01412423          	sw	s4,8(sp)
    3d88:	01612023          	sw	s6,0(sp)
    3d8c:	02010413          	add	s0,sp,32
    3d90:	00050a93          	mv	s5,a0
  push_off();
    3d94:	ffffd097          	auipc	ra,0xffffd
    3d98:	7f4080e7          	jalr	2036(ra) # 1588 <push_off>
    3d9c:	00020713          	mv	a4,tp
  struct proc *p = c->proc;
    3da0:	00471793          	sll	a5,a4,0x4
    3da4:	00e787b3          	add	a5,a5,a4
    3da8:	00279793          	sll	a5,a5,0x2
    3dac:	00011b17          	auipc	s6,0x11
    3db0:	70cb0b13          	add	s6,s6,1804 # 154b8 <cpus>
    3db4:	00fb07b3          	add	a5,s6,a5
    3db8:	0007a903          	lw	s2,0(a5)
  pop_off();
    3dbc:	ffffe097          	auipc	ra,0xffffe
    3dc0:	840080e7          	jalr	-1984(ra) # 15fc <pop_off>
        if(np->state == ZOMBIE){
    3dc4:	00400a13          	li	s4,4
  acquire(&p->lock);
    3dc8:	00090513          	mv	a0,s2
    for(np = proc; np < &proc[NPROC]; np++){
    3dcc:	00015997          	auipc	s3,0x15
    3dd0:	91898993          	add	s3,s3,-1768 # 186e4 <tickslock>
  acquire(&p->lock);
    3dd4:	ffffd097          	auipc	ra,0xffffd
    3dd8:	39c080e7          	jalr	924(ra) # 1170 <acquire>
    havekids = 0;
    3ddc:	00000713          	li	a4,0
    for(np = proc; np < &proc[NPROC]; np++){
    3de0:	00012497          	auipc	s1,0x12
    3de4:	90448493          	add	s1,s1,-1788 # 156e4 <proc>
    3de8:	00c0006f          	j	3df4 <wait+0x8c>
    3dec:	0c048493          	add	s1,s1,192
    3df0:	03348c63          	beq	s1,s3,3e28 <wait+0xc0>
      if(np->parent == p){
    3df4:	0104a783          	lw	a5,16(s1)
    3df8:	ff279ae3          	bne	a5,s2,3dec <wait+0x84>
        acquire(&np->lock);
    3dfc:	00048513          	mv	a0,s1
    3e00:	ffffd097          	auipc	ra,0xffffd
    3e04:	370080e7          	jalr	880(ra) # 1170 <acquire>
        if(np->state == ZOMBIE){
    3e08:	00c4a783          	lw	a5,12(s1)
        release(&np->lock);
    3e0c:	00048513          	mv	a0,s1
        if(np->state == ZOMBIE){
    3e10:	09478e63          	beq	a5,s4,3eac <wait+0x144>
        release(&np->lock);
    3e14:	ffffd097          	auipc	ra,0xffffd
    3e18:	4e8080e7          	jalr	1256(ra) # 12fc <release>
    for(np = proc; np < &proc[NPROC]; np++){
    3e1c:	0c048493          	add	s1,s1,192
        havekids = 1;
    3e20:	00100713          	li	a4,1
    for(np = proc; np < &proc[NPROC]; np++){
    3e24:	fd3498e3          	bne	s1,s3,3df4 <wait+0x8c>
    if(!havekids || p->killed){
    3e28:	18070a63          	beqz	a4,3fbc <wait+0x254>
    3e2c:	01892783          	lw	a5,24(s2)
    3e30:	18079663          	bnez	a5,3fbc <wait+0x254>
  push_off();
    3e34:	ffffd097          	auipc	ra,0xffffd
    3e38:	754080e7          	jalr	1876(ra) # 1588 <push_off>
    3e3c:	00020713          	mv	a4,tp
  struct proc *p = c->proc;
    3e40:	00471793          	sll	a5,a4,0x4
    3e44:	00e787b3          	add	a5,a5,a4
    3e48:	00279793          	sll	a5,a5,0x2
    3e4c:	00fb07b3          	add	a5,s6,a5
    3e50:	0007a483          	lw	s1,0(a5)
  pop_off();
    3e54:	ffffd097          	auipc	ra,0xffffd
    3e58:	7a8080e7          	jalr	1960(ra) # 15fc <pop_off>
  if(lk != &p->lock){  //DOC: sleeplock0
    3e5c:	12990863          	beq	s2,s1,3f8c <wait+0x224>
    acquire(&p->lock);  //DOC: sleeplock1
    3e60:	00048513          	mv	a0,s1
    3e64:	ffffd097          	auipc	ra,0xffffd
    3e68:	30c080e7          	jalr	780(ra) # 1170 <acquire>
    release(lk);
    3e6c:	00090513          	mv	a0,s2
    3e70:	ffffd097          	auipc	ra,0xffffd
    3e74:	48c080e7          	jalr	1164(ra) # 12fc <release>
  p->state = SLEEPING;
    3e78:	00100793          	li	a5,1
    3e7c:	00f4a623          	sw	a5,12(s1)
  p->chan = chan;
    3e80:	0124aa23          	sw	s2,20(s1)
  sched();
    3e84:	00000097          	auipc	ra,0x0
    3e88:	c44080e7          	jalr	-956(ra) # 3ac8 <sched>
    release(&p->lock);
    3e8c:	00048513          	mv	a0,s1
  p->chan = 0;
    3e90:	0004aa23          	sw	zero,20(s1)
    release(&p->lock);
    3e94:	ffffd097          	auipc	ra,0xffffd
    3e98:	468080e7          	jalr	1128(ra) # 12fc <release>
    acquire(lk);
    3e9c:	00090513          	mv	a0,s2
    3ea0:	ffffd097          	auipc	ra,0xffffd
    3ea4:	2d0080e7          	jalr	720(ra) # 1170 <acquire>
    3ea8:	f35ff06f          	j	3ddc <wait+0x74>
          pid = np->pid;
    3eac:	0204aa03          	lw	s4,32(s1)
          if(addr != 0 && copyout(p->pagetable, addr, (char *)&np->xstate,
    3eb0:	020a8063          	beqz	s5,3ed0 <wait+0x168>
    3eb4:	02c92503          	lw	a0,44(s2)
    3eb8:	00400693          	li	a3,4
    3ebc:	01c48613          	add	a2,s1,28
    3ec0:	000a8593          	mv	a1,s5
    3ec4:	fffff097          	auipc	ra,0xfffff
    3ec8:	e84080e7          	jalr	-380(ra) # 2d48 <copyout>
    3ecc:	10054263          	bltz	a0,3fd0 <wait+0x268>
  if(p->tf)
    3ed0:	0304a503          	lw	a0,48(s1)
    3ed4:	00050663          	beqz	a0,3ee0 <wait+0x178>
    kfree((void*)p->tf);
    3ed8:	ffffd097          	auipc	ra,0xffffd
    3edc:	14c080e7          	jalr	332(ra) # 1024 <kfree>
  if(p->pagetable)
    3ee0:	02c4a983          	lw	s3,44(s1)
  p->tf = 0;
    3ee4:	0204a823          	sw	zero,48(s1)
  if(p->pagetable)
    3ee8:	02098e63          	beqz	s3,3f24 <wait+0x1bc>
    proc_freepagetable(p->pagetable, p->sz);
    3eec:	0284aa83          	lw	s5,40(s1)
  uvmunmap(pagetable, TRAMPOLINE, PGSIZE, 0);
    3ef0:	00000693          	li	a3,0
    3ef4:	00001637          	lui	a2,0x1
    3ef8:	fffff5b7          	lui	a1,0xfffff
    3efc:	00098513          	mv	a0,s3
    3f00:	ffffe097          	auipc	ra,0xffffe
    3f04:	790080e7          	jalr	1936(ra) # 2690 <uvmunmap>
  uvmunmap(pagetable, TRAPFRAME, PGSIZE, 0);
    3f08:	00000693          	li	a3,0
    3f0c:	00001637          	lui	a2,0x1
    3f10:	ffffe5b7          	lui	a1,0xffffe
    3f14:	00098513          	mv	a0,s3
    3f18:	ffffe097          	auipc	ra,0xffffe
    3f1c:	778080e7          	jalr	1912(ra) # 2690 <uvmunmap>
  if(sz > 0)
    3f20:	080a9463          	bnez	s5,3fa8 <wait+0x240>
          release(&np->lock);
    3f24:	00048513          	mv	a0,s1
  p->pagetable = 0;
    3f28:	0204a623          	sw	zero,44(s1)
  p->sz = 0;
    3f2c:	0204a423          	sw	zero,40(s1)
  p->pid = 0;
    3f30:	0204a023          	sw	zero,32(s1)
  p->parent = 0;
    3f34:	0004a823          	sw	zero,16(s1)
  p->name[0] = 0;
    3f38:	0a048823          	sb	zero,176(s1)
  p->chan = 0;
    3f3c:	0004aa23          	sw	zero,20(s1)
  p->killed = 0;
    3f40:	0004ac23          	sw	zero,24(s1)
  p->xstate = 0;
    3f44:	0004ae23          	sw	zero,28(s1)
  p->state = UNUSED;
    3f48:	0004a623          	sw	zero,12(s1)
          release(&np->lock);
    3f4c:	ffffd097          	auipc	ra,0xffffd
    3f50:	3b0080e7          	jalr	944(ra) # 12fc <release>
          release(&p->lock);
    3f54:	00090513          	mv	a0,s2
    3f58:	ffffd097          	auipc	ra,0xffffd
    3f5c:	3a4080e7          	jalr	932(ra) # 12fc <release>
}
    3f60:	01c12083          	lw	ra,28(sp)
    3f64:	01812403          	lw	s0,24(sp)
    3f68:	01412483          	lw	s1,20(sp)
    3f6c:	01012903          	lw	s2,16(sp)
    3f70:	00c12983          	lw	s3,12(sp)
    3f74:	00412a83          	lw	s5,4(sp)
    3f78:	00012b03          	lw	s6,0(sp)
    3f7c:	000a0513          	mv	a0,s4
    3f80:	00812a03          	lw	s4,8(sp)
    3f84:	02010113          	add	sp,sp,32
    3f88:	00008067          	ret
  p->state = SLEEPING;
    3f8c:	00100793          	li	a5,1
  p->chan = chan;
    3f90:	01292a23          	sw	s2,20(s2)
  p->state = SLEEPING;
    3f94:	00f92623          	sw	a5,12(s2)
  sched();
    3f98:	00000097          	auipc	ra,0x0
    3f9c:	b30080e7          	jalr	-1232(ra) # 3ac8 <sched>
  p->chan = 0;
    3fa0:	00092a23          	sw	zero,20(s2)
  if(lk != &p->lock){
    3fa4:	e39ff06f          	j	3ddc <wait+0x74>
    uvmfree(pagetable, sz);
    3fa8:	000a8593          	mv	a1,s5
    3fac:	00098513          	mv	a0,s3
    3fb0:	fffff097          	auipc	ra,0xfffff
    3fb4:	b00080e7          	jalr	-1280(ra) # 2ab0 <uvmfree>
    3fb8:	f6dff06f          	j	3f24 <wait+0x1bc>
      release(&p->lock);
    3fbc:	00090513          	mv	a0,s2
    3fc0:	ffffd097          	auipc	ra,0xffffd
    3fc4:	33c080e7          	jalr	828(ra) # 12fc <release>
            return -1;
    3fc8:	fff00a13          	li	s4,-1
    3fcc:	f95ff06f          	j	3f60 <wait+0x1f8>
            release(&np->lock);
    3fd0:	00048513          	mv	a0,s1
    3fd4:	ffffd097          	auipc	ra,0xffffd
    3fd8:	328080e7          	jalr	808(ra) # 12fc <release>
            release(&p->lock);
    3fdc:	00090513          	mv	a0,s2
    3fe0:	ffffd097          	auipc	ra,0xffffd
    3fe4:	31c080e7          	jalr	796(ra) # 12fc <release>
            return -1;
    3fe8:	fff00a13          	li	s4,-1
    3fec:	f75ff06f          	j	3f60 <wait+0x1f8>

00003ff0 <yield>:
{
    3ff0:	ff010113          	add	sp,sp,-16
    3ff4:	00812423          	sw	s0,8(sp)
    3ff8:	00112623          	sw	ra,12(sp)
    3ffc:	00912223          	sw	s1,4(sp)
    4000:	01010413          	add	s0,sp,16
  push_off();
    4004:	ffffd097          	auipc	ra,0xffffd
    4008:	584080e7          	jalr	1412(ra) # 1588 <push_off>
    400c:	00020713          	mv	a4,tp
  struct proc *p = c->proc;
    4010:	00471793          	sll	a5,a4,0x4
    4014:	00e787b3          	add	a5,a5,a4
    4018:	00279793          	sll	a5,a5,0x2
    401c:	00011717          	auipc	a4,0x11
    4020:	49c70713          	add	a4,a4,1180 # 154b8 <cpus>
    4024:	00f707b3          	add	a5,a4,a5
    4028:	0007a483          	lw	s1,0(a5)
  pop_off();
    402c:	ffffd097          	auipc	ra,0xffffd
    4030:	5d0080e7          	jalr	1488(ra) # 15fc <pop_off>
  acquire(&p->lock);
    4034:	00048513          	mv	a0,s1
    4038:	ffffd097          	auipc	ra,0xffffd
    403c:	138080e7          	jalr	312(ra) # 1170 <acquire>
  p->state = RUNNABLE;
    4040:	00200793          	li	a5,2
    4044:	00f4a623          	sw	a5,12(s1)
  sched();
    4048:	00000097          	auipc	ra,0x0
    404c:	a80080e7          	jalr	-1408(ra) # 3ac8 <sched>
}
    4050:	00812403          	lw	s0,8(sp)
    4054:	00c12083          	lw	ra,12(sp)
  release(&p->lock);
    4058:	00048513          	mv	a0,s1
}
    405c:	00412483          	lw	s1,4(sp)
    4060:	01010113          	add	sp,sp,16
  release(&p->lock);
    4064:	ffffd317          	auipc	t1,0xffffd
    4068:	29830067          	jr	664(t1) # 12fc <release>

0000406c <sleep>:
{
    406c:	fe010113          	add	sp,sp,-32
    4070:	00812c23          	sw	s0,24(sp)
    4074:	01212823          	sw	s2,16(sp)
    4078:	01312623          	sw	s3,12(sp)
    407c:	00112e23          	sw	ra,28(sp)
    4080:	00912a23          	sw	s1,20(sp)
    4084:	02010413          	add	s0,sp,32
    4088:	00050993          	mv	s3,a0
    408c:	00058913          	mv	s2,a1
  push_off();
    4090:	ffffd097          	auipc	ra,0xffffd
    4094:	4f8080e7          	jalr	1272(ra) # 1588 <push_off>
    4098:	00020713          	mv	a4,tp
  struct proc *p = c->proc;
    409c:	00471793          	sll	a5,a4,0x4
    40a0:	00e787b3          	add	a5,a5,a4
    40a4:	00279793          	sll	a5,a5,0x2
    40a8:	00011717          	auipc	a4,0x11
    40ac:	41070713          	add	a4,a4,1040 # 154b8 <cpus>
    40b0:	00f707b3          	add	a5,a4,a5
    40b4:	0007a483          	lw	s1,0(a5)
  pop_off();
    40b8:	ffffd097          	auipc	ra,0xffffd
    40bc:	544080e7          	jalr	1348(ra) # 15fc <pop_off>
  if(lk != &p->lock){  //DOC: sleeplock0
    40c0:	07248263          	beq	s1,s2,4124 <sleep+0xb8>
    acquire(&p->lock);  //DOC: sleeplock1
    40c4:	00048513          	mv	a0,s1
    40c8:	ffffd097          	auipc	ra,0xffffd
    40cc:	0a8080e7          	jalr	168(ra) # 1170 <acquire>
    release(lk);
    40d0:	00090513          	mv	a0,s2
    40d4:	ffffd097          	auipc	ra,0xffffd
    40d8:	228080e7          	jalr	552(ra) # 12fc <release>
  p->state = SLEEPING;
    40dc:	00100793          	li	a5,1
  p->chan = chan;
    40e0:	0134aa23          	sw	s3,20(s1)
  p->state = SLEEPING;
    40e4:	00f4a623          	sw	a5,12(s1)
  sched();
    40e8:	00000097          	auipc	ra,0x0
    40ec:	9e0080e7          	jalr	-1568(ra) # 3ac8 <sched>
    release(&p->lock);
    40f0:	00048513          	mv	a0,s1
  p->chan = 0;
    40f4:	0004aa23          	sw	zero,20(s1)
    release(&p->lock);
    40f8:	ffffd097          	auipc	ra,0xffffd
    40fc:	204080e7          	jalr	516(ra) # 12fc <release>
}
    4100:	01812403          	lw	s0,24(sp)
    4104:	01c12083          	lw	ra,28(sp)
    4108:	01412483          	lw	s1,20(sp)
    410c:	00c12983          	lw	s3,12(sp)
    acquire(lk);
    4110:	00090513          	mv	a0,s2
}
    4114:	01012903          	lw	s2,16(sp)
    4118:	02010113          	add	sp,sp,32
    acquire(lk);
    411c:	ffffd317          	auipc	t1,0xffffd
    4120:	05430067          	jr	84(t1) # 1170 <acquire>
  p->state = SLEEPING;
    4124:	00100793          	li	a5,1
  p->chan = chan;
    4128:	0134aa23          	sw	s3,20(s1)
  p->state = SLEEPING;
    412c:	00f4a623          	sw	a5,12(s1)
  sched();
    4130:	00000097          	auipc	ra,0x0
    4134:	998080e7          	jalr	-1640(ra) # 3ac8 <sched>
}
    4138:	01c12083          	lw	ra,28(sp)
    413c:	01812403          	lw	s0,24(sp)
  p->chan = 0;
    4140:	0004aa23          	sw	zero,20(s1)
}
    4144:	01012903          	lw	s2,16(sp)
    4148:	01412483          	lw	s1,20(sp)
    414c:	00c12983          	lw	s3,12(sp)
    4150:	02010113          	add	sp,sp,32
    4154:	00008067          	ret

00004158 <wakeup>:
{
    4158:	fe010113          	add	sp,sp,-32
    415c:	00812c23          	sw	s0,24(sp)
    4160:	00912a23          	sw	s1,20(sp)
    4164:	01212823          	sw	s2,16(sp)
    4168:	01312623          	sw	s3,12(sp)
    416c:	01412423          	sw	s4,8(sp)
    4170:	01512223          	sw	s5,4(sp)
    4174:	00112e23          	sw	ra,28(sp)
    4178:	02010413          	add	s0,sp,32
    417c:	00050a13          	mv	s4,a0
  for(p = proc; p < &proc[NPROC]; p++) {
    4180:	00011497          	auipc	s1,0x11
    4184:	56448493          	add	s1,s1,1380 # 156e4 <proc>
    4188:	00014997          	auipc	s3,0x14
    418c:	55c98993          	add	s3,s3,1372 # 186e4 <tickslock>
    if(p->state == SLEEPING && p->chan == chan) {
    4190:	00100913          	li	s2,1
      p->state = RUNNABLE;
    4194:	00200a93          	li	s5,2
    4198:	0140006f          	j	41ac <wakeup+0x54>
  for(p = proc; p < &proc[NPROC]; p++) {
    419c:	0c048493          	add	s1,s1,192
    release(&p->lock);
    41a0:	ffffd097          	auipc	ra,0xffffd
    41a4:	15c080e7          	jalr	348(ra) # 12fc <release>
  for(p = proc; p < &proc[NPROC]; p++) {
    41a8:	03348c63          	beq	s1,s3,41e0 <wakeup+0x88>
    acquire(&p->lock);
    41ac:	00048513          	mv	a0,s1
    41b0:	ffffd097          	auipc	ra,0xffffd
    41b4:	fc0080e7          	jalr	-64(ra) # 1170 <acquire>
    if(p->state == SLEEPING && p->chan == chan) {
    41b8:	00c4a783          	lw	a5,12(s1)
    release(&p->lock);
    41bc:	00048513          	mv	a0,s1
    if(p->state == SLEEPING && p->chan == chan) {
    41c0:	fd279ee3          	bne	a5,s2,419c <wakeup+0x44>
    41c4:	0144a783          	lw	a5,20(s1)
    41c8:	fd479ae3          	bne	a5,s4,419c <wakeup+0x44>
      p->state = RUNNABLE;
    41cc:	0154a623          	sw	s5,12(s1)
  for(p = proc; p < &proc[NPROC]; p++) {
    41d0:	0c048493          	add	s1,s1,192
    release(&p->lock);
    41d4:	ffffd097          	auipc	ra,0xffffd
    41d8:	128080e7          	jalr	296(ra) # 12fc <release>
  for(p = proc; p < &proc[NPROC]; p++) {
    41dc:	fd3498e3          	bne	s1,s3,41ac <wakeup+0x54>
}
    41e0:	01c12083          	lw	ra,28(sp)
    41e4:	01812403          	lw	s0,24(sp)
    41e8:	01412483          	lw	s1,20(sp)
    41ec:	01012903          	lw	s2,16(sp)
    41f0:	00c12983          	lw	s3,12(sp)
    41f4:	00812a03          	lw	s4,8(sp)
    41f8:	00412a83          	lw	s5,4(sp)
    41fc:	02010113          	add	sp,sp,32
    4200:	00008067          	ret

00004204 <kill>:
// Kill the process with the given pid.
// The victim won't exit until it tries to return
// to user space (see usertrap() in trap.c).
int
kill(int pid)
{
    4204:	fe010113          	add	sp,sp,-32
    4208:	00812c23          	sw	s0,24(sp)
    420c:	00912a23          	sw	s1,20(sp)
    4210:	01212823          	sw	s2,16(sp)
    4214:	01312623          	sw	s3,12(sp)
    4218:	00112e23          	sw	ra,28(sp)
    421c:	02010413          	add	s0,sp,32
    4220:	00050913          	mv	s2,a0
  struct proc *p;

  for(p = proc; p < &proc[NPROC]; p++){
    4224:	00011497          	auipc	s1,0x11
    4228:	4c048493          	add	s1,s1,1216 # 156e4 <proc>
    422c:	00014997          	auipc	s3,0x14
    4230:	4b898993          	add	s3,s3,1208 # 186e4 <tickslock>
    4234:	0140006f          	j	4248 <kill+0x44>
    4238:	0c048493          	add	s1,s1,192
        p->state = RUNNABLE;
      }
      release(&p->lock);
      return 0;
    }
    release(&p->lock);
    423c:	ffffd097          	auipc	ra,0xffffd
    4240:	0c0080e7          	jalr	192(ra) # 12fc <release>
  for(p = proc; p < &proc[NPROC]; p++){
    4244:	07348063          	beq	s1,s3,42a4 <kill+0xa0>
    acquire(&p->lock);
    4248:	00048513          	mv	a0,s1
    424c:	ffffd097          	auipc	ra,0xffffd
    4250:	f24080e7          	jalr	-220(ra) # 1170 <acquire>
    if(p->pid == pid){
    4254:	0204a783          	lw	a5,32(s1)
    release(&p->lock);
    4258:	00048513          	mv	a0,s1
    if(p->pid == pid){
    425c:	fd279ee3          	bne	a5,s2,4238 <kill+0x34>
      if(p->state == SLEEPING){
    4260:	00c4a703          	lw	a4,12(s1)
      p->killed = 1;
    4264:	00100793          	li	a5,1
    4268:	00f4ac23          	sw	a5,24(s1)
      if(p->state == SLEEPING){
    426c:	00f71663          	bne	a4,a5,4278 <kill+0x74>
        p->state = RUNNABLE;
    4270:	00200793          	li	a5,2
    4274:	00f4a623          	sw	a5,12(s1)
      release(&p->lock);
    4278:	00048513          	mv	a0,s1
    427c:	ffffd097          	auipc	ra,0xffffd
    4280:	080080e7          	jalr	128(ra) # 12fc <release>
  }
  return -1;
}
    4284:	01c12083          	lw	ra,28(sp)
    4288:	01812403          	lw	s0,24(sp)
    428c:	01412483          	lw	s1,20(sp)
    4290:	01012903          	lw	s2,16(sp)
    4294:	00c12983          	lw	s3,12(sp)
      return 0;
    4298:	00000513          	li	a0,0
}
    429c:	02010113          	add	sp,sp,32
    42a0:	00008067          	ret
    42a4:	01c12083          	lw	ra,28(sp)
    42a8:	01812403          	lw	s0,24(sp)
    42ac:	01412483          	lw	s1,20(sp)
    42b0:	01012903          	lw	s2,16(sp)
    42b4:	00c12983          	lw	s3,12(sp)
  return -1;
    42b8:	fff00513          	li	a0,-1
}
    42bc:	02010113          	add	sp,sp,32
    42c0:	00008067          	ret

000042c4 <either_copyout>:
// Copy to either a user address, or kernel address,
// depending on usr_dst.
// Returns 0 on success, -1 on error.
int
either_copyout(int user_dst, uint32 dst, void *src, uint32 len)
{
    42c4:	fe010113          	add	sp,sp,-32
    42c8:	00812c23          	sw	s0,24(sp)
    42cc:	00912a23          	sw	s1,20(sp)
    42d0:	01212823          	sw	s2,16(sp)
    42d4:	01312623          	sw	s3,12(sp)
    42d8:	01412423          	sw	s4,8(sp)
    42dc:	00112e23          	sw	ra,28(sp)
    42e0:	01512223          	sw	s5,4(sp)
    42e4:	02010413          	add	s0,sp,32
    42e8:	00050a13          	mv	s4,a0
    42ec:	00058493          	mv	s1,a1
    42f0:	00060913          	mv	s2,a2
    42f4:	00068993          	mv	s3,a3
  push_off();
    42f8:	ffffd097          	auipc	ra,0xffffd
    42fc:	290080e7          	jalr	656(ra) # 1588 <push_off>
    4300:	00020713          	mv	a4,tp
  struct proc *p = c->proc;
    4304:	00471793          	sll	a5,a4,0x4
    4308:	00e787b3          	add	a5,a5,a4
    430c:	00279793          	sll	a5,a5,0x2
    4310:	00011717          	auipc	a4,0x11
    4314:	1a870713          	add	a4,a4,424 # 154b8 <cpus>
    4318:	00f707b3          	add	a5,a4,a5
    431c:	0007aa83          	lw	s5,0(a5)
  pop_off();
    4320:	ffffd097          	auipc	ra,0xffffd
    4324:	2dc080e7          	jalr	732(ra) # 15fc <pop_off>
  struct proc *p = myproc();
  if(user_dst){
    4328:	020a0e63          	beqz	s4,4364 <either_copyout+0xa0>
    return copyout(p->pagetable, dst, src, len);
  } else {
    memmove((char *)dst, src, len);
    return 0;
  }
}
    432c:	01812403          	lw	s0,24(sp)
    return copyout(p->pagetable, dst, src, len);
    4330:	02caa503          	lw	a0,44(s5)
}
    4334:	01c12083          	lw	ra,28(sp)
    4338:	00812a03          	lw	s4,8(sp)
    433c:	00412a83          	lw	s5,4(sp)
    return copyout(p->pagetable, dst, src, len);
    4340:	00098693          	mv	a3,s3
    4344:	00090613          	mv	a2,s2
}
    4348:	00c12983          	lw	s3,12(sp)
    434c:	01012903          	lw	s2,16(sp)
    return copyout(p->pagetable, dst, src, len);
    4350:	00048593          	mv	a1,s1
}
    4354:	01412483          	lw	s1,20(sp)
    4358:	02010113          	add	sp,sp,32
    return copyout(p->pagetable, dst, src, len);
    435c:	fffff317          	auipc	t1,0xfffff
    4360:	9ec30067          	jr	-1556(t1) # 2d48 <copyout>
    memmove((char *)dst, src, len);
    4364:	00098613          	mv	a2,s3
    4368:	00090593          	mv	a1,s2
    436c:	00048513          	mv	a0,s1
    4370:	ffffd097          	auipc	ra,0xffffd
    4374:	494080e7          	jalr	1172(ra) # 1804 <memmove>
}
    4378:	01c12083          	lw	ra,28(sp)
    437c:	01812403          	lw	s0,24(sp)
    4380:	01412483          	lw	s1,20(sp)
    4384:	01012903          	lw	s2,16(sp)
    4388:	00c12983          	lw	s3,12(sp)
    438c:	00812a03          	lw	s4,8(sp)
    4390:	00412a83          	lw	s5,4(sp)
    4394:	00000513          	li	a0,0
    4398:	02010113          	add	sp,sp,32
    439c:	00008067          	ret

000043a0 <either_copyin>:
// Copy from either a user address, or kernel address,
// depending on usr_src.
// Returns 0 on success, -1 on error.
int
either_copyin(void *dst, int user_src, uint32 src, uint32 len)
{
    43a0:	fe010113          	add	sp,sp,-32
    43a4:	00812c23          	sw	s0,24(sp)
