
temp.elf:     file format elf32-littleriscv


Disassembly of section .text:

00000000 <main>:
   0:	fe010113          	add	sp,sp,-32
   4:	00112e23          	sw	ra,28(sp)
   8:	00812c23          	sw	s0,24(sp)
   c:	02010413          	add	s0,sp,32
  10:	2ec000ef          	jal	2fc <r_time>
  14:	fea42623          	sw	a0,-20(s0)
  18:	fec42503          	lw	a0,-20(s0)
  1c:	1cc000ef          	jal	1e8 <send_uint>
  20:	07500513          	li	a0,117
  24:	028000ef          	jal	4c <uart_send_char>
  28:	07300513          	li	a0,115
  2c:	020000ef          	jal	4c <uart_send_char>
  30:	06500513          	li	a0,101
  34:	018000ef          	jal	4c <uart_send_char>
  38:	06300513          	li	a0,99
  3c:	010000ef          	jal	4c <uart_send_char>
  40:	00a00513          	li	a0,10
  44:	008000ef          	jal	4c <uart_send_char>
  48:	fc9ff06f          	j	10 <main+0x10>

0000004c <uart_send_char>:
  4c:	fe010113          	add	sp,sp,-32
  50:	00812e23          	sw	s0,28(sp)
  54:	02010413          	add	s0,sp,32
  58:	00050793          	mv	a5,a0
  5c:	fef407a3          	sb	a5,-17(s0)
  60:	ff0007b7          	lui	a5,0xff000
  64:	fef44703          	lbu	a4,-17(s0)
  68:	00e7a023          	sw	a4,0(a5) # ff000000 <_end+0xfefffcdc>
  6c:	00000013          	nop
  70:	01c12403          	lw	s0,28(sp)
  74:	02010113          	add	sp,sp,32
  78:	00008067          	ret

0000007c <send_int>:
  7c:	fb010113          	add	sp,sp,-80
  80:	04112623          	sw	ra,76(sp)
  84:	04812423          	sw	s0,72(sp)
  88:	05010413          	add	s0,sp,80
  8c:	faa42e23          	sw	a0,-68(s0)
  90:	00100793          	li	a5,1
  94:	fef42623          	sw	a5,-20(s0)
  98:	fbc42783          	lw	a5,-68(s0)
  9c:	01f7d793          	srl	a5,a5,0x1f
  a0:	0ff7f793          	zext.b	a5,a5
  a4:	fcf42e23          	sw	a5,-36(s0)
  a8:	02d00793          	li	a5,45
  ac:	fcf40623          	sb	a5,-52(s0)
  b0:	fdc42783          	lw	a5,-36(s0)
  b4:	00078863          	beqz	a5,c4 <send_int+0x48>
  b8:	fec42783          	lw	a5,-20(s0)
  bc:	00178793          	add	a5,a5,1
  c0:	fef42623          	sw	a5,-20(s0)
  c4:	fbc42783          	lw	a5,-68(s0)
  c8:	fef42423          	sw	a5,-24(s0)
  cc:	0200006f          	j	ec <send_int+0x70>
  d0:	fec42783          	lw	a5,-20(s0)
  d4:	00178793          	add	a5,a5,1
  d8:	fef42623          	sw	a5,-20(s0)
  dc:	fe842703          	lw	a4,-24(s0)
  e0:	00a00793          	li	a5,10
  e4:	02f747b3          	div	a5,a4,a5
  e8:	fef42423          	sw	a5,-24(s0)
  ec:	fe842703          	lw	a4,-24(s0)
  f0:	00900793          	li	a5,9
  f4:	fce7cee3          	blt	a5,a4,d0 <send_int+0x54>
  f8:	fe842703          	lw	a4,-24(s0)
  fc:	ff700793          	li	a5,-9
 100:	fcf748e3          	blt	a4,a5,d0 <send_int+0x54>
 104:	fbc42783          	lw	a5,-68(s0)
 108:	fef42423          	sw	a5,-24(s0)
 10c:	fe042223          	sw	zero,-28(s0)
 110:	0740006f          	j	184 <send_int+0x108>
 114:	fe842703          	lw	a4,-24(s0)
 118:	00a00793          	li	a5,10
 11c:	02f767b3          	rem	a5,a4,a5
 120:	fcf42c23          	sw	a5,-40(s0)
 124:	fd842783          	lw	a5,-40(s0)
 128:	41f7d793          	sra	a5,a5,0x1f
 12c:	fd842703          	lw	a4,-40(s0)
 130:	00f74733          	xor	a4,a4,a5
 134:	40f707b3          	sub	a5,a4,a5
 138:	fcf42c23          	sw	a5,-40(s0)
 13c:	fd842783          	lw	a5,-40(s0)
 140:	0ff7f713          	zext.b	a4,a5
 144:	fec42683          	lw	a3,-20(s0)
 148:	fe442783          	lw	a5,-28(s0)
 14c:	40f687b3          	sub	a5,a3,a5
 150:	fff78793          	add	a5,a5,-1
 154:	03070713          	add	a4,a4,48
 158:	0ff77713          	zext.b	a4,a4
 15c:	ff078793          	add	a5,a5,-16
 160:	008787b3          	add	a5,a5,s0
 164:	fce78e23          	sb	a4,-36(a5)
 168:	fe842703          	lw	a4,-24(s0)
 16c:	00a00793          	li	a5,10
 170:	02f747b3          	div	a5,a4,a5
 174:	fef42423          	sw	a5,-24(s0)
 178:	fe442783          	lw	a5,-28(s0)
 17c:	00178793          	add	a5,a5,1
 180:	fef42223          	sw	a5,-28(s0)
 184:	fec42703          	lw	a4,-20(s0)
 188:	fdc42783          	lw	a5,-36(s0)
 18c:	40f707b3          	sub	a5,a4,a5
 190:	fe442703          	lw	a4,-28(s0)
 194:	f8f740e3          	blt	a4,a5,114 <send_int+0x98>
 198:	fe042023          	sw	zero,-32(s0)
 19c:	0280006f          	j	1c4 <send_int+0x148>
 1a0:	fe042783          	lw	a5,-32(s0)
 1a4:	ff078793          	add	a5,a5,-16
 1a8:	008787b3          	add	a5,a5,s0
 1ac:	fdc7c783          	lbu	a5,-36(a5)
 1b0:	00078513          	mv	a0,a5
 1b4:	e99ff0ef          	jal	4c <uart_send_char>
 1b8:	fe042783          	lw	a5,-32(s0)
 1bc:	00178793          	add	a5,a5,1
 1c0:	fef42023          	sw	a5,-32(s0)
 1c4:	fe042703          	lw	a4,-32(s0)
 1c8:	fec42783          	lw	a5,-20(s0)
 1cc:	fcf74ae3          	blt	a4,a5,1a0 <send_int+0x124>
 1d0:	00000013          	nop
 1d4:	00000013          	nop
 1d8:	04c12083          	lw	ra,76(sp)
 1dc:	04812403          	lw	s0,72(sp)
 1e0:	05010113          	add	sp,sp,80
 1e4:	00008067          	ret

000001e8 <send_uint>:
 1e8:	fc010113          	add	sp,sp,-64
 1ec:	02112e23          	sw	ra,60(sp)
 1f0:	02812c23          	sw	s0,56(sp)
 1f4:	04010413          	add	s0,sp,64
 1f8:	fca42623          	sw	a0,-52(s0)
 1fc:	00100793          	li	a5,1
 200:	fef42623          	sw	a5,-20(s0)
 204:	fcc42783          	lw	a5,-52(s0)
 208:	fef42423          	sw	a5,-24(s0)
 20c:	0200006f          	j	22c <send_uint+0x44>
 210:	fec42783          	lw	a5,-20(s0)
 214:	00178793          	add	a5,a5,1
 218:	fef42623          	sw	a5,-20(s0)
 21c:	fe842703          	lw	a4,-24(s0)
 220:	00a00793          	li	a5,10
 224:	02f747b3          	div	a5,a4,a5
 228:	fef42423          	sw	a5,-24(s0)
 22c:	fe842703          	lw	a4,-24(s0)
 230:	00900793          	li	a5,9
 234:	fce7cee3          	blt	a5,a4,210 <send_uint+0x28>
 238:	fcc42783          	lw	a5,-52(s0)
 23c:	fef42423          	sw	a5,-24(s0)
 240:	fe042223          	sw	zero,-28(s0)
 244:	05c0006f          	j	2a0 <send_uint+0xb8>
 248:	fe842703          	lw	a4,-24(s0)
 24c:	00a00793          	li	a5,10
 250:	02f767b3          	rem	a5,a4,a5
 254:	fcf42e23          	sw	a5,-36(s0)
 258:	fdc42783          	lw	a5,-36(s0)
 25c:	0ff7f713          	zext.b	a4,a5
 260:	fec42683          	lw	a3,-20(s0)
 264:	fe442783          	lw	a5,-28(s0)
 268:	40f687b3          	sub	a5,a3,a5
 26c:	fff78793          	add	a5,a5,-1
 270:	03070713          	add	a4,a4,48
 274:	0ff77713          	zext.b	a4,a4
 278:	ff078793          	add	a5,a5,-16
 27c:	008787b3          	add	a5,a5,s0
 280:	fee78023          	sb	a4,-32(a5)
 284:	fe842703          	lw	a4,-24(s0)
 288:	00a00793          	li	a5,10
 28c:	02f747b3          	div	a5,a4,a5
 290:	fef42423          	sw	a5,-24(s0)
 294:	fe442783          	lw	a5,-28(s0)
 298:	00178793          	add	a5,a5,1
 29c:	fef42223          	sw	a5,-28(s0)
 2a0:	fe442703          	lw	a4,-28(s0)
 2a4:	fec42783          	lw	a5,-20(s0)
 2a8:	faf740e3          	blt	a4,a5,248 <send_uint+0x60>
 2ac:	fe042023          	sw	zero,-32(s0)
 2b0:	0280006f          	j	2d8 <send_uint+0xf0>
 2b4:	fe042783          	lw	a5,-32(s0)
 2b8:	ff078793          	add	a5,a5,-16
 2bc:	008787b3          	add	a5,a5,s0
 2c0:	fe07c783          	lbu	a5,-32(a5)
 2c4:	00078513          	mv	a0,a5
 2c8:	d85ff0ef          	jal	4c <uart_send_char>
 2cc:	fe042783          	lw	a5,-32(s0)
 2d0:	00178793          	add	a5,a5,1
 2d4:	fef42023          	sw	a5,-32(s0)
 2d8:	fe042703          	lw	a4,-32(s0)
 2dc:	fec42783          	lw	a5,-20(s0)
 2e0:	fcf74ae3          	blt	a4,a5,2b4 <send_uint+0xcc>
 2e4:	00000013          	nop
 2e8:	00000013          	nop
 2ec:	03c12083          	lw	ra,60(sp)
 2f0:	03812403          	lw	s0,56(sp)
 2f4:	04010113          	add	sp,sp,64
 2f8:	00008067          	ret

000002fc <r_time>:
 2fc:	fe010113          	add	sp,sp,-32
 300:	00812e23          	sw	s0,28(sp)
 304:	02010413          	add	s0,sp,32
 308:	c01027f3          	rdtime	a5
 30c:	fef42623          	sw	a5,-20(s0)
 310:	fec42783          	lw	a5,-20(s0)
 314:	00078513          	mv	a0,a5
 318:	01c12403          	lw	s0,28(sp)
 31c:	02010113          	add	sp,sp,32
 320:	00008067          	ret
