
kernel/kernel:     file format elf32-littleriscv


Disassembly of section .text:

00000000 <_entry>:
       0:	0000a117          	auipc	sp,0xa
       4:	40010113          	add	sp,sp,1024 # a400 <stack0>
       8:	00001537          	lui	a0,0x1
       c:	f14025f3          	csrr	a1,mhartid
      10:	00158593          	add	a1,a1,1
      14:	02b50533          	mul	a0,a0,a1
      18:	00a10133          	add	sp,sp,a0
      1c:	098000ef          	jal	b4 <start>

00000020 <junk>:
      20:	0000006f          	j	20 <junk>

00000024 <timerinit>:
// which arrive at timervec in kernelvec.S,
// which turns them into software interrupts for
// devintr() in trap.c.
void
timerinit()
{
      24:	ff010113          	add	sp,sp,-16
      28:	00812623          	sw	s0,12(sp)
      2c:	01010413          	add	s0,sp,16
// which hart (core) is this?
static inline uint32
r_mhartid()
{
  uint32 x;
  asm volatile("csrr %0, mhartid" : "=r" (x) );
      30:	f1402673          	csrr	a2,mhartid
  // each CPU has a separate source of timer interrupts.
  int id = r_mhartid();

  // ask the CLINT for a timer interrupt.
  uint32 interval = 100000; // cycles; about 1/10th second in qemu.
  *(uint64*)CLINT_MTIMECMP(id) = *(uint64*)CLINT_MTIME + interval;
      34:	00160793          	add	a5,a2,1
      38:	00379793          	sll	a5,a5,0x3
      3c:	f00006b7          	lui	a3,0xf0000
      40:	00d787b3          	add	a5,a5,a3
      44:	0006a703          	lw	a4,0(a3) # f0000000 <end+0xeffdefec>
      48:	0046a503          	lw	a0,4(a3)
      4c:	000186b7          	lui	a3,0x18
      50:	6a068693          	add	a3,a3,1696 # 186a0 <bcache+0x2fb0>
      54:	00d705b3          	add	a1,a4,a3
      58:	00e5b733          	sltu	a4,a1,a4
      5c:	00a70733          	add	a4,a4,a0
      60:	00b7a023          	sw	a1,0(a5)
      64:	00e7a223          	sw	a4,4(a5)

  // prepare information in scratch[] for timervec.
  // scratch[0..3] : space for timervec to save registers.
  // scratch[4] : address of CLINT MTIMECMP register.
  // scratch[5] : desired interval (in cycles) between timer interrupts.
  uint32 *scratch = &mscratch0[32 * id];
      68:	00761613          	sll	a2,a2,0x7
      6c:	0000a717          	auipc	a4,0xa
      70:	f9470713          	add	a4,a4,-108 # a000 <mscratch0>
      74:	00c70733          	add	a4,a4,a2
  scratch[4] = CLINT_MTIMECMP(id);
      78:	00f72823          	sw	a5,16(a4)
  scratch[5] = interval;
      7c:	00d72a23          	sw	a3,20(a4)
}

static inline void 
w_mscratch(uint32 x)
{
  asm volatile("csrw mscratch, %0" : : "r" (x));
      80:	34071073          	csrw	mscratch,a4
  asm volatile("csrw mtvec, %0" : : "r" (x));
      84:	00008797          	auipc	a5,0x8
      88:	80c78793          	add	a5,a5,-2036 # 7890 <timervec>
      8c:	30579073          	csrw	mtvec,a5
  asm volatile("csrr %0, mstatus" : "=r" (x) );
      90:	300027f3          	csrr	a5,mstatus

  // set the machine-mode trap handler.
  w_mtvec((uint32)timervec);

  // enable machine-mode interrupts.
  w_mstatus(r_mstatus() | MSTATUS_MIE);
      94:	0087e793          	or	a5,a5,8
  asm volatile("csrw mstatus, %0" : : "r" (x));
      98:	30079073          	csrw	mstatus,a5
  asm volatile("csrr %0, mie" : "=r" (x) );
      9c:	304027f3          	csrr	a5,mie

  // enable machine-mode timer interrupts.
  #define MIE_SEIE (1 << 9)
  w_mie(r_mie() | MIE_MTIE | MIE_SEIE);
      a0:	2807e793          	or	a5,a5,640
  asm volatile("csrw mie, %0" : : "r" (x));
      a4:	30479073          	csrw	mie,a5
}
      a8:	00c12403          	lw	s0,12(sp)
      ac:	01010113          	add	sp,sp,16
      b0:	00008067          	ret

000000b4 <start>:
{
      b4:	ff010113          	add	sp,sp,-16
      b8:	00112623          	sw	ra,12(sp)
      bc:	00812423          	sw	s0,8(sp)
      c0:	01010413          	add	s0,sp,16
  asm volatile("csrr %0, mstatus" : "=r" (x) );
      c4:	300027f3          	csrr	a5,mstatus
  x &= ~MSTATUS_MPP_MASK;
      c8:	ffffe737          	lui	a4,0xffffe
      cc:	7ff70713          	add	a4,a4,2047 # ffffe7ff <end+0xfffdd7eb>
      d0:	00e7f7b3          	and	a5,a5,a4
  x |= MSTATUS_MPP_S;
      d4:	00001737          	lui	a4,0x1
      d8:	80070713          	add	a4,a4,-2048 # 800 <printf+0x118>
      dc:	00e7e7b3          	or	a5,a5,a4
  asm volatile("csrw mstatus, %0" : : "r" (x));
      e0:	30079073          	csrw	mstatus,a5
  asm volatile("csrw mepc, %0" : : "r" (x));
      e4:	00001797          	auipc	a5,0x1
      e8:	fe078793          	add	a5,a5,-32 # 10c4 <main>
      ec:	34179073          	csrw	mepc,a5
  asm volatile("csrw satp, %0" : : "r" (x));
      f0:	00000793          	li	a5,0
      f4:	18079073          	csrw	satp,a5
  asm volatile("csrw medeleg, %0" : : "r" (x));
      f8:	000107b7          	lui	a5,0x10
      fc:	fff78793          	add	a5,a5,-1 # ffff <stack0+0x5bff>
     100:	30279073          	csrw	medeleg,a5
  asm volatile("csrw mideleg, %0" : : "r" (x));
     104:	30379073          	csrw	mideleg,a5
  timerinit();
     108:	00000097          	auipc	ra,0x0
     10c:	f1c080e7          	jalr	-228(ra) # 24 <timerinit>
  asm volatile("csrr %0, mhartid" : "=r" (x) );
     110:	f14027f3          	csrr	a5,mhartid
}

static inline void 
w_tp(uint32 x)
{
  asm volatile("mv tp, %0" : : "r" (x));
     114:	00078213          	mv	tp,a5
  asm volatile("mret");
     118:	30200073          	mret
}
     11c:	00c12083          	lw	ra,12(sp)
     120:	00812403          	lw	s0,8(sp)
     124:	01010113          	add	sp,sp,16
     128:	00008067          	ret

0000012c <consoleread>:
// user_dist indicates whether dst is a user
// or kernel address.
//
int
consoleread(int user_dst, uint32 dst, int n)
{
     12c:	fc010113          	add	sp,sp,-64
     130:	02112e23          	sw	ra,60(sp)
     134:	02812c23          	sw	s0,56(sp)
     138:	02912a23          	sw	s1,52(sp)
     13c:	03212823          	sw	s2,48(sp)
     140:	03312623          	sw	s3,44(sp)
     144:	03412423          	sw	s4,40(sp)
     148:	03512223          	sw	s5,36(sp)
     14c:	03612023          	sw	s6,32(sp)
     150:	01712e23          	sw	s7,28(sp)
     154:	04010413          	add	s0,sp,64
     158:	00050b13          	mv	s6,a0
     15c:	00058a93          	mv	s5,a1
     160:	00060993          	mv	s3,a2
  uint target;
  int c;
  char cbuf;

  target = n;
     164:	00060a13          	mv	s4,a2
  acquire(&cons.lock);
     168:	00012517          	auipc	a0,0x12
     16c:	29850513          	add	a0,a0,664 # 12400 <cons>
     170:	00001097          	auipc	ra,0x1
     174:	c34080e7          	jalr	-972(ra) # da4 <acquire>
  while(n > 0){
    // wait until interrupt handler has put some
    // input into cons.buffer.
    while(cons.r == cons.w){
     178:	00012497          	auipc	s1,0x12
     17c:	28848493          	add	s1,s1,648 # 12400 <cons>
      if(myproc()->killed){
        release(&cons.lock);
        return -1;
      }
      sleep(&cons.r, &cons.lock);
     180:	00012917          	auipc	s2,0x12
     184:	30c90913          	add	s2,s2,780 # 1248c <cons+0x8c>
  while(n > 0){
     188:	09305c63          	blez	s3,220 <consoleread+0xf4>
    while(cons.r == cons.w){
     18c:	08c4a783          	lw	a5,140(s1)
     190:	0904a703          	lw	a4,144(s1)
     194:	02e79863          	bne	a5,a4,1c4 <consoleread+0x98>
      if(myproc()->killed){
     198:	00002097          	auipc	ra,0x2
     19c:	f38080e7          	jalr	-200(ra) # 20d0 <myproc>
     1a0:	01852783          	lw	a5,24(a0)
     1a4:	08079a63          	bnez	a5,238 <consoleread+0x10c>
      sleep(&cons.r, &cons.lock);
     1a8:	00048593          	mv	a1,s1
     1ac:	00090513          	mv	a0,s2
     1b0:	00003097          	auipc	ra,0x3
     1b4:	964080e7          	jalr	-1692(ra) # 2b14 <sleep>
    while(cons.r == cons.w){
     1b8:	08c4a783          	lw	a5,140(s1)
     1bc:	0904a703          	lw	a4,144(s1)
     1c0:	fce78ce3          	beq	a5,a4,198 <consoleread+0x6c>
    }

    c = cons.buf[cons.r++ % INPUT_BUF];
     1c4:	00012717          	auipc	a4,0x12
     1c8:	23c70713          	add	a4,a4,572 # 12400 <cons>
     1cc:	00178693          	add	a3,a5,1
     1d0:	08d72623          	sw	a3,140(a4)
     1d4:	07f7f693          	and	a3,a5,127
     1d8:	00d70733          	add	a4,a4,a3
     1dc:	00c74703          	lbu	a4,12(a4)
     1e0:	00070b93          	mv	s7,a4

    if(c == C('D')){  // end-of-file
     1e4:	00400693          	li	a3,4
     1e8:	08d70863          	beq	a4,a3,278 <consoleread+0x14c>
      }
      break;
    }

    // copy the input byte to the user-space buffer.
    cbuf = c;
     1ec:	fce407a3          	sb	a4,-49(s0)
    if(either_copyout(user_dst, dst, &cbuf, 1) == -1)
     1f0:	015a05b3          	add	a1,s4,s5
     1f4:	00100693          	li	a3,1
     1f8:	fcf40613          	add	a2,s0,-49
     1fc:	413585b3          	sub	a1,a1,s3
     200:	000b0513          	mv	a0,s6
     204:	00003097          	auipc	ra,0x3
     208:	c74080e7          	jalr	-908(ra) # 2e78 <either_copyout>
     20c:	fff00793          	li	a5,-1
     210:	00f50863          	beq	a0,a5,220 <consoleread+0xf4>
      break;

    dst++;
    --n;
     214:	fff98993          	add	s3,s3,-1

    if(c == '\n'){
     218:	00a00793          	li	a5,10
     21c:	f6fb96e3          	bne	s7,a5,188 <consoleread+0x5c>
      // a whole line has arrived, return to
      // the user-level read().
      break;
    }
  }
  release(&cons.lock);
     220:	00012517          	auipc	a0,0x12
     224:	1e050513          	add	a0,a0,480 # 12400 <cons>
     228:	00001097          	auipc	ra,0x1
     22c:	bf0080e7          	jalr	-1040(ra) # e18 <release>

  return target - n;
     230:	413a0533          	sub	a0,s4,s3
     234:	0180006f          	j	24c <consoleread+0x120>
        release(&cons.lock);
     238:	00012517          	auipc	a0,0x12
     23c:	1c850513          	add	a0,a0,456 # 12400 <cons>
     240:	00001097          	auipc	ra,0x1
     244:	bd8080e7          	jalr	-1064(ra) # e18 <release>
        return -1;
     248:	fff00513          	li	a0,-1
}
     24c:	03c12083          	lw	ra,60(sp)
     250:	03812403          	lw	s0,56(sp)
     254:	03412483          	lw	s1,52(sp)
     258:	03012903          	lw	s2,48(sp)
     25c:	02c12983          	lw	s3,44(sp)
     260:	02812a03          	lw	s4,40(sp)
     264:	02412a83          	lw	s5,36(sp)
     268:	02012b03          	lw	s6,32(sp)
     26c:	01c12b83          	lw	s7,28(sp)
     270:	04010113          	add	sp,sp,64
     274:	00008067          	ret
      if(n < target){
     278:	fb49f4e3          	bgeu	s3,s4,220 <consoleread+0xf4>
        cons.r--;
     27c:	00012717          	auipc	a4,0x12
     280:	20f72823          	sw	a5,528(a4) # 1248c <cons+0x8c>
     284:	f9dff06f          	j	220 <consoleread+0xf4>

00000288 <consputc>:
  if(panicked){
     288:	00021797          	auipc	a5,0x21
     28c:	d787a783          	lw	a5,-648(a5) # 21000 <panicked>
     290:	00078463          	beqz	a5,298 <consputc+0x10>
    for(;;)
     294:	0000006f          	j	294 <consputc+0xc>
{
     298:	ff010113          	add	sp,sp,-16
     29c:	00112623          	sw	ra,12(sp)
     2a0:	00812423          	sw	s0,8(sp)
     2a4:	01010413          	add	s0,sp,16
  if(c == BACKSPACE){
     2a8:	10000793          	li	a5,256
     2ac:	00f50e63          	beq	a0,a5,2c8 <consputc+0x40>
    uartputc(c);
     2b0:	00000097          	auipc	ra,0x0
     2b4:	6f8080e7          	jalr	1784(ra) # 9a8 <uartputc>
}
     2b8:	00c12083          	lw	ra,12(sp)
     2bc:	00812403          	lw	s0,8(sp)
     2c0:	01010113          	add	sp,sp,16
     2c4:	00008067          	ret
    uartputc('\b'); uartputc(' '); uartputc('\b');
     2c8:	00800513          	li	a0,8
     2cc:	00000097          	auipc	ra,0x0
     2d0:	6dc080e7          	jalr	1756(ra) # 9a8 <uartputc>
     2d4:	02000513          	li	a0,32
     2d8:	00000097          	auipc	ra,0x0
     2dc:	6d0080e7          	jalr	1744(ra) # 9a8 <uartputc>
     2e0:	00800513          	li	a0,8
     2e4:	00000097          	auipc	ra,0x0
     2e8:	6c4080e7          	jalr	1732(ra) # 9a8 <uartputc>
     2ec:	fcdff06f          	j	2b8 <consputc+0x30>

000002f0 <consolewrite>:
{
     2f0:	fd010113          	add	sp,sp,-48
     2f4:	02112623          	sw	ra,44(sp)
     2f8:	02812423          	sw	s0,40(sp)
     2fc:	02912223          	sw	s1,36(sp)
     300:	03212023          	sw	s2,32(sp)
     304:	01312e23          	sw	s3,28(sp)
     308:	01412c23          	sw	s4,24(sp)
     30c:	01512a23          	sw	s5,20(sp)
     310:	03010413          	add	s0,sp,48
     314:	00050913          	mv	s2,a0
     318:	00058493          	mv	s1,a1
     31c:	00060a93          	mv	s5,a2
  acquire(&cons.lock);
     320:	00012517          	auipc	a0,0x12
     324:	0e050513          	add	a0,a0,224 # 12400 <cons>
     328:	00001097          	auipc	ra,0x1
     32c:	a7c080e7          	jalr	-1412(ra) # da4 <acquire>
  for(i = 0; i < n; i++){
     330:	03505e63          	blez	s5,36c <consolewrite+0x7c>
     334:	009a8a33          	add	s4,s5,s1
    if(either_copyin(&c, user_src, src+i, 1) == -1)
     338:	fff00993          	li	s3,-1
     33c:	00100693          	li	a3,1
     340:	00048613          	mv	a2,s1
     344:	00090593          	mv	a1,s2
     348:	fdf40513          	add	a0,s0,-33
     34c:	00003097          	auipc	ra,0x3
     350:	bbc080e7          	jalr	-1092(ra) # 2f08 <either_copyin>
     354:	01350c63          	beq	a0,s3,36c <consolewrite+0x7c>
    consputc(c);
     358:	fdf44503          	lbu	a0,-33(s0)
     35c:	00000097          	auipc	ra,0x0
     360:	f2c080e7          	jalr	-212(ra) # 288 <consputc>
  for(i = 0; i < n; i++){
     364:	00148493          	add	s1,s1,1
     368:	fd449ae3          	bne	s1,s4,33c <consolewrite+0x4c>
  release(&cons.lock);
     36c:	00012517          	auipc	a0,0x12
     370:	09450513          	add	a0,a0,148 # 12400 <cons>
     374:	00001097          	auipc	ra,0x1
     378:	aa4080e7          	jalr	-1372(ra) # e18 <release>
}
     37c:	000a8513          	mv	a0,s5
     380:	02c12083          	lw	ra,44(sp)
     384:	02812403          	lw	s0,40(sp)
     388:	02412483          	lw	s1,36(sp)
     38c:	02012903          	lw	s2,32(sp)
     390:	01c12983          	lw	s3,28(sp)
     394:	01812a03          	lw	s4,24(sp)
     398:	01412a83          	lw	s5,20(sp)
     39c:	03010113          	add	sp,sp,48
     3a0:	00008067          	ret

000003a4 <consoleintr>:
// do erase/kill processing, append to cons.buf,
// wake up consoleread() if a whole line has arrived.
//
void
consoleintr(int c)
{
     3a4:	ff010113          	add	sp,sp,-16
     3a8:	00112623          	sw	ra,12(sp)
     3ac:	00812423          	sw	s0,8(sp)
     3b0:	00912223          	sw	s1,4(sp)
     3b4:	01212023          	sw	s2,0(sp)
     3b8:	01010413          	add	s0,sp,16
     3bc:	00050493          	mv	s1,a0
  acquire(&cons.lock);
     3c0:	00012517          	auipc	a0,0x12
     3c4:	04050513          	add	a0,a0,64 # 12400 <cons>
     3c8:	00001097          	auipc	ra,0x1
     3cc:	9dc080e7          	jalr	-1572(ra) # da4 <acquire>

  switch(c){
     3d0:	01500793          	li	a5,21
     3d4:	0cf48463          	beq	s1,a5,49c <consoleintr+0xf8>
     3d8:	0497c263          	blt	a5,s1,41c <consoleintr+0x78>
     3dc:	00800793          	li	a5,8
     3e0:	10f48863          	beq	s1,a5,4f0 <consoleintr+0x14c>
     3e4:	01000793          	li	a5,16
     3e8:	12f49c63          	bne	s1,a5,520 <consoleintr+0x17c>
  case C('P'):  // Print process list.
    procdump();
     3ec:	00003097          	auipc	ra,0x3
     3f0:	bac080e7          	jalr	-1108(ra) # 2f98 <procdump>
      }
    }
    break;
  }
  
  release(&cons.lock);
     3f4:	00012517          	auipc	a0,0x12
     3f8:	00c50513          	add	a0,a0,12 # 12400 <cons>
     3fc:	00001097          	auipc	ra,0x1
     400:	a1c080e7          	jalr	-1508(ra) # e18 <release>
}
     404:	00c12083          	lw	ra,12(sp)
     408:	00812403          	lw	s0,8(sp)
     40c:	00412483          	lw	s1,4(sp)
     410:	00012903          	lw	s2,0(sp)
     414:	01010113          	add	sp,sp,16
     418:	00008067          	ret
  switch(c){
     41c:	07f00793          	li	a5,127
     420:	0cf48863          	beq	s1,a5,4f0 <consoleintr+0x14c>
    if(c != 0 && cons.e-cons.r < INPUT_BUF){
     424:	00012717          	auipc	a4,0x12
     428:	fdc70713          	add	a4,a4,-36 # 12400 <cons>
     42c:	09472783          	lw	a5,148(a4)
     430:	08c72703          	lw	a4,140(a4)
     434:	40e787b3          	sub	a5,a5,a4
     438:	07f00713          	li	a4,127
     43c:	faf76ce3          	bltu	a4,a5,3f4 <consoleintr+0x50>
      c = (c == '\r') ? '\n' : c;
     440:	00d00793          	li	a5,13
     444:	0ef48263          	beq	s1,a5,528 <consoleintr+0x184>
      consputc(c);
     448:	00048513          	mv	a0,s1
     44c:	00000097          	auipc	ra,0x0
     450:	e3c080e7          	jalr	-452(ra) # 288 <consputc>
      cons.buf[cons.e++ % INPUT_BUF] = c;
     454:	00012797          	auipc	a5,0x12
     458:	fac78793          	add	a5,a5,-84 # 12400 <cons>
     45c:	0947a703          	lw	a4,148(a5)
     460:	00170693          	add	a3,a4,1
     464:	08d7aa23          	sw	a3,148(a5)
     468:	07f77713          	and	a4,a4,127
     46c:	00e787b3          	add	a5,a5,a4
     470:	00978623          	sb	s1,12(a5)
      if(c == '\n' || c == C('D') || cons.e == cons.r+INPUT_BUF){
     474:	00a00793          	li	a5,10
     478:	0ef48063          	beq	s1,a5,558 <consoleintr+0x1b4>
     47c:	00400793          	li	a5,4
     480:	0cf48c63          	beq	s1,a5,558 <consoleintr+0x1b4>
     484:	00012797          	auipc	a5,0x12
     488:	0087a783          	lw	a5,8(a5) # 1248c <cons+0x8c>
     48c:	08078793          	add	a5,a5,128
     490:	f6f692e3          	bne	a3,a5,3f4 <consoleintr+0x50>
      cons.buf[cons.e++ % INPUT_BUF] = c;
     494:	00078693          	mv	a3,a5
     498:	0c00006f          	j	558 <consoleintr+0x1b4>
    while(cons.e != cons.w &&
     49c:	00012717          	auipc	a4,0x12
     4a0:	f6470713          	add	a4,a4,-156 # 12400 <cons>
     4a4:	09472783          	lw	a5,148(a4)
     4a8:	09072703          	lw	a4,144(a4)
          cons.buf[(cons.e-1) % INPUT_BUF] != '\n'){
     4ac:	00012497          	auipc	s1,0x12
     4b0:	f5448493          	add	s1,s1,-172 # 12400 <cons>
    while(cons.e != cons.w &&
     4b4:	00a00913          	li	s2,10
     4b8:	f2e78ee3          	beq	a5,a4,3f4 <consoleintr+0x50>
          cons.buf[(cons.e-1) % INPUT_BUF] != '\n'){
     4bc:	fff78793          	add	a5,a5,-1
     4c0:	07f7f713          	and	a4,a5,127
     4c4:	00e48733          	add	a4,s1,a4
    while(cons.e != cons.w &&
     4c8:	00c74703          	lbu	a4,12(a4)
     4cc:	f32704e3          	beq	a4,s2,3f4 <consoleintr+0x50>
      cons.e--;
     4d0:	08f4aa23          	sw	a5,148(s1)
      consputc(BACKSPACE);
     4d4:	10000513          	li	a0,256
     4d8:	00000097          	auipc	ra,0x0
     4dc:	db0080e7          	jalr	-592(ra) # 288 <consputc>
    while(cons.e != cons.w &&
     4e0:	0944a783          	lw	a5,148(s1)
     4e4:	0904a703          	lw	a4,144(s1)
     4e8:	fce79ae3          	bne	a5,a4,4bc <consoleintr+0x118>
     4ec:	f09ff06f          	j	3f4 <consoleintr+0x50>
    if(cons.e != cons.w){
     4f0:	00012717          	auipc	a4,0x12
     4f4:	f1070713          	add	a4,a4,-240 # 12400 <cons>
     4f8:	09472783          	lw	a5,148(a4)
     4fc:	09072703          	lw	a4,144(a4)
     500:	eee78ae3          	beq	a5,a4,3f4 <consoleintr+0x50>
      cons.e--;
     504:	fff78793          	add	a5,a5,-1
     508:	00012717          	auipc	a4,0x12
     50c:	f8f72623          	sw	a5,-116(a4) # 12494 <cons+0x94>
      consputc(BACKSPACE);
     510:	10000513          	li	a0,256
     514:	00000097          	auipc	ra,0x0
     518:	d74080e7          	jalr	-652(ra) # 288 <consputc>
     51c:	ed9ff06f          	j	3f4 <consoleintr+0x50>
    if(c != 0 && cons.e-cons.r < INPUT_BUF){
     520:	ec048ae3          	beqz	s1,3f4 <consoleintr+0x50>
     524:	f01ff06f          	j	424 <consoleintr+0x80>
      consputc(c);
     528:	00a00513          	li	a0,10
     52c:	00000097          	auipc	ra,0x0
     530:	d5c080e7          	jalr	-676(ra) # 288 <consputc>
      cons.buf[cons.e++ % INPUT_BUF] = c;
     534:	00012797          	auipc	a5,0x12
     538:	ecc78793          	add	a5,a5,-308 # 12400 <cons>
     53c:	0947a703          	lw	a4,148(a5)
     540:	00170693          	add	a3,a4,1
     544:	08d7aa23          	sw	a3,148(a5)
     548:	07f77713          	and	a4,a4,127
     54c:	00e787b3          	add	a5,a5,a4
     550:	00a00713          	li	a4,10
     554:	00e78623          	sb	a4,12(a5)
        cons.w = cons.e;
     558:	00012797          	auipc	a5,0x12
     55c:	f2d7ac23          	sw	a3,-200(a5) # 12490 <cons+0x90>
        wakeup(&cons.r);
     560:	00012517          	auipc	a0,0x12
     564:	f2c50513          	add	a0,a0,-212 # 1248c <cons+0x8c>
     568:	00002097          	auipc	ra,0x2
     56c:	7c8080e7          	jalr	1992(ra) # 2d30 <wakeup>
     570:	e85ff06f          	j	3f4 <consoleintr+0x50>

00000574 <consoleinit>:

void
consoleinit(void)
{
     574:	ff010113          	add	sp,sp,-16
     578:	00112623          	sw	ra,12(sp)
     57c:	00812423          	sw	s0,8(sp)
     580:	01010413          	add	s0,sp,16
  initlock(&cons.lock, "cons");
     584:	00008597          	auipc	a1,0x8
     588:	bac58593          	add	a1,a1,-1108 # 8130 <userret+0x90>
     58c:	00012517          	auipc	a0,0x12
     590:	e7450513          	add	a0,a0,-396 # 12400 <cons>
     594:	00000097          	auipc	ra,0x0
     598:	68c080e7          	jalr	1676(ra) # c20 <initlock>

  uartinit();
     59c:	00000097          	auipc	ra,0x0
     5a0:	3f4080e7          	jalr	1012(ra) # 990 <uartinit>

  // connect read and write system calls
  // to consoleread and consolewrite.
  devsw[CONSOLE].read = consoleread;
     5a4:	0001f797          	auipc	a5,0x1f
     5a8:	93878793          	add	a5,a5,-1736 # 1eedc <devsw>
     5ac:	00000717          	auipc	a4,0x0
     5b0:	b8070713          	add	a4,a4,-1152 # 12c <consoleread>
     5b4:	00e7a423          	sw	a4,8(a5)
  devsw[CONSOLE].write = consolewrite;
     5b8:	00000717          	auipc	a4,0x0
     5bc:	d3870713          	add	a4,a4,-712 # 2f0 <consolewrite>
     5c0:	00e7a623          	sw	a4,12(a5)
}
     5c4:	00c12083          	lw	ra,12(sp)
     5c8:	00812403          	lw	s0,8(sp)
     5cc:	01010113          	add	sp,sp,16
     5d0:	00008067          	ret

000005d4 <printint>:

static char digits[] = "0123456789abcdef";

static void
printint(int xx, int base, int sign)
{
     5d4:	fe010113          	add	sp,sp,-32
     5d8:	00112e23          	sw	ra,28(sp)
     5dc:	00812c23          	sw	s0,24(sp)
     5e0:	00912a23          	sw	s1,20(sp)
     5e4:	01212823          	sw	s2,16(sp)
     5e8:	02010413          	add	s0,sp,32
  char buf[16];
  int i;
  uint x;

  if(sign && (sign = xx < 0))
     5ec:	00060463          	beqz	a2,5f4 <printint+0x20>
     5f0:	08054863          	bltz	a0,680 <printint+0xac>
    x = -xx;
  else
    x = xx;
     5f4:	00000893          	li	a7,0

  i = 0;
     5f8:	00000793          	li	a5,0
  do {
    buf[i++] = digits[x % base];
     5fc:	00008617          	auipc	a2,0x8
     600:	16860613          	add	a2,a2,360 # 8764 <digits>
     604:	00078813          	mv	a6,a5
     608:	00178793          	add	a5,a5,1
     60c:	fe040713          	add	a4,s0,-32
     610:	00f706b3          	add	a3,a4,a5
     614:	02b57733          	remu	a4,a0,a1
     618:	00e60733          	add	a4,a2,a4
     61c:	00074703          	lbu	a4,0(a4)
     620:	fee68fa3          	sb	a4,-1(a3)
  } while((x /= base) != 0);
     624:	00050713          	mv	a4,a0
     628:	02b55533          	divu	a0,a0,a1
     62c:	fcb77ce3          	bgeu	a4,a1,604 <printint+0x30>

  if(sign)
     630:	00088c63          	beqz	a7,648 <printint+0x74>
    buf[i++] = '-';
     634:	ff078793          	add	a5,a5,-16
     638:	008787b3          	add	a5,a5,s0
     63c:	02d00713          	li	a4,45
     640:	fee78823          	sb	a4,-16(a5)
     644:	00280793          	add	a5,a6,2

  while(--i >= 0)
     648:	02f05063          	blez	a5,668 <printint+0x94>
     64c:	fe040913          	add	s2,s0,-32
     650:	00f904b3          	add	s1,s2,a5
    consputc(buf[i]);
     654:	fff4c503          	lbu	a0,-1(s1)
     658:	00000097          	auipc	ra,0x0
     65c:	c30080e7          	jalr	-976(ra) # 288 <consputc>
  while(--i >= 0)
     660:	fff48493          	add	s1,s1,-1
     664:	ff2498e3          	bne	s1,s2,654 <printint+0x80>
}
     668:	01c12083          	lw	ra,28(sp)
     66c:	01812403          	lw	s0,24(sp)
     670:	01412483          	lw	s1,20(sp)
     674:	01012903          	lw	s2,16(sp)
     678:	02010113          	add	sp,sp,32
     67c:	00008067          	ret
    x = -xx;
     680:	40a00533          	neg	a0,a0
  if(sign && (sign = xx < 0))
     684:	00100893          	li	a7,1
    x = -xx;
     688:	f71ff06f          	j	5f8 <printint+0x24>

0000068c <panic>:
    release(&pr.lock);
}

void
panic(char *s)
{
     68c:	ff010113          	add	sp,sp,-16
     690:	00112623          	sw	ra,12(sp)
     694:	00812423          	sw	s0,8(sp)
     698:	00912223          	sw	s1,4(sp)
     69c:	01010413          	add	s0,sp,16
     6a0:	00050493          	mv	s1,a0
  pr.locking = 0;
     6a4:	00012797          	auipc	a5,0x12
     6a8:	e007a023          	sw	zero,-512(a5) # 124a4 <pr+0xc>
  printf("panic: ");
     6ac:	00008517          	auipc	a0,0x8
     6b0:	a8c50513          	add	a0,a0,-1396 # 8138 <userret+0x98>
     6b4:	00000097          	auipc	ra,0x0
     6b8:	034080e7          	jalr	52(ra) # 6e8 <printf>
  printf(s);
     6bc:	00048513          	mv	a0,s1
     6c0:	00000097          	auipc	ra,0x0
     6c4:	028080e7          	jalr	40(ra) # 6e8 <printf>
  printf("\n");
     6c8:	00008517          	auipc	a0,0x8
     6cc:	af850513          	add	a0,a0,-1288 # 81c0 <userret+0x120>
     6d0:	00000097          	auipc	ra,0x0
     6d4:	018080e7          	jalr	24(ra) # 6e8 <printf>
  panicked = 1; // freeze other CPUs
     6d8:	00100793          	li	a5,1
     6dc:	00021717          	auipc	a4,0x21
     6e0:	92f72223          	sw	a5,-1756(a4) # 21000 <panicked>
  for(;;)
     6e4:	0000006f          	j	6e4 <panic+0x58>

000006e8 <printf>:
{
     6e8:	fa010113          	add	sp,sp,-96
     6ec:	02112e23          	sw	ra,60(sp)
     6f0:	02812c23          	sw	s0,56(sp)
     6f4:	02912a23          	sw	s1,52(sp)
     6f8:	03212823          	sw	s2,48(sp)
     6fc:	03312623          	sw	s3,44(sp)
     700:	03412423          	sw	s4,40(sp)
     704:	03512223          	sw	s5,36(sp)
     708:	03612023          	sw	s6,32(sp)
     70c:	01712e23          	sw	s7,28(sp)
     710:	01812c23          	sw	s8,24(sp)
     714:	01912a23          	sw	s9,20(sp)
     718:	01a12823          	sw	s10,16(sp)
     71c:	04010413          	add	s0,sp,64
     720:	00050993          	mv	s3,a0
     724:	00b42223          	sw	a1,4(s0)
     728:	00c42423          	sw	a2,8(s0)
     72c:	00d42623          	sw	a3,12(s0)
     730:	00e42823          	sw	a4,16(s0)
     734:	00f42a23          	sw	a5,20(s0)
     738:	01042c23          	sw	a6,24(s0)
     73c:	01142e23          	sw	a7,28(s0)
  locking = pr.locking;
     740:	00012c97          	auipc	s9,0x12
     744:	d64cac83          	lw	s9,-668(s9) # 124a4 <pr+0xc>
  if(locking)
     748:	020c9c63          	bnez	s9,780 <printf+0x98>
  if (fmt == 0)
     74c:	04098463          	beqz	s3,794 <printf+0xac>
  va_start(ap, fmt);
     750:	00440793          	add	a5,s0,4
     754:	fcf42623          	sw	a5,-52(s0)
  for(i = 0; (c = fmt[i] & 0xff) != 0; i++){
     758:	0009c503          	lbu	a0,0(s3)
     75c:	18050c63          	beqz	a0,8f4 <printf+0x20c>
     760:	00000913          	li	s2,0
    if(c != '%'){
     764:	02500a13          	li	s4,37
    switch(c){
     768:	07000a93          	li	s5,112
    consputc(digits[x >> (sizeof(uint32) * 8 - 4)]);
     76c:	00008b17          	auipc	s6,0x8
     770:	ff8b0b13          	add	s6,s6,-8 # 8764 <digits>
    switch(c){
     774:	07300c13          	li	s8,115
     778:	06400b93          	li	s7,100
     77c:	0400006f          	j	7bc <printf+0xd4>
    acquire(&pr.lock);
     780:	00012517          	auipc	a0,0x12
     784:	d1850513          	add	a0,a0,-744 # 12498 <pr>
     788:	00000097          	auipc	ra,0x0
     78c:	61c080e7          	jalr	1564(ra) # da4 <acquire>
     790:	fbdff06f          	j	74c <printf+0x64>
    panic("null fmt");
     794:	00008517          	auipc	a0,0x8
     798:	9b450513          	add	a0,a0,-1612 # 8148 <userret+0xa8>
     79c:	00000097          	auipc	ra,0x0
     7a0:	ef0080e7          	jalr	-272(ra) # 68c <panic>
      consputc(c);
     7a4:	00000097          	auipc	ra,0x0
     7a8:	ae4080e7          	jalr	-1308(ra) # 288 <consputc>
  for(i = 0; (c = fmt[i] & 0xff) != 0; i++){
     7ac:	00190913          	add	s2,s2,1
     7b0:	012987b3          	add	a5,s3,s2
     7b4:	0007c503          	lbu	a0,0(a5)
     7b8:	12050e63          	beqz	a0,8f4 <printf+0x20c>
    if(c != '%'){
     7bc:	ff4514e3          	bne	a0,s4,7a4 <printf+0xbc>
    c = fmt[++i] & 0xff;
     7c0:	00190913          	add	s2,s2,1
     7c4:	012987b3          	add	a5,s3,s2
     7c8:	0007c483          	lbu	s1,0(a5)
    if(c == 0)
     7cc:	12048463          	beqz	s1,8f4 <printf+0x20c>
    switch(c){
     7d0:	07548263          	beq	s1,s5,834 <printf+0x14c>
     7d4:	029afa63          	bgeu	s5,s1,808 <printf+0x120>
     7d8:	0b848663          	beq	s1,s8,884 <printf+0x19c>
     7dc:	07800793          	li	a5,120
     7e0:	0ef49c63          	bne	s1,a5,8d8 <printf+0x1f0>
      printint(va_arg(ap, int), 16, 1);
     7e4:	fcc42783          	lw	a5,-52(s0)
     7e8:	00478713          	add	a4,a5,4
     7ec:	fce42623          	sw	a4,-52(s0)
     7f0:	00100613          	li	a2,1
     7f4:	01000593          	li	a1,16
     7f8:	0007a503          	lw	a0,0(a5)
     7fc:	00000097          	auipc	ra,0x0
     800:	dd8080e7          	jalr	-552(ra) # 5d4 <printint>
      break;
     804:	fa9ff06f          	j	7ac <printf+0xc4>
    switch(c){
     808:	0d448063          	beq	s1,s4,8c8 <printf+0x1e0>
     80c:	0d749663          	bne	s1,s7,8d8 <printf+0x1f0>
      printint(va_arg(ap, int), 10, 1);
     810:	fcc42783          	lw	a5,-52(s0)
     814:	00478713          	add	a4,a5,4
     818:	fce42623          	sw	a4,-52(s0)
     81c:	00100613          	li	a2,1
     820:	00a00593          	li	a1,10
     824:	0007a503          	lw	a0,0(a5)
     828:	00000097          	auipc	ra,0x0
     82c:	dac080e7          	jalr	-596(ra) # 5d4 <printint>
      break;
     830:	f7dff06f          	j	7ac <printf+0xc4>
      printptr(va_arg(ap, uint32));
     834:	fcc42783          	lw	a5,-52(s0)
     838:	00478713          	add	a4,a5,4
     83c:	fce42623          	sw	a4,-52(s0)
     840:	0007ad03          	lw	s10,0(a5)
  consputc('0');
     844:	03000513          	li	a0,48
     848:	00000097          	auipc	ra,0x0
     84c:	a40080e7          	jalr	-1472(ra) # 288 <consputc>
  consputc('x');
     850:	07800513          	li	a0,120
     854:	00000097          	auipc	ra,0x0
     858:	a34080e7          	jalr	-1484(ra) # 288 <consputc>
     85c:	00800493          	li	s1,8
    consputc(digits[x >> (sizeof(uint32) * 8 - 4)]);
     860:	01cd5793          	srl	a5,s10,0x1c
     864:	00fb07b3          	add	a5,s6,a5
     868:	0007c503          	lbu	a0,0(a5)
     86c:	00000097          	auipc	ra,0x0
     870:	a1c080e7          	jalr	-1508(ra) # 288 <consputc>
  for (i = 0; i < (sizeof(uint32) * 2); i++, x <<= 4)
     874:	004d1d13          	sll	s10,s10,0x4
     878:	fff48493          	add	s1,s1,-1
     87c:	fe0492e3          	bnez	s1,860 <printf+0x178>
     880:	f2dff06f          	j	7ac <printf+0xc4>
      if((s = va_arg(ap, char*)) == 0)
     884:	fcc42783          	lw	a5,-52(s0)
     888:	00478713          	add	a4,a5,4
     88c:	fce42623          	sw	a4,-52(s0)
     890:	0007a483          	lw	s1,0(a5)
     894:	02048263          	beqz	s1,8b8 <printf+0x1d0>
      for(; *s; s++)
     898:	0004c503          	lbu	a0,0(s1)
     89c:	f00508e3          	beqz	a0,7ac <printf+0xc4>
        consputc(*s);
     8a0:	00000097          	auipc	ra,0x0
     8a4:	9e8080e7          	jalr	-1560(ra) # 288 <consputc>
      for(; *s; s++)
     8a8:	00148493          	add	s1,s1,1
     8ac:	0004c503          	lbu	a0,0(s1)
     8b0:	fe0518e3          	bnez	a0,8a0 <printf+0x1b8>
     8b4:	ef9ff06f          	j	7ac <printf+0xc4>
        s = "(null)";
     8b8:	00008497          	auipc	s1,0x8
     8bc:	88848493          	add	s1,s1,-1912 # 8140 <userret+0xa0>
      for(; *s; s++)
     8c0:	02800513          	li	a0,40
     8c4:	fddff06f          	j	8a0 <printf+0x1b8>
      consputc('%');
     8c8:	000a0513          	mv	a0,s4
     8cc:	00000097          	auipc	ra,0x0
     8d0:	9bc080e7          	jalr	-1604(ra) # 288 <consputc>
      break;
     8d4:	ed9ff06f          	j	7ac <printf+0xc4>
      consputc('%');
     8d8:	000a0513          	mv	a0,s4
     8dc:	00000097          	auipc	ra,0x0
     8e0:	9ac080e7          	jalr	-1620(ra) # 288 <consputc>
      consputc(c);
     8e4:	00048513          	mv	a0,s1
     8e8:	00000097          	auipc	ra,0x0
     8ec:	9a0080e7          	jalr	-1632(ra) # 288 <consputc>
      break;
     8f0:	ebdff06f          	j	7ac <printf+0xc4>
  if(locking)
     8f4:	020c9e63          	bnez	s9,930 <printf+0x248>
}
     8f8:	03c12083          	lw	ra,60(sp)
     8fc:	03812403          	lw	s0,56(sp)
     900:	03412483          	lw	s1,52(sp)
     904:	03012903          	lw	s2,48(sp)
     908:	02c12983          	lw	s3,44(sp)
     90c:	02812a03          	lw	s4,40(sp)
     910:	02412a83          	lw	s5,36(sp)
     914:	02012b03          	lw	s6,32(sp)
     918:	01c12b83          	lw	s7,28(sp)
     91c:	01812c03          	lw	s8,24(sp)
     920:	01412c83          	lw	s9,20(sp)
     924:	01012d03          	lw	s10,16(sp)
     928:	06010113          	add	sp,sp,96
     92c:	00008067          	ret
    release(&pr.lock);
     930:	00012517          	auipc	a0,0x12
     934:	b6850513          	add	a0,a0,-1176 # 12498 <pr>
     938:	00000097          	auipc	ra,0x0
     93c:	4e0080e7          	jalr	1248(ra) # e18 <release>
}
     940:	fb9ff06f          	j	8f8 <printf+0x210>

00000944 <printfinit>:
    ;
}

void
printfinit(void)
{
     944:	ff010113          	add	sp,sp,-16
     948:	00112623          	sw	ra,12(sp)
     94c:	00812423          	sw	s0,8(sp)
     950:	00912223          	sw	s1,4(sp)
     954:	01010413          	add	s0,sp,16
  initlock(&pr.lock, "pr");
     958:	00012497          	auipc	s1,0x12
     95c:	b4048493          	add	s1,s1,-1216 # 12498 <pr>
     960:	00007597          	auipc	a1,0x7
     964:	7f458593          	add	a1,a1,2036 # 8154 <userret+0xb4>
     968:	00048513          	mv	a0,s1
     96c:	00000097          	auipc	ra,0x0
     970:	2b4080e7          	jalr	692(ra) # c20 <initlock>
  pr.locking = 1;
     974:	00100793          	li	a5,1
     978:	00f4a623          	sw	a5,12(s1)
}
     97c:	00c12083          	lw	ra,12(sp)
     980:	00812403          	lw	s0,8(sp)
     984:	00412483          	lw	s1,4(sp)
     988:	01010113          	add	sp,sp,16
     98c:	00008067          	ret

00000990 <uartinit>:
#include "proc.h"
#include "defs.h"

void
uartinit(void)
{
     990:	ff010113          	add	sp,sp,-16
     994:	00812623          	sw	s0,12(sp)
     998:	01010413          	add	s0,sp,16
}
     99c:	00c12403          	lw	s0,12(sp)
     9a0:	01010113          	add	sp,sp,16
     9a4:	00008067          	ret

000009a8 <uartputc>:

// write one output character to the UART.
void
uartputc(int c)
{
     9a8:	ff010113          	add	sp,sp,-16
     9ac:	00812623          	sw	s0,12(sp)
     9b0:	01010413          	add	s0,sp,16
  volatile unsigned int *addr = (unsigned int*)0xff000000;
  *addr = c;
     9b4:	ff0007b7          	lui	a5,0xff000
     9b8:	00a7a023          	sw	a0,0(a5) # ff000000 <end+0xfefdefec>
}
     9bc:	00c12403          	lw	s0,12(sp)
     9c0:	01010113          	add	sp,sp,16
     9c4:	00008067          	ret

000009c8 <uartgetc>:

// read one input character from the UART.
// return -1 if none is waiting.
int
uartgetc(void)
{
     9c8:	ff010113          	add	sp,sp,-16
     9cc:	00812623          	sw	s0,12(sp)
     9d0:	01010413          	add	s0,sp,16
  volatile unsigned int *en     = (unsigned int*)0xff000010;
  volatile unsigned int *rdata  = (unsigned int*)0xff000018;
  if(*en & 0x01){
     9d4:	ff0007b7          	lui	a5,0xff000
     9d8:	0107a783          	lw	a5,16(a5) # ff000010 <end+0xfefdeffc>
     9dc:	0017f793          	and	a5,a5,1
     9e0:	00078c63          	beqz	a5,9f8 <uartgetc+0x30>
    // input data is ready.
    return *rdata;
     9e4:	ff0007b7          	lui	a5,0xff000
     9e8:	0187a503          	lw	a0,24(a5) # ff000018 <end+0xfefdf004>
  } else {
    return -1;
  }
}
     9ec:	00c12403          	lw	s0,12(sp)
     9f0:	01010113          	add	sp,sp,16
     9f4:	00008067          	ret
    return -1;
     9f8:	fff00513          	li	a0,-1
     9fc:	ff1ff06f          	j	9ec <uartgetc+0x24>

00000a00 <uartintr>:

// trap.c calls here when the uart interrupts.
void
uartintr(void)
{
     a00:	ff010113          	add	sp,sp,-16
     a04:	00112623          	sw	ra,12(sp)
     a08:	00812423          	sw	s0,8(sp)
     a0c:	00912223          	sw	s1,4(sp)
     a10:	01010413          	add	s0,sp,16
  while(1){
    int c = uartgetc();
    if(c == -1)
     a14:	fff00493          	li	s1,-1
     a18:	00c0006f          	j	a24 <uartintr+0x24>
      break;
    consoleintr(c);
     a1c:	00000097          	auipc	ra,0x0
     a20:	988080e7          	jalr	-1656(ra) # 3a4 <consoleintr>
    int c = uartgetc();
     a24:	00000097          	auipc	ra,0x0
     a28:	fa4080e7          	jalr	-92(ra) # 9c8 <uartgetc>
    if(c == -1)
     a2c:	fe9518e3          	bne	a0,s1,a1c <uartintr+0x1c>
  }
}
     a30:	00c12083          	lw	ra,12(sp)
     a34:	00812403          	lw	s0,8(sp)
     a38:	00412483          	lw	s1,4(sp)
     a3c:	01010113          	add	sp,sp,16
     a40:	00008067          	ret

00000a44 <kfree>:
// which normally should have been returned by a
// call to kalloc().  (The exception is when
// initializing the allocator; see kinit above.)
void
kfree(void *pa)
{
     a44:	ff010113          	add	sp,sp,-16
     a48:	00112623          	sw	ra,12(sp)
     a4c:	00812423          	sw	s0,8(sp)
     a50:	00912223          	sw	s1,4(sp)
     a54:	01212023          	sw	s2,0(sp)
     a58:	01010413          	add	s0,sp,16
  struct run *r;

  if(((uint32)pa % PGSIZE) != 0 || (char*)pa < end || (uint32)pa >= PHYSTOP)
     a5c:	01451793          	sll	a5,a0,0x14
     a60:	06079063          	bnez	a5,ac0 <kfree+0x7c>
     a64:	00050493          	mv	s1,a0
     a68:	00020797          	auipc	a5,0x20
     a6c:	5ac78793          	add	a5,a5,1452 # 21014 <end>
     a70:	04f56863          	bltu	a0,a5,ac0 <kfree+0x7c>
     a74:	020007b7          	lui	a5,0x2000
     a78:	04f57463          	bgeu	a0,a5,ac0 <kfree+0x7c>
  // TODO 遅すぎ
  // memset(pa, 1, PGSIZE);

  r = (struct run*)pa;

  acquire(&kmem.lock);
     a7c:	00012917          	auipc	s2,0x12
     a80:	a2c90913          	add	s2,s2,-1492 # 124a8 <kmem>
     a84:	00090513          	mv	a0,s2
     a88:	00000097          	auipc	ra,0x0
     a8c:	31c080e7          	jalr	796(ra) # da4 <acquire>
  r->next = kmem.freelist;
     a90:	00c92783          	lw	a5,12(s2)
     a94:	00f4a023          	sw	a5,0(s1)
  kmem.freelist = r;
     a98:	00992623          	sw	s1,12(s2)
  release(&kmem.lock);
     a9c:	00090513          	mv	a0,s2
     aa0:	00000097          	auipc	ra,0x0
     aa4:	378080e7          	jalr	888(ra) # e18 <release>
}
     aa8:	00c12083          	lw	ra,12(sp)
     aac:	00812403          	lw	s0,8(sp)
     ab0:	00412483          	lw	s1,4(sp)
     ab4:	00012903          	lw	s2,0(sp)
     ab8:	01010113          	add	sp,sp,16
     abc:	00008067          	ret
    panic("kfree");
     ac0:	00007517          	auipc	a0,0x7
     ac4:	69850513          	add	a0,a0,1688 # 8158 <userret+0xb8>
     ac8:	00000097          	auipc	ra,0x0
     acc:	bc4080e7          	jalr	-1084(ra) # 68c <panic>

00000ad0 <freerange>:
{
     ad0:	fe010113          	add	sp,sp,-32
     ad4:	00112e23          	sw	ra,28(sp)
     ad8:	00812c23          	sw	s0,24(sp)
     adc:	00912a23          	sw	s1,20(sp)
     ae0:	01212823          	sw	s2,16(sp)
     ae4:	01312623          	sw	s3,12(sp)
     ae8:	01412423          	sw	s4,8(sp)
     aec:	02010413          	add	s0,sp,32
  p = (char*)PGROUNDUP((uint32)pa_start);
     af0:	000017b7          	lui	a5,0x1
     af4:	fff78713          	add	a4,a5,-1 # fff <strncpy+0x1b>
     af8:	00e504b3          	add	s1,a0,a4
     afc:	fffff737          	lui	a4,0xfffff
     b00:	00e4f4b3          	and	s1,s1,a4
  for(; p + PGSIZE <= (char*)pa_end; p += PGSIZE) {
     b04:	00f484b3          	add	s1,s1,a5
     b08:	0295e263          	bltu	a1,s1,b2c <freerange+0x5c>
     b0c:	00058913          	mv	s2,a1
    kfree(p);
     b10:	fffffa37          	lui	s4,0xfffff
  for(; p + PGSIZE <= (char*)pa_end; p += PGSIZE) {
     b14:	000019b7          	lui	s3,0x1
    kfree(p);
     b18:	01448533          	add	a0,s1,s4
     b1c:	00000097          	auipc	ra,0x0
     b20:	f28080e7          	jalr	-216(ra) # a44 <kfree>
  for(; p + PGSIZE <= (char*)pa_end; p += PGSIZE) {
     b24:	013484b3          	add	s1,s1,s3
     b28:	fe9978e3          	bgeu	s2,s1,b18 <freerange+0x48>
}
     b2c:	01c12083          	lw	ra,28(sp)
     b30:	01812403          	lw	s0,24(sp)
     b34:	01412483          	lw	s1,20(sp)
     b38:	01012903          	lw	s2,16(sp)
     b3c:	00c12983          	lw	s3,12(sp)
     b40:	00812a03          	lw	s4,8(sp)
     b44:	02010113          	add	sp,sp,32
     b48:	00008067          	ret

00000b4c <kinit>:
{
     b4c:	ff010113          	add	sp,sp,-16
     b50:	00112623          	sw	ra,12(sp)
     b54:	00812423          	sw	s0,8(sp)
     b58:	01010413          	add	s0,sp,16
  initlock(&kmem.lock, "kmem");
     b5c:	00007597          	auipc	a1,0x7
     b60:	60458593          	add	a1,a1,1540 # 8160 <userret+0xc0>
     b64:	00012517          	auipc	a0,0x12
     b68:	94450513          	add	a0,a0,-1724 # 124a8 <kmem>
     b6c:	00000097          	auipc	ra,0x0
     b70:	0b4080e7          	jalr	180(ra) # c20 <initlock>
  freerange(end, (void*)PHYSTOP);
     b74:	020005b7          	lui	a1,0x2000
     b78:	00020517          	auipc	a0,0x20
     b7c:	49c50513          	add	a0,a0,1180 # 21014 <end>
     b80:	00000097          	auipc	ra,0x0
     b84:	f50080e7          	jalr	-176(ra) # ad0 <freerange>
}
     b88:	00c12083          	lw	ra,12(sp)
     b8c:	00812403          	lw	s0,8(sp)
     b90:	01010113          	add	sp,sp,16
     b94:	00008067          	ret

00000b98 <kalloc>:
// Allocate one 4096-byte page of physical memory.
// Returns a pointer that the kernel can use.
// Returns 0 if the memory cannot be allocated.
void *
kalloc(void)
{
     b98:	ff010113          	add	sp,sp,-16
     b9c:	00112623          	sw	ra,12(sp)
     ba0:	00812423          	sw	s0,8(sp)
     ba4:	00912223          	sw	s1,4(sp)
     ba8:	01010413          	add	s0,sp,16
  struct run *r;

  acquire(&kmem.lock);
     bac:	00012497          	auipc	s1,0x12
     bb0:	8fc48493          	add	s1,s1,-1796 # 124a8 <kmem>
     bb4:	00048513          	mv	a0,s1
     bb8:	00000097          	auipc	ra,0x0
     bbc:	1ec080e7          	jalr	492(ra) # da4 <acquire>
  r = kmem.freelist;
     bc0:	00c4a483          	lw	s1,12(s1)
  if(r)
     bc4:	04048463          	beqz	s1,c0c <kalloc+0x74>
    kmem.freelist = r->next;
     bc8:	0004a783          	lw	a5,0(s1)
     bcc:	00012517          	auipc	a0,0x12
     bd0:	8dc50513          	add	a0,a0,-1828 # 124a8 <kmem>
     bd4:	00f52623          	sw	a5,12(a0)
  release(&kmem.lock);
     bd8:	00000097          	auipc	ra,0x0
     bdc:	240080e7          	jalr	576(ra) # e18 <release>

  if(r)
    memset((char*)r, 5, PGSIZE); // fill with junk
     be0:	00001637          	lui	a2,0x1
     be4:	00500593          	li	a1,5
     be8:	00048513          	mv	a0,s1
     bec:	00000097          	auipc	ra,0x0
     bf0:	28c080e7          	jalr	652(ra) # e78 <memset>
  return (void*)r;
}
     bf4:	00048513          	mv	a0,s1
     bf8:	00c12083          	lw	ra,12(sp)
     bfc:	00812403          	lw	s0,8(sp)
     c00:	00412483          	lw	s1,4(sp)
     c04:	01010113          	add	sp,sp,16
     c08:	00008067          	ret
  release(&kmem.lock);
     c0c:	00012517          	auipc	a0,0x12
     c10:	89c50513          	add	a0,a0,-1892 # 124a8 <kmem>
     c14:	00000097          	auipc	ra,0x0
     c18:	204080e7          	jalr	516(ra) # e18 <release>
  if(r)
     c1c:	fd9ff06f          	j	bf4 <kalloc+0x5c>

00000c20 <initlock>:
#include "proc.h"
#include "defs.h"

void
initlock(struct spinlock *lk, char *name)
{
     c20:	ff010113          	add	sp,sp,-16
     c24:	00812623          	sw	s0,12(sp)
     c28:	01010413          	add	s0,sp,16
  lk->name = name;
     c2c:	00b52223          	sw	a1,4(a0)
  lk->locked = 0;
     c30:	00052023          	sw	zero,0(a0)
  lk->cpu = 0;
     c34:	00052423          	sw	zero,8(a0)
}
     c38:	00c12403          	lw	s0,12(sp)
     c3c:	01010113          	add	sp,sp,16
     c40:	00008067          	ret

00000c44 <push_off>:
// it takes two pop_off()s to undo two push_off()s.  Also, if interrupts
// are initially off, then push_off, pop_off leaves them off.

void
push_off(void)
{
     c44:	ff010113          	add	sp,sp,-16
     c48:	00112623          	sw	ra,12(sp)
     c4c:	00812423          	sw	s0,8(sp)
     c50:	00912223          	sw	s1,4(sp)
     c54:	01010413          	add	s0,sp,16
  asm volatile("csrr %0, sstatus" : "=r" (x) );
     c58:	100024f3          	csrr	s1,sstatus
     c5c:	100027f3          	csrr	a5,sstatus
  w_sstatus(r_sstatus() & ~SSTATUS_SIE);
     c60:	ffd7f793          	and	a5,a5,-3
  asm volatile("csrw sstatus, %0" : : "r" (x));
     c64:	10079073          	csrw	sstatus,a5
  int old = intr_get();

  intr_off();
  if(mycpu()->noff == 0)
     c68:	00001097          	auipc	ra,0x1
     c6c:	434080e7          	jalr	1076(ra) # 209c <mycpu>
     c70:	03c52783          	lw	a5,60(a0)
     c74:	02078663          	beqz	a5,ca0 <push_off+0x5c>
    mycpu()->intena = old;
  mycpu()->noff += 1;
     c78:	00001097          	auipc	ra,0x1
     c7c:	424080e7          	jalr	1060(ra) # 209c <mycpu>
     c80:	03c52783          	lw	a5,60(a0)
     c84:	00178793          	add	a5,a5,1
     c88:	02f52e23          	sw	a5,60(a0)
}
     c8c:	00c12083          	lw	ra,12(sp)
     c90:	00812403          	lw	s0,8(sp)
     c94:	00412483          	lw	s1,4(sp)
     c98:	01010113          	add	sp,sp,16
     c9c:	00008067          	ret
    mycpu()->intena = old;
     ca0:	00001097          	auipc	ra,0x1
     ca4:	3fc080e7          	jalr	1020(ra) # 209c <mycpu>
  return (x & SSTATUS_SIE) != 0;
     ca8:	0014d493          	srl	s1,s1,0x1
     cac:	0014f493          	and	s1,s1,1
     cb0:	04952023          	sw	s1,64(a0)
     cb4:	fc5ff06f          	j	c78 <push_off+0x34>

00000cb8 <pop_off>:

void
pop_off(void)
{
     cb8:	ff010113          	add	sp,sp,-16
     cbc:	00112623          	sw	ra,12(sp)
     cc0:	00812423          	sw	s0,8(sp)
     cc4:	01010413          	add	s0,sp,16
  struct cpu *c = mycpu();
     cc8:	00001097          	auipc	ra,0x1
     ccc:	3d4080e7          	jalr	980(ra) # 209c <mycpu>
  asm volatile("csrr %0, sstatus" : "=r" (x) );
     cd0:	100027f3          	csrr	a5,sstatus
  return (x & SSTATUS_SIE) != 0;
     cd4:	0027f793          	and	a5,a5,2
  if(intr_get())
     cd8:	04079463          	bnez	a5,d20 <pop_off+0x68>
    panic("pop_off - interruptible");
  c->noff -= 1;
     cdc:	03c52783          	lw	a5,60(a0)
     ce0:	fff78793          	add	a5,a5,-1
     ce4:	02f52e23          	sw	a5,60(a0)
  if(c->noff < 0)
     ce8:	0407c463          	bltz	a5,d30 <pop_off+0x78>
    panic("pop_off");
  if(c->noff == 0 && c->intena)
     cec:	02079263          	bnez	a5,d10 <pop_off+0x58>
     cf0:	04052783          	lw	a5,64(a0)
     cf4:	00078e63          	beqz	a5,d10 <pop_off+0x58>
  asm volatile("csrr %0, sie" : "=r" (x) );
     cf8:	104027f3          	csrr	a5,sie
  w_sie(r_sie() | SIE_SEIE | SIE_STIE | SIE_SSIE);
     cfc:	2227e793          	or	a5,a5,546
  asm volatile("csrw sie, %0" : : "r" (x));
     d00:	10479073          	csrw	sie,a5
  asm volatile("csrr %0, sstatus" : "=r" (x) );
     d04:	100027f3          	csrr	a5,sstatus
  w_sstatus(r_sstatus() | SSTATUS_SIE);
     d08:	0027e793          	or	a5,a5,2
  asm volatile("csrw sstatus, %0" : : "r" (x));
     d0c:	10079073          	csrw	sstatus,a5
    intr_on();
}
     d10:	00c12083          	lw	ra,12(sp)
     d14:	00812403          	lw	s0,8(sp)
     d18:	01010113          	add	sp,sp,16
     d1c:	00008067          	ret
    panic("pop_off - interruptible");
     d20:	00007517          	auipc	a0,0x7
     d24:	44850513          	add	a0,a0,1096 # 8168 <userret+0xc8>
     d28:	00000097          	auipc	ra,0x0
     d2c:	964080e7          	jalr	-1692(ra) # 68c <panic>
    panic("pop_off");
     d30:	00007517          	auipc	a0,0x7
     d34:	45050513          	add	a0,a0,1104 # 8180 <userret+0xe0>
     d38:	00000097          	auipc	ra,0x0
     d3c:	954080e7          	jalr	-1708(ra) # 68c <panic>

00000d40 <holding>:
{
     d40:	ff010113          	add	sp,sp,-16
     d44:	00112623          	sw	ra,12(sp)
     d48:	00812423          	sw	s0,8(sp)
     d4c:	00912223          	sw	s1,4(sp)
     d50:	01010413          	add	s0,sp,16
     d54:	00050493          	mv	s1,a0
  push_off();
     d58:	00000097          	auipc	ra,0x0
     d5c:	eec080e7          	jalr	-276(ra) # c44 <push_off>
  r = (lk->locked && lk->cpu == mycpu());
     d60:	0004a783          	lw	a5,0(s1)
     d64:	02079463          	bnez	a5,d8c <holding+0x4c>
     d68:	00000493          	li	s1,0
  pop_off();
     d6c:	00000097          	auipc	ra,0x0
     d70:	f4c080e7          	jalr	-180(ra) # cb8 <pop_off>
}
     d74:	00048513          	mv	a0,s1
     d78:	00c12083          	lw	ra,12(sp)
     d7c:	00812403          	lw	s0,8(sp)
     d80:	00412483          	lw	s1,4(sp)
     d84:	01010113          	add	sp,sp,16
     d88:	00008067          	ret
  r = (lk->locked && lk->cpu == mycpu());
     d8c:	0084a483          	lw	s1,8(s1)
     d90:	00001097          	auipc	ra,0x1
     d94:	30c080e7          	jalr	780(ra) # 209c <mycpu>
     d98:	40a484b3          	sub	s1,s1,a0
     d9c:	0014b493          	seqz	s1,s1
     da0:	fcdff06f          	j	d6c <holding+0x2c>

00000da4 <acquire>:
{
     da4:	ff010113          	add	sp,sp,-16
     da8:	00112623          	sw	ra,12(sp)
     dac:	00812423          	sw	s0,8(sp)
     db0:	00912223          	sw	s1,4(sp)
     db4:	01010413          	add	s0,sp,16
     db8:	00050493          	mv	s1,a0
  push_off(); // disable interrupts to avoid deadlock.
     dbc:	00000097          	auipc	ra,0x0
     dc0:	e88080e7          	jalr	-376(ra) # c44 <push_off>
  if(holding(lk))
     dc4:	00048513          	mv	a0,s1
     dc8:	00000097          	auipc	ra,0x0
     dcc:	f78080e7          	jalr	-136(ra) # d40 <holding>
  while(__sync_lock_test_and_set(&lk->locked, 1) != 0)
     dd0:	00100713          	li	a4,1
  if(holding(lk))
     dd4:	02051a63          	bnez	a0,e08 <acquire+0x64>
  while(__sync_lock_test_and_set(&lk->locked, 1) != 0)
     dd8:	00070793          	mv	a5,a4
     ddc:	0cf4a7af          	amoswap.w.aq	a5,a5,(s1)
     de0:	fe079ce3          	bnez	a5,dd8 <acquire+0x34>
  __sync_synchronize();
     de4:	0ff0000f          	fence
  lk->cpu = mycpu();
     de8:	00001097          	auipc	ra,0x1
     dec:	2b4080e7          	jalr	692(ra) # 209c <mycpu>
     df0:	00a4a423          	sw	a0,8(s1)
}
     df4:	00c12083          	lw	ra,12(sp)
     df8:	00812403          	lw	s0,8(sp)
     dfc:	00412483          	lw	s1,4(sp)
     e00:	01010113          	add	sp,sp,16
     e04:	00008067          	ret
    panic("acquire");
     e08:	00007517          	auipc	a0,0x7
     e0c:	38050513          	add	a0,a0,896 # 8188 <userret+0xe8>
     e10:	00000097          	auipc	ra,0x0
     e14:	87c080e7          	jalr	-1924(ra) # 68c <panic>

00000e18 <release>:
{
     e18:	ff010113          	add	sp,sp,-16
     e1c:	00112623          	sw	ra,12(sp)
     e20:	00812423          	sw	s0,8(sp)
     e24:	00912223          	sw	s1,4(sp)
     e28:	01010413          	add	s0,sp,16
     e2c:	00050493          	mv	s1,a0
  if(!holding(lk))
     e30:	00000097          	auipc	ra,0x0
     e34:	f10080e7          	jalr	-240(ra) # d40 <holding>
     e38:	02050863          	beqz	a0,e68 <release+0x50>
  lk->cpu = 0;
     e3c:	0004a423          	sw	zero,8(s1)
  __sync_synchronize();
     e40:	0ff0000f          	fence
  __sync_lock_release(&lk->locked);
     e44:	0f50000f          	fence	iorw,ow
     e48:	0804a02f          	amoswap.w	zero,zero,(s1)
  pop_off();
     e4c:	00000097          	auipc	ra,0x0
     e50:	e6c080e7          	jalr	-404(ra) # cb8 <pop_off>
}
     e54:	00c12083          	lw	ra,12(sp)
     e58:	00812403          	lw	s0,8(sp)
     e5c:	00412483          	lw	s1,4(sp)
     e60:	01010113          	add	sp,sp,16
     e64:	00008067          	ret
    panic("release");
     e68:	00007517          	auipc	a0,0x7
     e6c:	32850513          	add	a0,a0,808 # 8190 <userret+0xf0>
     e70:	00000097          	auipc	ra,0x0
     e74:	81c080e7          	jalr	-2020(ra) # 68c <panic>

00000e78 <memset>:
#include "types.h"

void*
memset(void *dst, int c, uint n)
{
     e78:	ff010113          	add	sp,sp,-16
     e7c:	00812623          	sw	s0,12(sp)
     e80:	01010413          	add	s0,sp,16
  char *cdst = (char *) dst;
  int i;
  for(i = 0; i < n; i++){
     e84:	00060c63          	beqz	a2,e9c <memset+0x24>
     e88:	00050793          	mv	a5,a0
     e8c:	00a60633          	add	a2,a2,a0
    cdst[i] = c;
     e90:	00b78023          	sb	a1,0(a5)
  for(i = 0; i < n; i++){
     e94:	00178793          	add	a5,a5,1
     e98:	fec79ce3          	bne	a5,a2,e90 <memset+0x18>
  }
  return dst;
}
     e9c:	00c12403          	lw	s0,12(sp)
     ea0:	01010113          	add	sp,sp,16
     ea4:	00008067          	ret

00000ea8 <memcmp>:

int
memcmp(const void *v1, const void *v2, uint n)
{
     ea8:	ff010113          	add	sp,sp,-16
     eac:	00812623          	sw	s0,12(sp)
     eb0:	01010413          	add	s0,sp,16
  const uchar *s1, *s2;

  s1 = v1;
  s2 = v2;
  while(n-- > 0){
     eb4:	02060c63          	beqz	a2,eec <memcmp+0x44>
     eb8:	00c50633          	add	a2,a0,a2
    if(*s1 != *s2)
     ebc:	00054783          	lbu	a5,0(a0)
     ec0:	0005c703          	lbu	a4,0(a1) # 2000000 <end+0x1fdefec>
     ec4:	00e79c63          	bne	a5,a4,edc <memcmp+0x34>
      return *s1 - *s2;
    s1++, s2++;
     ec8:	00150513          	add	a0,a0,1
     ecc:	00158593          	add	a1,a1,1
  while(n-- > 0){
     ed0:	fea616e3          	bne	a2,a0,ebc <memcmp+0x14>
  }

  return 0;
     ed4:	00000513          	li	a0,0
     ed8:	0080006f          	j	ee0 <memcmp+0x38>
      return *s1 - *s2;
     edc:	40e78533          	sub	a0,a5,a4
}
     ee0:	00c12403          	lw	s0,12(sp)
     ee4:	01010113          	add	sp,sp,16
     ee8:	00008067          	ret
  return 0;
     eec:	00000513          	li	a0,0
     ef0:	ff1ff06f          	j	ee0 <memcmp+0x38>

00000ef4 <memmove>:

void*
memmove(void *dst, const void *src, uint n)
{
     ef4:	ff010113          	add	sp,sp,-16
     ef8:	00812623          	sw	s0,12(sp)
     efc:	01010413          	add	s0,sp,16
  const char *s;
  char *d;

  s = src;
  d = dst;
  if(s < d && s + n > d){
     f00:	02a5e863          	bltu	a1,a0,f30 <memmove+0x3c>
    s += n;
    d += n;
    while(n-- > 0)
      *--d = *--s;
  } else
    while(n-- > 0)
     f04:	00c586b3          	add	a3,a1,a2
     f08:	00050793          	mv	a5,a0
     f0c:	00060c63          	beqz	a2,f24 <memmove+0x30>
      *d++ = *s++;
     f10:	00158593          	add	a1,a1,1
     f14:	00178793          	add	a5,a5,1
     f18:	fff5c703          	lbu	a4,-1(a1)
     f1c:	fee78fa3          	sb	a4,-1(a5)
    while(n-- > 0)
     f20:	fed598e3          	bne	a1,a3,f10 <memmove+0x1c>

  return dst;
}
     f24:	00c12403          	lw	s0,12(sp)
     f28:	01010113          	add	sp,sp,16
     f2c:	00008067          	ret
  if(s < d && s + n > d){
     f30:	00c587b3          	add	a5,a1,a2
     f34:	fcf578e3          	bgeu	a0,a5,f04 <memmove+0x10>
    d += n;
     f38:	00c50733          	add	a4,a0,a2
    while(n-- > 0)
     f3c:	fe0604e3          	beqz	a2,f24 <memmove+0x30>
      *--d = *--s;
     f40:	fff78793          	add	a5,a5,-1
     f44:	fff70713          	add	a4,a4,-1 # ffffefff <end+0xfffddfeb>
     f48:	0007c683          	lbu	a3,0(a5)
     f4c:	00d70023          	sb	a3,0(a4)
    while(n-- > 0)
     f50:	fef598e3          	bne	a1,a5,f40 <memmove+0x4c>
     f54:	fd1ff06f          	j	f24 <memmove+0x30>

00000f58 <memcpy>:

// memcpy exists to placate GCC.  Use memmove.
void*
memcpy(void *dst, const void *src, uint n)
{
     f58:	ff010113          	add	sp,sp,-16
     f5c:	00112623          	sw	ra,12(sp)
     f60:	00812423          	sw	s0,8(sp)
     f64:	01010413          	add	s0,sp,16
  return memmove(dst, src, n);
     f68:	00000097          	auipc	ra,0x0
     f6c:	f8c080e7          	jalr	-116(ra) # ef4 <memmove>
}
     f70:	00c12083          	lw	ra,12(sp)
     f74:	00812403          	lw	s0,8(sp)
     f78:	01010113          	add	sp,sp,16
     f7c:	00008067          	ret

00000f80 <strncmp>:

int
strncmp(const char *p, const char *q, uint n)
{
     f80:	ff010113          	add	sp,sp,-16
     f84:	00812623          	sw	s0,12(sp)
     f88:	01010413          	add	s0,sp,16
  while(n > 0 && *p && *p == *q)
     f8c:	02060663          	beqz	a2,fb8 <strncmp+0x38>
     f90:	00054783          	lbu	a5,0(a0)
     f94:	02078663          	beqz	a5,fc0 <strncmp+0x40>
     f98:	0005c703          	lbu	a4,0(a1)
     f9c:	02f71263          	bne	a4,a5,fc0 <strncmp+0x40>
    n--, p++, q++;
     fa0:	fff60613          	add	a2,a2,-1 # fff <strncpy+0x1b>
     fa4:	00150513          	add	a0,a0,1
     fa8:	00158593          	add	a1,a1,1
  while(n > 0 && *p && *p == *q)
     fac:	fe0612e3          	bnez	a2,f90 <strncmp+0x10>
  if(n == 0)
    return 0;
     fb0:	00000513          	li	a0,0
     fb4:	01c0006f          	j	fd0 <strncmp+0x50>
     fb8:	00000513          	li	a0,0
     fbc:	0140006f          	j	fd0 <strncmp+0x50>
  if(n == 0)
     fc0:	00060e63          	beqz	a2,fdc <strncmp+0x5c>
  return (uchar)*p - (uchar)*q;
     fc4:	00054503          	lbu	a0,0(a0)
     fc8:	0005c783          	lbu	a5,0(a1)
     fcc:	40f50533          	sub	a0,a0,a5
}
     fd0:	00c12403          	lw	s0,12(sp)
     fd4:	01010113          	add	sp,sp,16
     fd8:	00008067          	ret
    return 0;
     fdc:	00000513          	li	a0,0
     fe0:	ff1ff06f          	j	fd0 <strncmp+0x50>

00000fe4 <strncpy>:

char*
strncpy(char *s, const char *t, int n)
{
     fe4:	ff010113          	add	sp,sp,-16
     fe8:	00812623          	sw	s0,12(sp)
     fec:	01010413          	add	s0,sp,16
  char *os;

  os = s;
  while(n-- > 0 && (*s++ = *t++) != 0)
     ff0:	00050793          	mv	a5,a0
     ff4:	00060693          	mv	a3,a2
     ff8:	fff60613          	add	a2,a2,-1
     ffc:	00d05c63          	blez	a3,1014 <strncpy+0x30>
    1000:	00158593          	add	a1,a1,1
    1004:	00178793          	add	a5,a5,1
    1008:	fff5c703          	lbu	a4,-1(a1)
    100c:	fee78fa3          	sb	a4,-1(a5)
    1010:	fe0712e3          	bnez	a4,ff4 <strncpy+0x10>
    ;
  while(n-- > 0)
    1014:	00078713          	mv	a4,a5
    1018:	00d787b3          	add	a5,a5,a3
    101c:	fff78793          	add	a5,a5,-1
    1020:	00c05a63          	blez	a2,1034 <strncpy+0x50>
    *s++ = 0;
    1024:	00170713          	add	a4,a4,1
    1028:	fe070fa3          	sb	zero,-1(a4)
  while(n-- > 0)
    102c:	40e786b3          	sub	a3,a5,a4
    1030:	fed04ae3          	bgtz	a3,1024 <strncpy+0x40>
  return os;
}
    1034:	00c12403          	lw	s0,12(sp)
    1038:	01010113          	add	sp,sp,16
    103c:	00008067          	ret

00001040 <safestrcpy>:

// Like strncpy but guaranteed to NUL-terminate.
char*
safestrcpy(char *s, const char *t, int n)
{
    1040:	ff010113          	add	sp,sp,-16
    1044:	00812623          	sw	s0,12(sp)
    1048:	01010413          	add	s0,sp,16
  char *os;

  os = s;
  if(n <= 0)
    104c:	02c05663          	blez	a2,1078 <safestrcpy+0x38>
    1050:	fff60613          	add	a2,a2,-1
    1054:	00c586b3          	add	a3,a1,a2
    1058:	00050793          	mv	a5,a0
    return os;
  while(--n > 0 && (*s++ = *t++) != 0)
    105c:	00d58c63          	beq	a1,a3,1074 <safestrcpy+0x34>
    1060:	00158593          	add	a1,a1,1
    1064:	00178793          	add	a5,a5,1
    1068:	fff5c703          	lbu	a4,-1(a1)
    106c:	fee78fa3          	sb	a4,-1(a5)
    1070:	fe0716e3          	bnez	a4,105c <safestrcpy+0x1c>
    ;
  *s = 0;
    1074:	00078023          	sb	zero,0(a5)
  return os;
}
    1078:	00c12403          	lw	s0,12(sp)
    107c:	01010113          	add	sp,sp,16
    1080:	00008067          	ret

00001084 <strlen>:

int
strlen(const char *s)
{
    1084:	ff010113          	add	sp,sp,-16
    1088:	00812623          	sw	s0,12(sp)
    108c:	01010413          	add	s0,sp,16
  int n;

  for(n = 0; s[n]; n++)
    1090:	00054783          	lbu	a5,0(a0)
    1094:	02078463          	beqz	a5,10bc <strlen+0x38>
    1098:	00050713          	mv	a4,a0
    109c:	00000513          	li	a0,0
    10a0:	00150513          	add	a0,a0,1
    10a4:	00a707b3          	add	a5,a4,a0
    10a8:	0007c783          	lbu	a5,0(a5)
    10ac:	fe079ae3          	bnez	a5,10a0 <strlen+0x1c>
    ;
  return n;
}
    10b0:	00c12403          	lw	s0,12(sp)
    10b4:	01010113          	add	sp,sp,16
    10b8:	00008067          	ret
  for(n = 0; s[n]; n++)
    10bc:	00000513          	li	a0,0
  return n;
    10c0:	ff1ff06f          	j	10b0 <strlen+0x2c>

000010c4 <main>:
volatile static int started = 0;

// start() jumps here in supervisor mode on all CPUs.
void
main()
{
    10c4:	ff010113          	add	sp,sp,-16
    10c8:	00112623          	sw	ra,12(sp)
    10cc:	00812423          	sw	s0,8(sp)
    10d0:	01010413          	add	s0,sp,16
  if(cpuid() == 0){
    10d4:	00001097          	auipc	ra,0x1
    10d8:	fac080e7          	jalr	-84(ra) # 2080 <cpuid>
    userinit();      // first user process
    // printf("k");
    __sync_synchronize();
    started = 1;
  } else {
    while(started == 0)
    10dc:	00020717          	auipc	a4,0x20
    10e0:	f2870713          	add	a4,a4,-216 # 21004 <started>
  if(cpuid() == 0){
    10e4:	04050663          	beqz	a0,1130 <main+0x6c>
    while(started == 0)
    10e8:	00072783          	lw	a5,0(a4)
    10ec:	fe078ee3          	beqz	a5,10e8 <main+0x24>
      ;
    __sync_synchronize();
    10f0:	0ff0000f          	fence
    printf("hart %d starting\n", cpuid());
    10f4:	00001097          	auipc	ra,0x1
    10f8:	f8c080e7          	jalr	-116(ra) # 2080 <cpuid>
    10fc:	00050593          	mv	a1,a0
    1100:	00007517          	auipc	a0,0x7
    1104:	0b050513          	add	a0,a0,176 # 81b0 <userret+0x110>
    1108:	fffff097          	auipc	ra,0xfffff
    110c:	5e0080e7          	jalr	1504(ra) # 6e8 <printf>
    kvminithart();    // turn on paging
    1110:	00000097          	auipc	ra,0x0
    1114:	23c080e7          	jalr	572(ra) # 134c <kvminithart>
    trapinithart();   // install kernel trap vector
    1118:	00002097          	auipc	ra,0x2
    111c:	01c080e7          	jalr	28(ra) # 3134 <trapinithart>
    plicinithart();   // ask PLIC for device interrupts
    1120:	00006097          	auipc	ra,0x6
    1124:	7f0080e7          	jalr	2032(ra) # 7910 <plicinithart>
  }

  scheduler();        
    1128:	00001097          	auipc	ra,0x1
    112c:	654080e7          	jalr	1620(ra) # 277c <scheduler>
    consoleinit();
    1130:	fffff097          	auipc	ra,0xfffff
    1134:	444080e7          	jalr	1092(ra) # 574 <consoleinit>
    printfinit();
    1138:	00000097          	auipc	ra,0x0
    113c:	80c080e7          	jalr	-2036(ra) # 944 <printfinit>
    printf("\n");
    1140:	00007517          	auipc	a0,0x7
    1144:	08050513          	add	a0,a0,128 # 81c0 <userret+0x120>
    1148:	fffff097          	auipc	ra,0xfffff
    114c:	5a0080e7          	jalr	1440(ra) # 6e8 <printf>
    printf("xv6 kernel is booting\n");
    1150:	00007517          	auipc	a0,0x7
    1154:	04850513          	add	a0,a0,72 # 8198 <userret+0xf8>
    1158:	fffff097          	auipc	ra,0xfffff
    115c:	590080e7          	jalr	1424(ra) # 6e8 <printf>
    printf("\n");
    1160:	00007517          	auipc	a0,0x7
    1164:	06050513          	add	a0,a0,96 # 81c0 <userret+0x120>
    1168:	fffff097          	auipc	ra,0xfffff
    116c:	580080e7          	jalr	1408(ra) # 6e8 <printf>
    kinit();         // physical page allocator
    1170:	00000097          	auipc	ra,0x0
    1174:	9dc080e7          	jalr	-1572(ra) # b4c <kinit>
    kvminit();       // create kernel page table
    1178:	00000097          	auipc	ra,0x0
    117c:	428080e7          	jalr	1064(ra) # 15a0 <kvminit>
    kvminithart();   // turn on paging
    1180:	00000097          	auipc	ra,0x0
    1184:	1cc080e7          	jalr	460(ra) # 134c <kvminithart>
    procinit();      // process table
    1188:	00001097          	auipc	ra,0x1
    118c:	df0080e7          	jalr	-528(ra) # 1f78 <procinit>
    trapinit();      // trap vectors
    1190:	00002097          	auipc	ra,0x2
    1194:	f6c080e7          	jalr	-148(ra) # 30fc <trapinit>
    trapinithart();  // install kernel trap vector
    1198:	00002097          	auipc	ra,0x2
    119c:	f9c080e7          	jalr	-100(ra) # 3134 <trapinithart>
    binit();         // buffer cache
    11a0:	00003097          	auipc	ra,0x3
    11a4:	990080e7          	jalr	-1648(ra) # 3b30 <binit>
    iinit();         // inode cache
    11a8:	00003097          	auipc	ra,0x3
    11ac:	23c080e7          	jalr	572(ra) # 43e4 <iinit>
    fileinit();      // file table
    11b0:	00004097          	auipc	ra,0x4
    11b4:	75c080e7          	jalr	1884(ra) # 590c <fileinit>
    virtio_disk_init(); // emulated hard disk
    11b8:	00006097          	auipc	ra,0x6
    11bc:	7d8080e7          	jalr	2008(ra) # 7990 <virtio_disk_init>
    userinit();      // first user process
    11c0:	00001097          	auipc	ra,0x1
    11c4:	288080e7          	jalr	648(ra) # 2448 <userinit>
    __sync_synchronize();
    11c8:	0ff0000f          	fence
    started = 1;
    11cc:	00100793          	li	a5,1
    11d0:	00020717          	auipc	a4,0x20
    11d4:	e2f72a23          	sw	a5,-460(a4) # 21004 <started>
    11d8:	f51ff06f          	j	1128 <main+0x64>

000011dc <walk>:
//    0.. 7 -- flags: Valid/Read/Write/Execute/User/Global/Accessed/Dirty
// 

static pte_t *
walk(pagetable_t pagetable, uint32 va, int alloc)
{
    11dc:	fe010113          	add	sp,sp,-32
    11e0:	00112e23          	sw	ra,28(sp)
    11e4:	00812c23          	sw	s0,24(sp)
    11e8:	00912a23          	sw	s1,20(sp)
    11ec:	01212823          	sw	s2,16(sp)
    11f0:	01312623          	sw	s3,12(sp)
    11f4:	02010413          	add	s0,sp,32
  if(va >= MAXVA)
    11f8:	fff00793          	li	a5,-1
    11fc:	04f58c63          	beq	a1,a5,1254 <walk+0x78>
    1200:	00058493          	mv	s1,a1
    panic("walk");

  for(int level = 1; level > 0; level--) {
    pte_t *pte = &pagetable[PX(level, va)];
    1204:	0165d793          	srl	a5,a1,0x16
    1208:	00279793          	sll	a5,a5,0x2
    120c:	00f509b3          	add	s3,a0,a5
    if(*pte & PTE_V) {
    1210:	0009a903          	lw	s2,0(s3) # 1000 <strncpy+0x1c>
    1214:	00197793          	and	a5,s2,1
    1218:	04078663          	beqz	a5,1264 <walk+0x88>
      pagetable = (pagetable_t)PTE2PA(*pte);
    121c:	00a95913          	srl	s2,s2,0xa
    1220:	00c91913          	sll	s2,s2,0xc
        return 0;
      memset(pagetable, 0, PGSIZE);
      *pte = PA2PTE(pagetable) | PTE_V;
    }
  }
  return &pagetable[PX(0, va)];
    1224:	00c4d493          	srl	s1,s1,0xc
    1228:	3ff4f493          	and	s1,s1,1023
    122c:	00249493          	sll	s1,s1,0x2
    1230:	00990933          	add	s2,s2,s1
}
    1234:	00090513          	mv	a0,s2
    1238:	01c12083          	lw	ra,28(sp)
    123c:	01812403          	lw	s0,24(sp)
    1240:	01412483          	lw	s1,20(sp)
    1244:	01012903          	lw	s2,16(sp)
    1248:	00c12983          	lw	s3,12(sp)
    124c:	02010113          	add	sp,sp,32
    1250:	00008067          	ret
    panic("walk");
    1254:	00007517          	auipc	a0,0x7
    1258:	f7050513          	add	a0,a0,-144 # 81c4 <userret+0x124>
    125c:	fffff097          	auipc	ra,0xfffff
    1260:	430080e7          	jalr	1072(ra) # 68c <panic>
      if(!alloc || (pagetable = (pde_t*)kalloc()) == 0)
    1264:	02060c63          	beqz	a2,129c <walk+0xc0>
    1268:	00000097          	auipc	ra,0x0
    126c:	930080e7          	jalr	-1744(ra) # b98 <kalloc>
    1270:	00050913          	mv	s2,a0
    1274:	fc0500e3          	beqz	a0,1234 <walk+0x58>
      memset(pagetable, 0, PGSIZE);
    1278:	00001637          	lui	a2,0x1
    127c:	00000593          	li	a1,0
    1280:	00000097          	auipc	ra,0x0
    1284:	bf8080e7          	jalr	-1032(ra) # e78 <memset>
      *pte = PA2PTE(pagetable) | PTE_V;
    1288:	00c95793          	srl	a5,s2,0xc
    128c:	00a79793          	sll	a5,a5,0xa
    1290:	0017e793          	or	a5,a5,1
    1294:	00f9a023          	sw	a5,0(s3)
    1298:	f8dff06f          	j	1224 <walk+0x48>
        return 0;
    129c:	00000913          	li	s2,0
    12a0:	f95ff06f          	j	1234 <walk+0x58>

000012a4 <freewalk>:

// Recursively free page-table pages.
// All leaf mappings must already have been removed.
static void
freewalk(pagetable_t pagetable)
{
    12a4:	fe010113          	add	sp,sp,-32
    12a8:	00112e23          	sw	ra,28(sp)
    12ac:	00812c23          	sw	s0,24(sp)
    12b0:	00912a23          	sw	s1,20(sp)
    12b4:	01212823          	sw	s2,16(sp)
    12b8:	01312623          	sw	s3,12(sp)
    12bc:	01412423          	sw	s4,8(sp)
    12c0:	02010413          	add	s0,sp,32
    12c4:	00050a13          	mv	s4,a0
  // there are 2^9 = 512 PTEs in a page table.
  for(int i = 0; i < 512; i++){
    12c8:	00050493          	mv	s1,a0
    12cc:	00001937          	lui	s2,0x1
    12d0:	80090913          	add	s2,s2,-2048 # 800 <printf+0x118>
    12d4:	01250933          	add	s2,a0,s2
    pte_t pte = pagetable[i];
    if((pte & PTE_V) && (pte & (PTE_R|PTE_W|PTE_X)) == 0){
    12d8:	00100993          	li	s3,1
    12dc:	0200006f          	j	12fc <freewalk+0x58>
      // this PTE points to a lower-level page table.
      uint32 child = PTE2PA(pte);
    12e0:	00a7d793          	srl	a5,a5,0xa
      freewalk((pagetable_t)child);
    12e4:	00c79513          	sll	a0,a5,0xc
    12e8:	00000097          	auipc	ra,0x0
    12ec:	fbc080e7          	jalr	-68(ra) # 12a4 <freewalk>
      pagetable[i] = 0;
    12f0:	0004a023          	sw	zero,0(s1)
  for(int i = 0; i < 512; i++){
    12f4:	00448493          	add	s1,s1,4
    12f8:	03248463          	beq	s1,s2,1320 <freewalk+0x7c>
    pte_t pte = pagetable[i];
    12fc:	0004a783          	lw	a5,0(s1)
    if((pte & PTE_V) && (pte & (PTE_R|PTE_W|PTE_X)) == 0){
    1300:	00f7f713          	and	a4,a5,15
    1304:	fd370ee3          	beq	a4,s3,12e0 <freewalk+0x3c>
    } else if(pte & PTE_V){
    1308:	0017f793          	and	a5,a5,1
    130c:	fe0784e3          	beqz	a5,12f4 <freewalk+0x50>
      panic("freewalk: leaf");
    1310:	00007517          	auipc	a0,0x7
    1314:	ebc50513          	add	a0,a0,-324 # 81cc <userret+0x12c>
    1318:	fffff097          	auipc	ra,0xfffff
    131c:	374080e7          	jalr	884(ra) # 68c <panic>
    }
  }
  kfree((void*)pagetable);
    1320:	000a0513          	mv	a0,s4
    1324:	fffff097          	auipc	ra,0xfffff
    1328:	720080e7          	jalr	1824(ra) # a44 <kfree>
}
    132c:	01c12083          	lw	ra,28(sp)
    1330:	01812403          	lw	s0,24(sp)
    1334:	01412483          	lw	s1,20(sp)
    1338:	01012903          	lw	s2,16(sp)
    133c:	00c12983          	lw	s3,12(sp)
    1340:	00812a03          	lw	s4,8(sp)
    1344:	02010113          	add	sp,sp,32
    1348:	00008067          	ret

0000134c <kvminithart>:
{
    134c:	ff010113          	add	sp,sp,-16
    1350:	00812623          	sw	s0,12(sp)
    1354:	01010413          	add	s0,sp,16
  w_satp(MAKE_SATP(kernel_pagetable));
    1358:	00020797          	auipc	a5,0x20
    135c:	cb07a783          	lw	a5,-848(a5) # 21008 <kernel_pagetable>
    1360:	00c7d793          	srl	a5,a5,0xc
    1364:	80000737          	lui	a4,0x80000
    1368:	00e7e7b3          	or	a5,a5,a4
  asm volatile("csrw satp, %0" : : "r" (x));
    136c:	18079073          	csrw	satp,a5
// flush the TLB.
static inline void
sfence_vma()
{
  // the zero, zero means flush all TLB entries.
  asm volatile("sfence.vma zero, zero");
    1370:	12000073          	sfence.vma
}
    1374:	00c12403          	lw	s0,12(sp)
    1378:	01010113          	add	sp,sp,16
    137c:	00008067          	ret

00001380 <walkaddr>:
  if(va >= MAXVA)
    1380:	fff00793          	li	a5,-1
    1384:	04f58a63          	beq	a1,a5,13d8 <walkaddr+0x58>
{
    1388:	ff010113          	add	sp,sp,-16
    138c:	00112623          	sw	ra,12(sp)
    1390:	00812423          	sw	s0,8(sp)
    1394:	01010413          	add	s0,sp,16
  pte = walk(pagetable, va, 0);
    1398:	00000613          	li	a2,0
    139c:	00000097          	auipc	ra,0x0
    13a0:	e40080e7          	jalr	-448(ra) # 11dc <walk>
  if(pte == 0)
    13a4:	02050e63          	beqz	a0,13e0 <walkaddr+0x60>
  if((*pte & PTE_V) == 0)
    13a8:	00052783          	lw	a5,0(a0)
  if((*pte & PTE_U) == 0)
    13ac:	0117f693          	and	a3,a5,17
    13b0:	01100713          	li	a4,17
    return 0;
    13b4:	00000513          	li	a0,0
  if((*pte & PTE_U) == 0)
    13b8:	00e68a63          	beq	a3,a4,13cc <walkaddr+0x4c>
}
    13bc:	00c12083          	lw	ra,12(sp)
    13c0:	00812403          	lw	s0,8(sp)
    13c4:	01010113          	add	sp,sp,16
    13c8:	00008067          	ret
  pa = PTE2PA(*pte);
    13cc:	00a7d793          	srl	a5,a5,0xa
    13d0:	00c79513          	sll	a0,a5,0xc
  return pa;
    13d4:	fe9ff06f          	j	13bc <walkaddr+0x3c>
    return 0;
    13d8:	00000513          	li	a0,0
}
    13dc:	00008067          	ret
    return 0;
    13e0:	00000513          	li	a0,0
    13e4:	fd9ff06f          	j	13bc <walkaddr+0x3c>

000013e8 <kvmpa>:
{
    13e8:	ff010113          	add	sp,sp,-16
    13ec:	00112623          	sw	ra,12(sp)
    13f0:	00812423          	sw	s0,8(sp)
    13f4:	00912223          	sw	s1,4(sp)
    13f8:	01010413          	add	s0,sp,16
    13fc:	00050593          	mv	a1,a0
  uint32 off = va % PGSIZE;
    1400:	01451513          	sll	a0,a0,0x14
    1404:	01455493          	srl	s1,a0,0x14
  pte = walk(kernel_pagetable, va, 0);
    1408:	00000613          	li	a2,0
    140c:	00020517          	auipc	a0,0x20
    1410:	bfc52503          	lw	a0,-1028(a0) # 21008 <kernel_pagetable>
    1414:	00000097          	auipc	ra,0x0
    1418:	dc8080e7          	jalr	-568(ra) # 11dc <walk>
  if(pte == 0)
    141c:	02050863          	beqz	a0,144c <kvmpa+0x64>
  if((*pte & PTE_V) == 0)
    1420:	00052503          	lw	a0,0(a0)
    1424:	00157793          	and	a5,a0,1
    1428:	02078a63          	beqz	a5,145c <kvmpa+0x74>
  pa = PTE2PA(*pte);
    142c:	00a55513          	srl	a0,a0,0xa
    1430:	00c51513          	sll	a0,a0,0xc
}
    1434:	00950533          	add	a0,a0,s1
    1438:	00c12083          	lw	ra,12(sp)
    143c:	00812403          	lw	s0,8(sp)
    1440:	00412483          	lw	s1,4(sp)
    1444:	01010113          	add	sp,sp,16
    1448:	00008067          	ret
    panic("kvmpa");
    144c:	00007517          	auipc	a0,0x7
    1450:	d9050513          	add	a0,a0,-624 # 81dc <userret+0x13c>
    1454:	fffff097          	auipc	ra,0xfffff
    1458:	238080e7          	jalr	568(ra) # 68c <panic>
    panic("kvmpa");
    145c:	00007517          	auipc	a0,0x7
    1460:	d8050513          	add	a0,a0,-640 # 81dc <userret+0x13c>
    1464:	fffff097          	auipc	ra,0xfffff
    1468:	228080e7          	jalr	552(ra) # 68c <panic>

0000146c <mappages>:
{
    146c:	fd010113          	add	sp,sp,-48
    1470:	02112623          	sw	ra,44(sp)
    1474:	02812423          	sw	s0,40(sp)
    1478:	02912223          	sw	s1,36(sp)
    147c:	03212023          	sw	s2,32(sp)
    1480:	01312e23          	sw	s3,28(sp)
    1484:	01412c23          	sw	s4,24(sp)
    1488:	01512a23          	sw	s5,20(sp)
    148c:	01612823          	sw	s6,16(sp)
    1490:	01712623          	sw	s7,12(sp)
    1494:	03010413          	add	s0,sp,48
    1498:	00050a93          	mv	s5,a0
    149c:	00070b13          	mv	s6,a4
  a = PGROUNDDOWN(va);
    14a0:	fffff737          	lui	a4,0xfffff
    14a4:	00e5f7b3          	and	a5,a1,a4
  last = PGROUNDDOWN(va + size - 1);
    14a8:	fff60993          	add	s3,a2,-1 # fff <strncpy+0x1b>
    14ac:	00b989b3          	add	s3,s3,a1
    14b0:	00e9f9b3          	and	s3,s3,a4
  a = PGROUNDDOWN(va);
    14b4:	00078913          	mv	s2,a5
    14b8:	40f68a33          	sub	s4,a3,a5
    a += PGSIZE;
    14bc:	00001bb7          	lui	s7,0x1
    14c0:	012a04b3          	add	s1,s4,s2
    if((pte = walk(pagetable, a, 1)) == 0)
    14c4:	00100613          	li	a2,1
    14c8:	00090593          	mv	a1,s2
    14cc:	000a8513          	mv	a0,s5
    14d0:	00000097          	auipc	ra,0x0
    14d4:	d0c080e7          	jalr	-756(ra) # 11dc <walk>
    14d8:	04050063          	beqz	a0,1518 <mappages+0xac>
    if(*pte & PTE_V)
    14dc:	00052783          	lw	a5,0(a0)
    14e0:	0017f793          	and	a5,a5,1
    14e4:	02079263          	bnez	a5,1508 <mappages+0x9c>
    *pte = PA2PTE(pa) | perm | PTE_V;
    14e8:	00c4d493          	srl	s1,s1,0xc
    14ec:	00a49493          	sll	s1,s1,0xa
    14f0:	0164e4b3          	or	s1,s1,s6
    14f4:	0014e493          	or	s1,s1,1
    14f8:	00952023          	sw	s1,0(a0)
    if(a == last)
    14fc:	05390663          	beq	s2,s3,1548 <mappages+0xdc>
    a += PGSIZE;
    1500:	01790933          	add	s2,s2,s7
    if((pte = walk(pagetable, a, 1)) == 0)
    1504:	fbdff06f          	j	14c0 <mappages+0x54>
      panic("remap");
    1508:	00007517          	auipc	a0,0x7
    150c:	cdc50513          	add	a0,a0,-804 # 81e4 <userret+0x144>
    1510:	fffff097          	auipc	ra,0xfffff
    1514:	17c080e7          	jalr	380(ra) # 68c <panic>
      return -1;
    1518:	fff00513          	li	a0,-1
}
    151c:	02c12083          	lw	ra,44(sp)
    1520:	02812403          	lw	s0,40(sp)
    1524:	02412483          	lw	s1,36(sp)
    1528:	02012903          	lw	s2,32(sp)
    152c:	01c12983          	lw	s3,28(sp)
    1530:	01812a03          	lw	s4,24(sp)
    1534:	01412a83          	lw	s5,20(sp)
    1538:	01012b03          	lw	s6,16(sp)
    153c:	00c12b83          	lw	s7,12(sp)
    1540:	03010113          	add	sp,sp,48
    1544:	00008067          	ret
  return 0;
    1548:	00000513          	li	a0,0
    154c:	fd1ff06f          	j	151c <mappages+0xb0>

00001550 <kvmmap>:
{
    1550:	ff010113          	add	sp,sp,-16
    1554:	00112623          	sw	ra,12(sp)
    1558:	00812423          	sw	s0,8(sp)
    155c:	01010413          	add	s0,sp,16
    1560:	00068713          	mv	a4,a3
  if(mappages(kernel_pagetable, va, sz, pa, perm) != 0)
    1564:	00058693          	mv	a3,a1
    1568:	00050593          	mv	a1,a0
    156c:	00020517          	auipc	a0,0x20
    1570:	a9c52503          	lw	a0,-1380(a0) # 21008 <kernel_pagetable>
    1574:	00000097          	auipc	ra,0x0
    1578:	ef8080e7          	jalr	-264(ra) # 146c <mappages>
    157c:	00051a63          	bnez	a0,1590 <kvmmap+0x40>
}
    1580:	00c12083          	lw	ra,12(sp)
    1584:	00812403          	lw	s0,8(sp)
    1588:	01010113          	add	sp,sp,16
    158c:	00008067          	ret
    panic("kvmmap");
    1590:	00007517          	auipc	a0,0x7
    1594:	c5c50513          	add	a0,a0,-932 # 81ec <userret+0x14c>
    1598:	fffff097          	auipc	ra,0xfffff
    159c:	0f4080e7          	jalr	244(ra) # 68c <panic>

000015a0 <kvminit>:
{
    15a0:	ff010113          	add	sp,sp,-16
    15a4:	00112623          	sw	ra,12(sp)
    15a8:	00812423          	sw	s0,8(sp)
    15ac:	00912223          	sw	s1,4(sp)
    15b0:	01010413          	add	s0,sp,16
  kernel_pagetable = (pagetable_t) kalloc();
    15b4:	fffff097          	auipc	ra,0xfffff
    15b8:	5e4080e7          	jalr	1508(ra) # b98 <kalloc>
    15bc:	00020797          	auipc	a5,0x20
    15c0:	a4a7a623          	sw	a0,-1460(a5) # 21008 <kernel_pagetable>
  if (kernel_pagetable == 0) { 
    15c4:	0c050863          	beqz	a0,1694 <kvminit+0xf4>
  memset(kernel_pagetable, 0, PGSIZE);
    15c8:	00001637          	lui	a2,0x1
    15cc:	00000593          	li	a1,0
    15d0:	00020517          	auipc	a0,0x20
    15d4:	a3852503          	lw	a0,-1480(a0) # 21008 <kernel_pagetable>
    15d8:	00000097          	auipc	ra,0x0
    15dc:	8a0080e7          	jalr	-1888(ra) # e78 <memset>
  kvmmap(UART0, UART0, PGSIZE, PTE_R | PTE_W);
    15e0:	00600693          	li	a3,6
    15e4:	00001637          	lui	a2,0x1
    15e8:	ff0005b7          	lui	a1,0xff000
    15ec:	ff000537          	lui	a0,0xff000
    15f0:	00000097          	auipc	ra,0x0
    15f4:	f60080e7          	jalr	-160(ra) # 1550 <kvmmap>
  kvmmap(VIRTIO0, VIRTIO0, PGSIZE, PTE_R | PTE_W);
    15f8:	00600693          	li	a3,6
    15fc:	00001637          	lui	a2,0x1
    1600:	f80005b7          	lui	a1,0xf8000
    1604:	f8000537          	lui	a0,0xf8000
    1608:	00000097          	auipc	ra,0x0
    160c:	f48080e7          	jalr	-184(ra) # 1550 <kvmmap>
  kvmmap(CLINT, CLINT, 0x10000, PTE_R | PTE_W);
    1610:	00600693          	li	a3,6
    1614:	00010637          	lui	a2,0x10
    1618:	f00005b7          	lui	a1,0xf0000
    161c:	f0000537          	lui	a0,0xf0000
    1620:	00000097          	auipc	ra,0x0
    1624:	f30080e7          	jalr	-208(ra) # 1550 <kvmmap>
  kvmmap(KERNBASE, KERNBASE, (uint32)etext-KERNBASE, PTE_R | PTE_X);
    1628:	00008497          	auipc	s1,0x8
    162c:	9d848493          	add	s1,s1,-1576 # 9000 <initcode>
    1630:	00a00693          	li	a3,10
    1634:	00048613          	mv	a2,s1
    1638:	00000593          	li	a1,0
    163c:	00000513          	li	a0,0
    1640:	00000097          	auipc	ra,0x0
    1644:	f10080e7          	jalr	-240(ra) # 1550 <kvmmap>
  kvmmap((uint32)etext, (uint32)etext, PHYSTOP-(uint32)etext, PTE_R | PTE_W);
    1648:	00600693          	li	a3,6
    164c:	02000637          	lui	a2,0x2000
    1650:	40960633          	sub	a2,a2,s1
    1654:	00048593          	mv	a1,s1
    1658:	00048513          	mv	a0,s1
    165c:	00000097          	auipc	ra,0x0
    1660:	ef4080e7          	jalr	-268(ra) # 1550 <kvmmap>
  kvmmap(TRAMPOLINE, (uint32)trampoline, PGSIZE, PTE_R | PTE_X);
    1664:	00a00693          	li	a3,10
    1668:	00001637          	lui	a2,0x1
    166c:	00007597          	auipc	a1,0x7
    1670:	99458593          	add	a1,a1,-1644 # 8000 <trampoline>
    1674:	fffff537          	lui	a0,0xfffff
    1678:	00000097          	auipc	ra,0x0
    167c:	ed8080e7          	jalr	-296(ra) # 1550 <kvmmap>
}
    1680:	00c12083          	lw	ra,12(sp)
    1684:	00812403          	lw	s0,8(sp)
    1688:	00412483          	lw	s1,4(sp)
    168c:	01010113          	add	sp,sp,16
    1690:	00008067          	ret
    printf("kalloc failed\n");
    1694:	00007517          	auipc	a0,0x7
    1698:	b6050513          	add	a0,a0,-1184 # 81f4 <userret+0x154>
    169c:	fffff097          	auipc	ra,0xfffff
    16a0:	04c080e7          	jalr	76(ra) # 6e8 <printf>
    16a4:	f25ff06f          	j	15c8 <kvminit+0x28>

000016a8 <uvmunmap>:
{
    16a8:	fd010113          	add	sp,sp,-48
    16ac:	02112623          	sw	ra,44(sp)
    16b0:	02812423          	sw	s0,40(sp)
    16b4:	02912223          	sw	s1,36(sp)
    16b8:	03212023          	sw	s2,32(sp)
    16bc:	01312e23          	sw	s3,28(sp)
    16c0:	01412c23          	sw	s4,24(sp)
    16c4:	01512a23          	sw	s5,20(sp)
    16c8:	01612823          	sw	s6,16(sp)
    16cc:	01712623          	sw	s7,12(sp)
    16d0:	03010413          	add	s0,sp,48
    16d4:	00050a13          	mv	s4,a0
    16d8:	00068a93          	mv	s5,a3
  a = PGROUNDDOWN(va);
    16dc:	fffff7b7          	lui	a5,0xfffff
    16e0:	00f5f933          	and	s2,a1,a5
  last = PGROUNDDOWN(va + size - 1);
    16e4:	fff60993          	add	s3,a2,-1 # fff <strncpy+0x1b>
    16e8:	00b989b3          	add	s3,s3,a1
    16ec:	00f9f9b3          	and	s3,s3,a5
    if(PTE_FLAGS(*pte) == PTE_V)
    16f0:	00100b13          	li	s6,1
    a += PGSIZE;
    16f4:	00001bb7          	lui	s7,0x1
    16f8:	0540006f          	j	174c <uvmunmap+0xa4>
      panic("uvmunmap: walk");
    16fc:	00007517          	auipc	a0,0x7
    1700:	b0850513          	add	a0,a0,-1272 # 8204 <userret+0x164>
    1704:	fffff097          	auipc	ra,0xfffff
    1708:	f88080e7          	jalr	-120(ra) # 68c <panic>
      printf("va=%p pte=%p\n", a, *pte);
    170c:	00090593          	mv	a1,s2
    1710:	00007517          	auipc	a0,0x7
    1714:	b0450513          	add	a0,a0,-1276 # 8214 <userret+0x174>
    1718:	fffff097          	auipc	ra,0xfffff
    171c:	fd0080e7          	jalr	-48(ra) # 6e8 <printf>
      panic("uvmunmap: not mapped");
    1720:	00007517          	auipc	a0,0x7
    1724:	b0450513          	add	a0,a0,-1276 # 8224 <userret+0x184>
    1728:	fffff097          	auipc	ra,0xfffff
    172c:	f64080e7          	jalr	-156(ra) # 68c <panic>
      panic("uvmunmap: not a leaf");
    1730:	00007517          	auipc	a0,0x7
    1734:	b0c50513          	add	a0,a0,-1268 # 823c <userret+0x19c>
    1738:	fffff097          	auipc	ra,0xfffff
    173c:	f54080e7          	jalr	-172(ra) # 68c <panic>
    *pte = 0;
    1740:	0004a023          	sw	zero,0(s1)
    if(a == last)
    1744:	05390863          	beq	s2,s3,1794 <uvmunmap+0xec>
    a += PGSIZE;
    1748:	01790933          	add	s2,s2,s7
    if((pte = walk(pagetable, a, 0)) == 0)
    174c:	00000613          	li	a2,0
    1750:	00090593          	mv	a1,s2
    1754:	000a0513          	mv	a0,s4
    1758:	00000097          	auipc	ra,0x0
    175c:	a84080e7          	jalr	-1404(ra) # 11dc <walk>
    1760:	00050493          	mv	s1,a0
    1764:	f8050ce3          	beqz	a0,16fc <uvmunmap+0x54>
    if((*pte & PTE_V) == 0){
    1768:	00052603          	lw	a2,0(a0)
    176c:	00167793          	and	a5,a2,1
    1770:	f8078ee3          	beqz	a5,170c <uvmunmap+0x64>
    if(PTE_FLAGS(*pte) == PTE_V)
    1774:	3ff67793          	and	a5,a2,1023
    1778:	fb678ce3          	beq	a5,s6,1730 <uvmunmap+0x88>
    if(do_free){
    177c:	fc0a82e3          	beqz	s5,1740 <uvmunmap+0x98>
      pa = PTE2PA(*pte);
    1780:	00a65613          	srl	a2,a2,0xa
      kfree((void*)pa);
    1784:	00c61513          	sll	a0,a2,0xc
    1788:	fffff097          	auipc	ra,0xfffff
    178c:	2bc080e7          	jalr	700(ra) # a44 <kfree>
    1790:	fb1ff06f          	j	1740 <uvmunmap+0x98>
}
    1794:	02c12083          	lw	ra,44(sp)
    1798:	02812403          	lw	s0,40(sp)
    179c:	02412483          	lw	s1,36(sp)
    17a0:	02012903          	lw	s2,32(sp)
    17a4:	01c12983          	lw	s3,28(sp)
    17a8:	01812a03          	lw	s4,24(sp)
    17ac:	01412a83          	lw	s5,20(sp)
    17b0:	01012b03          	lw	s6,16(sp)
    17b4:	00c12b83          	lw	s7,12(sp)
    17b8:	03010113          	add	sp,sp,48
    17bc:	00008067          	ret

000017c0 <uvmcreate>:
{
    17c0:	ff010113          	add	sp,sp,-16
    17c4:	00112623          	sw	ra,12(sp)
    17c8:	00812423          	sw	s0,8(sp)
    17cc:	00912223          	sw	s1,4(sp)
    17d0:	01010413          	add	s0,sp,16
  pagetable = (pagetable_t) kalloc();
    17d4:	fffff097          	auipc	ra,0xfffff
    17d8:	3c4080e7          	jalr	964(ra) # b98 <kalloc>
  if(pagetable == 0)
    17dc:	02050863          	beqz	a0,180c <uvmcreate+0x4c>
    17e0:	00050493          	mv	s1,a0
  memset(pagetable, 0, PGSIZE);
    17e4:	00001637          	lui	a2,0x1
    17e8:	00000593          	li	a1,0
    17ec:	fffff097          	auipc	ra,0xfffff
    17f0:	68c080e7          	jalr	1676(ra) # e78 <memset>
}
    17f4:	00048513          	mv	a0,s1
    17f8:	00c12083          	lw	ra,12(sp)
    17fc:	00812403          	lw	s0,8(sp)
    1800:	00412483          	lw	s1,4(sp)
    1804:	01010113          	add	sp,sp,16
    1808:	00008067          	ret
    panic("uvmcreate: out of memory");
    180c:	00007517          	auipc	a0,0x7
    1810:	a4850513          	add	a0,a0,-1464 # 8254 <userret+0x1b4>
    1814:	fffff097          	auipc	ra,0xfffff
    1818:	e78080e7          	jalr	-392(ra) # 68c <panic>

0000181c <uvminit>:
{
    181c:	fe010113          	add	sp,sp,-32
    1820:	00112e23          	sw	ra,28(sp)
    1824:	00812c23          	sw	s0,24(sp)
    1828:	00912a23          	sw	s1,20(sp)
    182c:	01212823          	sw	s2,16(sp)
    1830:	01312623          	sw	s3,12(sp)
    1834:	01412423          	sw	s4,8(sp)
    1838:	02010413          	add	s0,sp,32
  if(sz >= PGSIZE)
    183c:	000017b7          	lui	a5,0x1
    1840:	06f67e63          	bgeu	a2,a5,18bc <uvminit+0xa0>
    1844:	00050a13          	mv	s4,a0
    1848:	00058993          	mv	s3,a1
    184c:	00060493          	mv	s1,a2
  mem = kalloc();
    1850:	fffff097          	auipc	ra,0xfffff
    1854:	348080e7          	jalr	840(ra) # b98 <kalloc>
    1858:	00050913          	mv	s2,a0
  memset(mem, 0, PGSIZE);
    185c:	00001637          	lui	a2,0x1
    1860:	00000593          	li	a1,0
    1864:	fffff097          	auipc	ra,0xfffff
    1868:	614080e7          	jalr	1556(ra) # e78 <memset>
  mappages(pagetable, 0, PGSIZE, (uint32)mem, PTE_W|PTE_R|PTE_X|PTE_U);
    186c:	01e00713          	li	a4,30
    1870:	00090693          	mv	a3,s2
    1874:	00001637          	lui	a2,0x1
    1878:	00000593          	li	a1,0
    187c:	000a0513          	mv	a0,s4
    1880:	00000097          	auipc	ra,0x0
    1884:	bec080e7          	jalr	-1044(ra) # 146c <mappages>
  memmove(mem, src, sz);
    1888:	00048613          	mv	a2,s1
    188c:	00098593          	mv	a1,s3
    1890:	00090513          	mv	a0,s2
    1894:	fffff097          	auipc	ra,0xfffff
    1898:	660080e7          	jalr	1632(ra) # ef4 <memmove>
}
    189c:	01c12083          	lw	ra,28(sp)
    18a0:	01812403          	lw	s0,24(sp)
    18a4:	01412483          	lw	s1,20(sp)
    18a8:	01012903          	lw	s2,16(sp)
    18ac:	00c12983          	lw	s3,12(sp)
    18b0:	00812a03          	lw	s4,8(sp)
    18b4:	02010113          	add	sp,sp,32
    18b8:	00008067          	ret
    panic("inituvm: more than a page");
    18bc:	00007517          	auipc	a0,0x7
    18c0:	9b450513          	add	a0,a0,-1612 # 8270 <userret+0x1d0>
    18c4:	fffff097          	auipc	ra,0xfffff
    18c8:	dc8080e7          	jalr	-568(ra) # 68c <panic>

000018cc <uvmdealloc>:
{
    18cc:	ff010113          	add	sp,sp,-16
    18d0:	00112623          	sw	ra,12(sp)
    18d4:	00812423          	sw	s0,8(sp)
    18d8:	00912223          	sw	s1,4(sp)
    18dc:	01010413          	add	s0,sp,16
    return oldsz;
    18e0:	00058493          	mv	s1,a1
  if(newsz >= oldsz)
    18e4:	02b67463          	bgeu	a2,a1,190c <uvmdealloc+0x40>
    18e8:	00060493          	mv	s1,a2
  uint32 newup = PGROUNDUP(newsz);
    18ec:	000017b7          	lui	a5,0x1
    18f0:	fff78793          	add	a5,a5,-1 # fff <strncpy+0x1b>
    18f4:	00f60733          	add	a4,a2,a5
    18f8:	fffff6b7          	lui	a3,0xfffff
    18fc:	00d77733          	and	a4,a4,a3
  if(newup < PGROUNDUP(oldsz))
    1900:	00f587b3          	add	a5,a1,a5
    1904:	00d7f7b3          	and	a5,a5,a3
    1908:	00f76e63          	bltu	a4,a5,1924 <uvmdealloc+0x58>
}
    190c:	00048513          	mv	a0,s1
    1910:	00c12083          	lw	ra,12(sp)
    1914:	00812403          	lw	s0,8(sp)
    1918:	00412483          	lw	s1,4(sp)
    191c:	01010113          	add	sp,sp,16
    1920:	00008067          	ret
    uvmunmap(pagetable, newup, oldsz - newup, 1);
    1924:	00100693          	li	a3,1
    1928:	40e58633          	sub	a2,a1,a4
    192c:	00070593          	mv	a1,a4
    1930:	00000097          	auipc	ra,0x0
    1934:	d78080e7          	jalr	-648(ra) # 16a8 <uvmunmap>
    1938:	fd5ff06f          	j	190c <uvmdealloc+0x40>

0000193c <uvmalloc>:
  if(newsz < oldsz)
    193c:	10b66263          	bltu	a2,a1,1a40 <uvmalloc+0x104>
{
    1940:	fe010113          	add	sp,sp,-32
    1944:	00112e23          	sw	ra,28(sp)
    1948:	00812c23          	sw	s0,24(sp)
    194c:	00912a23          	sw	s1,20(sp)
    1950:	01212823          	sw	s2,16(sp)
    1954:	01312623          	sw	s3,12(sp)
    1958:	01412423          	sw	s4,8(sp)
    195c:	01512223          	sw	s5,4(sp)
    1960:	02010413          	add	s0,sp,32
    1964:	00050a93          	mv	s5,a0
    1968:	00060a13          	mv	s4,a2
  oldsz = PGROUNDUP(oldsz);
    196c:	000017b7          	lui	a5,0x1
    1970:	fff78793          	add	a5,a5,-1 # fff <strncpy+0x1b>
    1974:	00f585b3          	add	a1,a1,a5
    1978:	fffff7b7          	lui	a5,0xfffff
    197c:	00f5f9b3          	and	s3,a1,a5
  for(; a < newsz; a += PGSIZE){
    1980:	0cc9f463          	bgeu	s3,a2,1a48 <uvmalloc+0x10c>
  a = oldsz;
    1984:	00098913          	mv	s2,s3
    mem = kalloc();
    1988:	fffff097          	auipc	ra,0xfffff
    198c:	210080e7          	jalr	528(ra) # b98 <kalloc>
    1990:	00050493          	mv	s1,a0
    if(mem == 0){
    1994:	04050463          	beqz	a0,19dc <uvmalloc+0xa0>
    memset(mem, 0, PGSIZE);
    1998:	00001637          	lui	a2,0x1
    199c:	00000593          	li	a1,0
    19a0:	fffff097          	auipc	ra,0xfffff
    19a4:	4d8080e7          	jalr	1240(ra) # e78 <memset>
    if(mappages(pagetable, a, PGSIZE, (uint32)mem, PTE_W|PTE_X|PTE_R|PTE_U) != 0){
    19a8:	01e00713          	li	a4,30
    19ac:	00048693          	mv	a3,s1
    19b0:	00001637          	lui	a2,0x1
    19b4:	00090593          	mv	a1,s2
    19b8:	000a8513          	mv	a0,s5
    19bc:	00000097          	auipc	ra,0x0
    19c0:	ab0080e7          	jalr	-1360(ra) # 146c <mappages>
    19c4:	04051a63          	bnez	a0,1a18 <uvmalloc+0xdc>
  for(; a < newsz; a += PGSIZE){
    19c8:	000017b7          	lui	a5,0x1
    19cc:	00f90933          	add	s2,s2,a5
    19d0:	fb496ce3          	bltu	s2,s4,1988 <uvmalloc+0x4c>
  return newsz;
    19d4:	000a0513          	mv	a0,s4
    19d8:	01c0006f          	j	19f4 <uvmalloc+0xb8>
      uvmdealloc(pagetable, a, oldsz);
    19dc:	00098613          	mv	a2,s3
    19e0:	00090593          	mv	a1,s2
    19e4:	000a8513          	mv	a0,s5
    19e8:	00000097          	auipc	ra,0x0
    19ec:	ee4080e7          	jalr	-284(ra) # 18cc <uvmdealloc>
      return 0;
    19f0:	00000513          	li	a0,0
}
    19f4:	01c12083          	lw	ra,28(sp)
    19f8:	01812403          	lw	s0,24(sp)
    19fc:	01412483          	lw	s1,20(sp)
    1a00:	01012903          	lw	s2,16(sp)
    1a04:	00c12983          	lw	s3,12(sp)
    1a08:	00812a03          	lw	s4,8(sp)
    1a0c:	00412a83          	lw	s5,4(sp)
    1a10:	02010113          	add	sp,sp,32
    1a14:	00008067          	ret
      kfree(mem);
    1a18:	00048513          	mv	a0,s1
    1a1c:	fffff097          	auipc	ra,0xfffff
    1a20:	028080e7          	jalr	40(ra) # a44 <kfree>
      uvmdealloc(pagetable, a, oldsz);
    1a24:	00098613          	mv	a2,s3
    1a28:	00090593          	mv	a1,s2
    1a2c:	000a8513          	mv	a0,s5
    1a30:	00000097          	auipc	ra,0x0
    1a34:	e9c080e7          	jalr	-356(ra) # 18cc <uvmdealloc>
      return 0;
    1a38:	00000513          	li	a0,0
    1a3c:	fb9ff06f          	j	19f4 <uvmalloc+0xb8>
    return oldsz;
    1a40:	00058513          	mv	a0,a1
}
    1a44:	00008067          	ret
  return newsz;
    1a48:	00060513          	mv	a0,a2
    1a4c:	fa9ff06f          	j	19f4 <uvmalloc+0xb8>

00001a50 <uvmfree>:

// Free user memory pages,
// then free page-table pages.
void
uvmfree(pagetable_t pagetable, uint32 sz)
{
    1a50:	ff010113          	add	sp,sp,-16
    1a54:	00112623          	sw	ra,12(sp)
    1a58:	00812423          	sw	s0,8(sp)
    1a5c:	00912223          	sw	s1,4(sp)
    1a60:	01010413          	add	s0,sp,16
    1a64:	00050493          	mv	s1,a0
    1a68:	00058613          	mv	a2,a1
  uvmunmap(pagetable, 0, sz, 1);
    1a6c:	00100693          	li	a3,1
    1a70:	00000593          	li	a1,0
    1a74:	00000097          	auipc	ra,0x0
    1a78:	c34080e7          	jalr	-972(ra) # 16a8 <uvmunmap>
  freewalk(pagetable);
    1a7c:	00048513          	mv	a0,s1
    1a80:	00000097          	auipc	ra,0x0
    1a84:	824080e7          	jalr	-2012(ra) # 12a4 <freewalk>
}
    1a88:	00c12083          	lw	ra,12(sp)
    1a8c:	00812403          	lw	s0,8(sp)
    1a90:	00412483          	lw	s1,4(sp)
    1a94:	01010113          	add	sp,sp,16
    1a98:	00008067          	ret

00001a9c <uvmcopy>:
  pte_t *pte;
  uint32 pa, i;
  uint flags;
  char *mem;

  for(i = 0; i < sz; i += PGSIZE){
    1a9c:	12060a63          	beqz	a2,1bd0 <uvmcopy+0x134>
{
    1aa0:	fd010113          	add	sp,sp,-48
    1aa4:	02112623          	sw	ra,44(sp)
    1aa8:	02812423          	sw	s0,40(sp)
    1aac:	02912223          	sw	s1,36(sp)
    1ab0:	03212023          	sw	s2,32(sp)
    1ab4:	01312e23          	sw	s3,28(sp)
    1ab8:	01412c23          	sw	s4,24(sp)
    1abc:	01512a23          	sw	s5,20(sp)
    1ac0:	01612823          	sw	s6,16(sp)
    1ac4:	01712623          	sw	s7,12(sp)
    1ac8:	03010413          	add	s0,sp,48
    1acc:	00050b13          	mv	s6,a0
    1ad0:	00058a93          	mv	s5,a1
    1ad4:	00060a13          	mv	s4,a2
  for(i = 0; i < sz; i += PGSIZE){
    1ad8:	00000993          	li	s3,0
    if((pte = walk(old, i, 0)) == 0)
    1adc:	00000613          	li	a2,0
    1ae0:	00098593          	mv	a1,s3
    1ae4:	000b0513          	mv	a0,s6
    1ae8:	fffff097          	auipc	ra,0xfffff
    1aec:	6f4080e7          	jalr	1780(ra) # 11dc <walk>
    1af0:	06050663          	beqz	a0,1b5c <uvmcopy+0xc0>
      panic("uvmcopy: pte should exist");
    if((*pte & PTE_V) == 0)
    1af4:	00052703          	lw	a4,0(a0)
    1af8:	00177793          	and	a5,a4,1
    1afc:	06078863          	beqz	a5,1b6c <uvmcopy+0xd0>
      panic("uvmcopy: page not present");
    pa = PTE2PA(*pte);
    1b00:	00a75593          	srl	a1,a4,0xa
    1b04:	00c59b93          	sll	s7,a1,0xc
    flags = PTE_FLAGS(*pte);
    1b08:	3ff77493          	and	s1,a4,1023
    if((mem = kalloc()) == 0)
    1b0c:	fffff097          	auipc	ra,0xfffff
    1b10:	08c080e7          	jalr	140(ra) # b98 <kalloc>
    1b14:	00050913          	mv	s2,a0
    1b18:	06050863          	beqz	a0,1b88 <uvmcopy+0xec>
      goto err;
    memmove(mem, (char*)pa, PGSIZE);
    1b1c:	00001637          	lui	a2,0x1
    1b20:	000b8593          	mv	a1,s7
    1b24:	fffff097          	auipc	ra,0xfffff
    1b28:	3d0080e7          	jalr	976(ra) # ef4 <memmove>
    if(mappages(new, i, PGSIZE, (uint32)mem, flags) != 0){
    1b2c:	00048713          	mv	a4,s1
    1b30:	00090693          	mv	a3,s2
    1b34:	00001637          	lui	a2,0x1
    1b38:	00098593          	mv	a1,s3
    1b3c:	000a8513          	mv	a0,s5
    1b40:	00000097          	auipc	ra,0x0
    1b44:	92c080e7          	jalr	-1748(ra) # 146c <mappages>
    1b48:	02051a63          	bnez	a0,1b7c <uvmcopy+0xe0>
  for(i = 0; i < sz; i += PGSIZE){
    1b4c:	000017b7          	lui	a5,0x1
    1b50:	00f989b3          	add	s3,s3,a5
    1b54:	f949e4e3          	bltu	s3,s4,1adc <uvmcopy+0x40>
    1b58:	04c0006f          	j	1ba4 <uvmcopy+0x108>
      panic("uvmcopy: pte should exist");
    1b5c:	00006517          	auipc	a0,0x6
    1b60:	73050513          	add	a0,a0,1840 # 828c <userret+0x1ec>
    1b64:	fffff097          	auipc	ra,0xfffff
    1b68:	b28080e7          	jalr	-1240(ra) # 68c <panic>
      panic("uvmcopy: page not present");
    1b6c:	00006517          	auipc	a0,0x6
    1b70:	73c50513          	add	a0,a0,1852 # 82a8 <userret+0x208>
    1b74:	fffff097          	auipc	ra,0xfffff
    1b78:	b18080e7          	jalr	-1256(ra) # 68c <panic>
      kfree(mem);
    1b7c:	00090513          	mv	a0,s2
    1b80:	fffff097          	auipc	ra,0xfffff
    1b84:	ec4080e7          	jalr	-316(ra) # a44 <kfree>
    }
  }
  return 0;

 err:
  uvmunmap(new, 0, i, 1);
    1b88:	00100693          	li	a3,1
    1b8c:	00098613          	mv	a2,s3
    1b90:	00000593          	li	a1,0
    1b94:	000a8513          	mv	a0,s5
    1b98:	00000097          	auipc	ra,0x0
    1b9c:	b10080e7          	jalr	-1264(ra) # 16a8 <uvmunmap>
  return -1;
    1ba0:	fff00513          	li	a0,-1
}
    1ba4:	02c12083          	lw	ra,44(sp)
    1ba8:	02812403          	lw	s0,40(sp)
    1bac:	02412483          	lw	s1,36(sp)
    1bb0:	02012903          	lw	s2,32(sp)
    1bb4:	01c12983          	lw	s3,28(sp)
    1bb8:	01812a03          	lw	s4,24(sp)
    1bbc:	01412a83          	lw	s5,20(sp)
    1bc0:	01012b03          	lw	s6,16(sp)
    1bc4:	00c12b83          	lw	s7,12(sp)
    1bc8:	03010113          	add	sp,sp,48
    1bcc:	00008067          	ret
  return 0;
    1bd0:	00000513          	li	a0,0
}
    1bd4:	00008067          	ret

00001bd8 <uvmclear>:

// mark a PTE invalid for user access.
// used by exec for the user stack guard page.
void
uvmclear(pagetable_t pagetable, uint32 va)
{
    1bd8:	ff010113          	add	sp,sp,-16
    1bdc:	00112623          	sw	ra,12(sp)
    1be0:	00812423          	sw	s0,8(sp)
    1be4:	01010413          	add	s0,sp,16
  pte_t *pte;
  
  pte = walk(pagetable, va, 0);
    1be8:	00000613          	li	a2,0
    1bec:	fffff097          	auipc	ra,0xfffff
    1bf0:	5f0080e7          	jalr	1520(ra) # 11dc <walk>
  if(pte == 0)
    1bf4:	02050063          	beqz	a0,1c14 <uvmclear+0x3c>
    panic("uvmclear");
  *pte &= ~PTE_U;
    1bf8:	00052783          	lw	a5,0(a0)
    1bfc:	fef7f793          	and	a5,a5,-17
    1c00:	00f52023          	sw	a5,0(a0)
}
    1c04:	00c12083          	lw	ra,12(sp)
    1c08:	00812403          	lw	s0,8(sp)
    1c0c:	01010113          	add	sp,sp,16
    1c10:	00008067          	ret
    panic("uvmclear");
    1c14:	00006517          	auipc	a0,0x6
    1c18:	6b050513          	add	a0,a0,1712 # 82c4 <userret+0x224>
    1c1c:	fffff097          	auipc	ra,0xfffff
    1c20:	a70080e7          	jalr	-1424(ra) # 68c <panic>

00001c24 <copyout>:
int
copyout(pagetable_t pagetable, uint32 dstva, char *src, uint32 len)
{
  uint32 n, va0, pa0;

  while(len > 0){
    1c24:	0a068663          	beqz	a3,1cd0 <copyout+0xac>
{
    1c28:	fd010113          	add	sp,sp,-48
    1c2c:	02112623          	sw	ra,44(sp)
    1c30:	02812423          	sw	s0,40(sp)
    1c34:	02912223          	sw	s1,36(sp)
    1c38:	03212023          	sw	s2,32(sp)
    1c3c:	01312e23          	sw	s3,28(sp)
    1c40:	01412c23          	sw	s4,24(sp)
    1c44:	01512a23          	sw	s5,20(sp)
    1c48:	01612823          	sw	s6,16(sp)
    1c4c:	01712623          	sw	s7,12(sp)
    1c50:	01812423          	sw	s8,8(sp)
    1c54:	03010413          	add	s0,sp,48
    1c58:	00050b13          	mv	s6,a0
    1c5c:	00058c13          	mv	s8,a1
    1c60:	00060a13          	mv	s4,a2
    1c64:	00068993          	mv	s3,a3
    va0 = PGROUNDDOWN(dstva);
    1c68:	fffffbb7          	lui	s7,0xfffff
    pa0 = walkaddr(pagetable, va0);
    if(pa0 == 0)
      return -1;
    n = PGSIZE - (dstva - va0);
    1c6c:	00001ab7          	lui	s5,0x1
    1c70:	02c0006f          	j	1c9c <copyout+0x78>
    if(n > len)
      n = len;
    memmove((void *)(pa0 + (dstva - va0)), src, n);
    1c74:	01850533          	add	a0,a0,s8
    1c78:	00048613          	mv	a2,s1
    1c7c:	000a0593          	mv	a1,s4
    1c80:	41250533          	sub	a0,a0,s2
    1c84:	fffff097          	auipc	ra,0xfffff
    1c88:	270080e7          	jalr	624(ra) # ef4 <memmove>

    len -= n;
    1c8c:	409989b3          	sub	s3,s3,s1
    src += n;
    1c90:	009a0a33          	add	s4,s4,s1
    dstva = va0 + PGSIZE;
    1c94:	01590c33          	add	s8,s2,s5
  while(len > 0){
    1c98:	02098863          	beqz	s3,1cc8 <copyout+0xa4>
    va0 = PGROUNDDOWN(dstva);
    1c9c:	017c7933          	and	s2,s8,s7
    pa0 = walkaddr(pagetable, va0);
    1ca0:	00090593          	mv	a1,s2
    1ca4:	000b0513          	mv	a0,s6
    1ca8:	fffff097          	auipc	ra,0xfffff
    1cac:	6d8080e7          	jalr	1752(ra) # 1380 <walkaddr>
    if(pa0 == 0)
    1cb0:	02050463          	beqz	a0,1cd8 <copyout+0xb4>
    n = PGSIZE - (dstva - va0);
    1cb4:	418904b3          	sub	s1,s2,s8
    1cb8:	015484b3          	add	s1,s1,s5
    1cbc:	fa99fce3          	bgeu	s3,s1,1c74 <copyout+0x50>
    1cc0:	00098493          	mv	s1,s3
    1cc4:	fb1ff06f          	j	1c74 <copyout+0x50>
  }
  return 0;
    1cc8:	00000513          	li	a0,0
    1ccc:	0100006f          	j	1cdc <copyout+0xb8>
    1cd0:	00000513          	li	a0,0
}
    1cd4:	00008067          	ret
      return -1;
    1cd8:	fff00513          	li	a0,-1
}
    1cdc:	02c12083          	lw	ra,44(sp)
    1ce0:	02812403          	lw	s0,40(sp)
    1ce4:	02412483          	lw	s1,36(sp)
    1ce8:	02012903          	lw	s2,32(sp)
    1cec:	01c12983          	lw	s3,28(sp)
    1cf0:	01812a03          	lw	s4,24(sp)
    1cf4:	01412a83          	lw	s5,20(sp)
    1cf8:	01012b03          	lw	s6,16(sp)
    1cfc:	00c12b83          	lw	s7,12(sp)
    1d00:	00812c03          	lw	s8,8(sp)
    1d04:	03010113          	add	sp,sp,48
    1d08:	00008067          	ret

00001d0c <copyin>:
int
copyin(pagetable_t pagetable, char *dst, uint32 srcva, uint32 len)
{
  uint32 n, va0, pa0;

  while(len > 0){
    1d0c:	0a068663          	beqz	a3,1db8 <copyin+0xac>
{
    1d10:	fd010113          	add	sp,sp,-48
    1d14:	02112623          	sw	ra,44(sp)
    1d18:	02812423          	sw	s0,40(sp)
    1d1c:	02912223          	sw	s1,36(sp)
    1d20:	03212023          	sw	s2,32(sp)
    1d24:	01312e23          	sw	s3,28(sp)
    1d28:	01412c23          	sw	s4,24(sp)
    1d2c:	01512a23          	sw	s5,20(sp)
    1d30:	01612823          	sw	s6,16(sp)
    1d34:	01712623          	sw	s7,12(sp)
    1d38:	01812423          	sw	s8,8(sp)
    1d3c:	03010413          	add	s0,sp,48
    1d40:	00050b13          	mv	s6,a0
    1d44:	00058a13          	mv	s4,a1
    1d48:	00060c13          	mv	s8,a2
    1d4c:	00068993          	mv	s3,a3
    va0 = PGROUNDDOWN(srcva);
    1d50:	fffffbb7          	lui	s7,0xfffff
    pa0 = walkaddr(pagetable, va0);
    if(pa0 == 0)
      return -1;
    n = PGSIZE - (srcva - va0);
    1d54:	00001ab7          	lui	s5,0x1
    1d58:	02c0006f          	j	1d84 <copyin+0x78>
    if(n > len)
      n = len;
    memmove(dst, (void *)(pa0 + (srcva - va0)), n);
    1d5c:	018505b3          	add	a1,a0,s8
    1d60:	00048613          	mv	a2,s1
    1d64:	412585b3          	sub	a1,a1,s2
    1d68:	000a0513          	mv	a0,s4
    1d6c:	fffff097          	auipc	ra,0xfffff
    1d70:	188080e7          	jalr	392(ra) # ef4 <memmove>

    len -= n;
    1d74:	409989b3          	sub	s3,s3,s1
    dst += n;
    1d78:	009a0a33          	add	s4,s4,s1
    srcva = va0 + PGSIZE;
    1d7c:	01590c33          	add	s8,s2,s5
  while(len > 0){
    1d80:	02098863          	beqz	s3,1db0 <copyin+0xa4>
    va0 = PGROUNDDOWN(srcva);
    1d84:	017c7933          	and	s2,s8,s7
    pa0 = walkaddr(pagetable, va0);
    1d88:	00090593          	mv	a1,s2
    1d8c:	000b0513          	mv	a0,s6
    1d90:	fffff097          	auipc	ra,0xfffff
    1d94:	5f0080e7          	jalr	1520(ra) # 1380 <walkaddr>
    if(pa0 == 0)
    1d98:	02050463          	beqz	a0,1dc0 <copyin+0xb4>
    n = PGSIZE - (srcva - va0);
    1d9c:	418904b3          	sub	s1,s2,s8
    1da0:	015484b3          	add	s1,s1,s5
    1da4:	fa99fce3          	bgeu	s3,s1,1d5c <copyin+0x50>
    1da8:	00098493          	mv	s1,s3
    1dac:	fb1ff06f          	j	1d5c <copyin+0x50>
  }
  return 0;
    1db0:	00000513          	li	a0,0
    1db4:	0100006f          	j	1dc4 <copyin+0xb8>
    1db8:	00000513          	li	a0,0
}
    1dbc:	00008067          	ret
      return -1;
    1dc0:	fff00513          	li	a0,-1
}
    1dc4:	02c12083          	lw	ra,44(sp)
    1dc8:	02812403          	lw	s0,40(sp)
    1dcc:	02412483          	lw	s1,36(sp)
    1dd0:	02012903          	lw	s2,32(sp)
    1dd4:	01c12983          	lw	s3,28(sp)
    1dd8:	01812a03          	lw	s4,24(sp)
    1ddc:	01412a83          	lw	s5,20(sp)
    1de0:	01012b03          	lw	s6,16(sp)
    1de4:	00c12b83          	lw	s7,12(sp)
    1de8:	00812c03          	lw	s8,8(sp)
    1dec:	03010113          	add	sp,sp,48
    1df0:	00008067          	ret

00001df4 <copyinstr>:
copyinstr(pagetable_t pagetable, char *dst, uint32 srcva, uint32 max)
{
  uint32 n, va0, pa0;
  int got_null = 0;

  while(got_null == 0 && max > 0){
    1df4:	10068863          	beqz	a3,1f04 <copyinstr+0x110>
{
    1df8:	fd010113          	add	sp,sp,-48
    1dfc:	02112623          	sw	ra,44(sp)
    1e00:	02812423          	sw	s0,40(sp)
    1e04:	02912223          	sw	s1,36(sp)
    1e08:	03212023          	sw	s2,32(sp)
    1e0c:	01312e23          	sw	s3,28(sp)
    1e10:	01412c23          	sw	s4,24(sp)
    1e14:	01512a23          	sw	s5,20(sp)
    1e18:	01612823          	sw	s6,16(sp)
    1e1c:	01712623          	sw	s7,12(sp)
    1e20:	03010413          	add	s0,sp,48
    1e24:	00050a13          	mv	s4,a0
    1e28:	00058b13          	mv	s6,a1
    1e2c:	00060b93          	mv	s7,a2
    1e30:	00068493          	mv	s1,a3
    va0 = PGROUNDDOWN(srcva);
    1e34:	fffffab7          	lui	s5,0xfffff
    pa0 = walkaddr(pagetable, va0);
    if(pa0 == 0)
      return -1;
    n = PGSIZE - (srcva - va0);
    1e38:	000019b7          	lui	s3,0x1
    1e3c:	0440006f          	j	1e80 <copyinstr+0x8c>
      n = max;

    char *p = (char *) (pa0 + (srcva - va0));
    while(n > 0){
      if(*p == '\0'){
        *dst = '\0';
    1e40:	00078023          	sb	zero,0(a5) # 1000 <strncpy+0x1c>
    1e44:	00100793          	li	a5,1
      dst++;
    }

    srcva = va0 + PGSIZE;
  }
  if(got_null){
    1e48:	fff78513          	add	a0,a5,-1
    return 0;
  } else {
    return -1;
  }
}
    1e4c:	02c12083          	lw	ra,44(sp)
    1e50:	02812403          	lw	s0,40(sp)
    1e54:	02412483          	lw	s1,36(sp)
    1e58:	02012903          	lw	s2,32(sp)
    1e5c:	01c12983          	lw	s3,28(sp)
    1e60:	01812a03          	lw	s4,24(sp)
    1e64:	01412a83          	lw	s5,20(sp)
    1e68:	01012b03          	lw	s6,16(sp)
    1e6c:	00c12b83          	lw	s7,12(sp)
    1e70:	03010113          	add	sp,sp,48
    1e74:	00008067          	ret
    srcva = va0 + PGSIZE;
    1e78:	01390bb3          	add	s7,s2,s3
  while(got_null == 0 && max > 0){
    1e7c:	06048c63          	beqz	s1,1ef4 <copyinstr+0x100>
    va0 = PGROUNDDOWN(srcva);
    1e80:	015bf933          	and	s2,s7,s5
    pa0 = walkaddr(pagetable, va0);
    1e84:	00090593          	mv	a1,s2
    1e88:	000a0513          	mv	a0,s4
    1e8c:	fffff097          	auipc	ra,0xfffff
    1e90:	4f4080e7          	jalr	1268(ra) # 1380 <walkaddr>
    if(pa0 == 0)
    1e94:	06050463          	beqz	a0,1efc <copyinstr+0x108>
    n = PGSIZE - (srcva - va0);
    1e98:	417906b3          	sub	a3,s2,s7
    1e9c:	013686b3          	add	a3,a3,s3
    1ea0:	00d4f463          	bgeu	s1,a3,1ea8 <copyinstr+0xb4>
    1ea4:	00048693          	mv	a3,s1
    char *p = (char *) (pa0 + (srcva - va0));
    1ea8:	01750533          	add	a0,a0,s7
    1eac:	41250533          	sub	a0,a0,s2
    while(n > 0){
    1eb0:	fc0684e3          	beqz	a3,1e78 <copyinstr+0x84>
    1eb4:	000b0793          	mv	a5,s6
    1eb8:	000b0813          	mv	a6,s6
      if(*p == '\0'){
    1ebc:	41650633          	sub	a2,a0,s6
    while(n > 0){
    1ec0:	00db06b3          	add	a3,s6,a3
    1ec4:	00078593          	mv	a1,a5
      if(*p == '\0'){
    1ec8:	00f60733          	add	a4,a2,a5
    1ecc:	00074703          	lbu	a4,0(a4) # fffff000 <end+0xfffddfec>
    1ed0:	f60708e3          	beqz	a4,1e40 <copyinstr+0x4c>
        *dst = *p;
    1ed4:	00e78023          	sb	a4,0(a5)
      dst++;
    1ed8:	00178793          	add	a5,a5,1
    while(n > 0){
    1edc:	fed794e3          	bne	a5,a3,1ec4 <copyinstr+0xd0>
    1ee0:	fff48493          	add	s1,s1,-1
    1ee4:	010484b3          	add	s1,s1,a6
      --max;
    1ee8:	40b484b3          	sub	s1,s1,a1
      dst++;
    1eec:	00078b13          	mv	s6,a5
    1ef0:	f89ff06f          	j	1e78 <copyinstr+0x84>
    1ef4:	00000793          	li	a5,0
    1ef8:	f51ff06f          	j	1e48 <copyinstr+0x54>
      return -1;
    1efc:	fff00513          	li	a0,-1
    1f00:	f4dff06f          	j	1e4c <copyinstr+0x58>
  int got_null = 0;
    1f04:	00000793          	li	a5,0
  if(got_null){
    1f08:	fff78513          	add	a0,a5,-1
}
    1f0c:	00008067          	ret

00001f10 <wakeup1>:

// Wake up p if it is sleeping in wait(); used by exit().
// Caller must hold p->lock.
static void
wakeup1(struct proc *p)
{
    1f10:	ff010113          	add	sp,sp,-16
    1f14:	00112623          	sw	ra,12(sp)
    1f18:	00812423          	sw	s0,8(sp)
    1f1c:	00912223          	sw	s1,4(sp)
    1f20:	01010413          	add	s0,sp,16
    1f24:	00050493          	mv	s1,a0
  if(!holding(&p->lock))
    1f28:	fffff097          	auipc	ra,0xfffff
    1f2c:	e18080e7          	jalr	-488(ra) # d40 <holding>
    1f30:	02050063          	beqz	a0,1f50 <wakeup1+0x40>
    panic("wakeup1");
  if(p->chan == p && p->state == SLEEPING) {
    1f34:	0144a783          	lw	a5,20(s1)
    1f38:	02978463          	beq	a5,s1,1f60 <wakeup1+0x50>
    p->state = RUNNABLE;
  }
}
    1f3c:	00c12083          	lw	ra,12(sp)
    1f40:	00812403          	lw	s0,8(sp)
    1f44:	00412483          	lw	s1,4(sp)
    1f48:	01010113          	add	sp,sp,16
    1f4c:	00008067          	ret
    panic("wakeup1");
    1f50:	00006517          	auipc	a0,0x6
    1f54:	38050513          	add	a0,a0,896 # 82d0 <userret+0x230>
    1f58:	ffffe097          	auipc	ra,0xffffe
    1f5c:	734080e7          	jalr	1844(ra) # 68c <panic>
  if(p->chan == p && p->state == SLEEPING) {
    1f60:	00c4a703          	lw	a4,12(s1)
    1f64:	00100793          	li	a5,1
    1f68:	fcf71ae3          	bne	a4,a5,1f3c <wakeup1+0x2c>
    p->state = RUNNABLE;
    1f6c:	00200793          	li	a5,2
    1f70:	00f4a623          	sw	a5,12(s1)
}
    1f74:	fc9ff06f          	j	1f3c <wakeup1+0x2c>

00001f78 <procinit>:
{
    1f78:	fd010113          	add	sp,sp,-48
    1f7c:	02112623          	sw	ra,44(sp)
    1f80:	02812423          	sw	s0,40(sp)
    1f84:	02912223          	sw	s1,36(sp)
    1f88:	03212023          	sw	s2,32(sp)
    1f8c:	01312e23          	sw	s3,28(sp)
    1f90:	01412c23          	sw	s4,24(sp)
    1f94:	01512a23          	sw	s5,20(sp)
    1f98:	01612823          	sw	s6,16(sp)
    1f9c:	01712623          	sw	s7,12(sp)
    1fa0:	03010413          	add	s0,sp,48
  initlock(&pid_lock, "nextpid");
    1fa4:	00006597          	auipc	a1,0x6
    1fa8:	33458593          	add	a1,a1,820 # 82d8 <userret+0x238>
    1fac:	00010517          	auipc	a0,0x10
    1fb0:	50c50513          	add	a0,a0,1292 # 124b8 <pid_lock>
    1fb4:	fffff097          	auipc	ra,0xfffff
    1fb8:	c6c080e7          	jalr	-916(ra) # c20 <initlock>
  for(p = proc; p < &proc[NPROC]; p++) {
    1fbc:	00010917          	auipc	s2,0x10
    1fc0:	72890913          	add	s2,s2,1832 # 126e4 <proc>
      initlock(&p->lock, "proc");
    1fc4:	00006b97          	auipc	s7,0x6
    1fc8:	31cb8b93          	add	s7,s7,796 # 82e0 <userret+0x240>
      uint32 va = KSTACK((int) (p - proc));
    1fcc:	00090b13          	mv	s6,s2
    1fd0:	aaaab9b7          	lui	s3,0xaaaab
    1fd4:	aab98993          	add	s3,s3,-1365 # aaaaaaab <end+0xaaa89a97>
    1fd8:	fffffab7          	lui	s5,0xfffff
  for(p = proc; p < &proc[NPROC]; p++) {
    1fdc:	00013a17          	auipc	s4,0x13
    1fe0:	708a0a13          	add	s4,s4,1800 # 156e4 <tickslock>
      initlock(&p->lock, "proc");
    1fe4:	000b8593          	mv	a1,s7
    1fe8:	00090513          	mv	a0,s2
    1fec:	fffff097          	auipc	ra,0xfffff
    1ff0:	c34080e7          	jalr	-972(ra) # c20 <initlock>
      char *pa = kalloc();
    1ff4:	fffff097          	auipc	ra,0xfffff
    1ff8:	ba4080e7          	jalr	-1116(ra) # b98 <kalloc>
    1ffc:	00050593          	mv	a1,a0
      if(pa == 0)
    2000:	06050863          	beqz	a0,2070 <procinit+0xf8>
      uint32 va = KSTACK((int) (p - proc));
    2004:	416904b3          	sub	s1,s2,s6
    2008:	4064d493          	sra	s1,s1,0x6
    200c:	033484b3          	mul	s1,s1,s3
    2010:	00148493          	add	s1,s1,1
    2014:	00d49493          	sll	s1,s1,0xd
    2018:	409a84b3          	sub	s1,s5,s1
      kvmmap(va, (uint32)pa, PGSIZE, PTE_R | PTE_W);
    201c:	00600693          	li	a3,6
    2020:	00001637          	lui	a2,0x1
    2024:	00048513          	mv	a0,s1
    2028:	fffff097          	auipc	ra,0xfffff
    202c:	528080e7          	jalr	1320(ra) # 1550 <kvmmap>
      p->kstack = va;
    2030:	02992223          	sw	s1,36(s2)
  for(p = proc; p < &proc[NPROC]; p++) {
    2034:	0c090913          	add	s2,s2,192
    2038:	fb4916e3          	bne	s2,s4,1fe4 <procinit+0x6c>
  kvminithart();
    203c:	fffff097          	auipc	ra,0xfffff
    2040:	310080e7          	jalr	784(ra) # 134c <kvminithart>
}
    2044:	02c12083          	lw	ra,44(sp)
    2048:	02812403          	lw	s0,40(sp)
    204c:	02412483          	lw	s1,36(sp)
    2050:	02012903          	lw	s2,32(sp)
    2054:	01c12983          	lw	s3,28(sp)
    2058:	01812a03          	lw	s4,24(sp)
    205c:	01412a83          	lw	s5,20(sp)
    2060:	01012b03          	lw	s6,16(sp)
    2064:	00c12b83          	lw	s7,12(sp)
    2068:	03010113          	add	sp,sp,48
    206c:	00008067          	ret
        panic("kalloc");
    2070:	00006517          	auipc	a0,0x6
    2074:	27850513          	add	a0,a0,632 # 82e8 <userret+0x248>
    2078:	ffffe097          	auipc	ra,0xffffe
    207c:	614080e7          	jalr	1556(ra) # 68c <panic>

00002080 <cpuid>:
{
    2080:	ff010113          	add	sp,sp,-16
    2084:	00812623          	sw	s0,12(sp)
    2088:	01010413          	add	s0,sp,16
  asm volatile("mv %0, tp" : "=r" (x) );
    208c:	00020513          	mv	a0,tp
}
    2090:	00c12403          	lw	s0,12(sp)
    2094:	01010113          	add	sp,sp,16
    2098:	00008067          	ret

0000209c <mycpu>:
mycpu(void) {
    209c:	ff010113          	add	sp,sp,-16
    20a0:	00812623          	sw	s0,12(sp)
    20a4:	01010413          	add	s0,sp,16
    20a8:	00020713          	mv	a4,tp
  struct cpu *c = &cpus[id];
    20ac:	00471793          	sll	a5,a4,0x4
    20b0:	00e787b3          	add	a5,a5,a4
    20b4:	00279793          	sll	a5,a5,0x2
}
    20b8:	00010517          	auipc	a0,0x10
    20bc:	40c50513          	add	a0,a0,1036 # 124c4 <cpus>
    20c0:	00f50533          	add	a0,a0,a5
    20c4:	00c12403          	lw	s0,12(sp)
    20c8:	01010113          	add	sp,sp,16
    20cc:	00008067          	ret

000020d0 <myproc>:
myproc(void) {
    20d0:	ff010113          	add	sp,sp,-16
    20d4:	00112623          	sw	ra,12(sp)
    20d8:	00812423          	sw	s0,8(sp)
    20dc:	00912223          	sw	s1,4(sp)
    20e0:	01010413          	add	s0,sp,16
  push_off();
    20e4:	fffff097          	auipc	ra,0xfffff
    20e8:	b60080e7          	jalr	-1184(ra) # c44 <push_off>
    20ec:	00020713          	mv	a4,tp
  struct proc *p = c->proc;
    20f0:	00471793          	sll	a5,a4,0x4
    20f4:	00e787b3          	add	a5,a5,a4
    20f8:	00279793          	sll	a5,a5,0x2
    20fc:	00010717          	auipc	a4,0x10
    2100:	3bc70713          	add	a4,a4,956 # 124b8 <pid_lock>
    2104:	00f707b3          	add	a5,a4,a5
    2108:	00c7a483          	lw	s1,12(a5)
  pop_off();
    210c:	fffff097          	auipc	ra,0xfffff
    2110:	bac080e7          	jalr	-1108(ra) # cb8 <pop_off>
}
    2114:	00048513          	mv	a0,s1
    2118:	00c12083          	lw	ra,12(sp)
    211c:	00812403          	lw	s0,8(sp)
    2120:	00412483          	lw	s1,4(sp)
    2124:	01010113          	add	sp,sp,16
    2128:	00008067          	ret

0000212c <forkret>:
{
    212c:	ff010113          	add	sp,sp,-16
    2130:	00112623          	sw	ra,12(sp)
    2134:	00812423          	sw	s0,8(sp)
    2138:	01010413          	add	s0,sp,16
  release(&myproc()->lock);
    213c:	00000097          	auipc	ra,0x0
    2140:	f94080e7          	jalr	-108(ra) # 20d0 <myproc>
    2144:	fffff097          	auipc	ra,0xfffff
    2148:	cd4080e7          	jalr	-812(ra) # e18 <release>
  if (first) {
    214c:	00007797          	auipc	a5,0x7
    2150:	eec7a783          	lw	a5,-276(a5) # 9038 <first.1>
    2154:	00079e63          	bnez	a5,2170 <forkret+0x44>
  usertrapret();
    2158:	00001097          	auipc	ra,0x1
    215c:	000080e7          	jalr	ra # 3158 <usertrapret>
}
    2160:	00c12083          	lw	ra,12(sp)
    2164:	00812403          	lw	s0,8(sp)
    2168:	01010113          	add	sp,sp,16
    216c:	00008067          	ret
    first = 0;
    2170:	00007797          	auipc	a5,0x7
    2174:	ec07a423          	sw	zero,-312(a5) # 9038 <first.1>
    fsinit(ROOTDEV);
    2178:	00100513          	li	a0,1
    217c:	00002097          	auipc	ra,0x2
    2180:	1c0080e7          	jalr	448(ra) # 433c <fsinit>
    2184:	fd5ff06f          	j	2158 <forkret+0x2c>

00002188 <allocpid>:
allocpid() {
    2188:	ff010113          	add	sp,sp,-16
    218c:	00112623          	sw	ra,12(sp)
    2190:	00812423          	sw	s0,8(sp)
    2194:	00912223          	sw	s1,4(sp)
    2198:	01212023          	sw	s2,0(sp)
    219c:	01010413          	add	s0,sp,16
  acquire(&pid_lock);
    21a0:	00010917          	auipc	s2,0x10
    21a4:	31890913          	add	s2,s2,792 # 124b8 <pid_lock>
    21a8:	00090513          	mv	a0,s2
    21ac:	fffff097          	auipc	ra,0xfffff
    21b0:	bf8080e7          	jalr	-1032(ra) # da4 <acquire>
  pid = nextpid;
    21b4:	00007797          	auipc	a5,0x7
    21b8:	e8878793          	add	a5,a5,-376 # 903c <nextpid>
    21bc:	0007a483          	lw	s1,0(a5)
  nextpid = nextpid + 1;
    21c0:	00148713          	add	a4,s1,1
    21c4:	00e7a023          	sw	a4,0(a5)
  release(&pid_lock);
    21c8:	00090513          	mv	a0,s2
    21cc:	fffff097          	auipc	ra,0xfffff
    21d0:	c4c080e7          	jalr	-948(ra) # e18 <release>
}
    21d4:	00048513          	mv	a0,s1
    21d8:	00c12083          	lw	ra,12(sp)
    21dc:	00812403          	lw	s0,8(sp)
    21e0:	00412483          	lw	s1,4(sp)
    21e4:	00012903          	lw	s2,0(sp)
    21e8:	01010113          	add	sp,sp,16
    21ec:	00008067          	ret

000021f0 <proc_pagetable>:
{
    21f0:	ff010113          	add	sp,sp,-16
    21f4:	00112623          	sw	ra,12(sp)
    21f8:	00812423          	sw	s0,8(sp)
    21fc:	00912223          	sw	s1,4(sp)
    2200:	01212023          	sw	s2,0(sp)
    2204:	01010413          	add	s0,sp,16
    2208:	00050913          	mv	s2,a0
  pagetable = uvmcreate();
    220c:	fffff097          	auipc	ra,0xfffff
    2210:	5b4080e7          	jalr	1460(ra) # 17c0 <uvmcreate>
    2214:	00050493          	mv	s1,a0
  mappages(pagetable, TRAMPOLINE, PGSIZE,
    2218:	00a00713          	li	a4,10
    221c:	00006697          	auipc	a3,0x6
    2220:	de468693          	add	a3,a3,-540 # 8000 <trampoline>
    2224:	00001637          	lui	a2,0x1
    2228:	fffff5b7          	lui	a1,0xfffff
    222c:	fffff097          	auipc	ra,0xfffff
    2230:	240080e7          	jalr	576(ra) # 146c <mappages>
  mappages(pagetable, TRAPFRAME, PGSIZE,
    2234:	00600713          	li	a4,6
    2238:	03092683          	lw	a3,48(s2)
    223c:	00001637          	lui	a2,0x1
    2240:	ffffe5b7          	lui	a1,0xffffe
    2244:	00048513          	mv	a0,s1
    2248:	fffff097          	auipc	ra,0xfffff
    224c:	224080e7          	jalr	548(ra) # 146c <mappages>
}
    2250:	00048513          	mv	a0,s1
    2254:	00c12083          	lw	ra,12(sp)
    2258:	00812403          	lw	s0,8(sp)
    225c:	00412483          	lw	s1,4(sp)
    2260:	00012903          	lw	s2,0(sp)
    2264:	01010113          	add	sp,sp,16
    2268:	00008067          	ret

0000226c <allocproc>:
{
    226c:	ff010113          	add	sp,sp,-16
    2270:	00112623          	sw	ra,12(sp)
    2274:	00812423          	sw	s0,8(sp)
    2278:	00912223          	sw	s1,4(sp)
    227c:	01212023          	sw	s2,0(sp)
    2280:	01010413          	add	s0,sp,16
  for(p = proc; p < &proc[NPROC]; p++) {
    2284:	00010497          	auipc	s1,0x10
    2288:	46048493          	add	s1,s1,1120 # 126e4 <proc>
    228c:	00013917          	auipc	s2,0x13
    2290:	45890913          	add	s2,s2,1112 # 156e4 <tickslock>
    acquire(&p->lock);
    2294:	00048513          	mv	a0,s1
    2298:	fffff097          	auipc	ra,0xfffff
    229c:	b0c080e7          	jalr	-1268(ra) # da4 <acquire>
    if(p->state == UNUSED) {
    22a0:	00c4a783          	lw	a5,12(s1)
    22a4:	02078063          	beqz	a5,22c4 <allocproc+0x58>
      release(&p->lock);
    22a8:	00048513          	mv	a0,s1
    22ac:	fffff097          	auipc	ra,0xfffff
    22b0:	b6c080e7          	jalr	-1172(ra) # e18 <release>
  for(p = proc; p < &proc[NPROC]; p++) {
    22b4:	0c048493          	add	s1,s1,192
    22b8:	fd249ee3          	bne	s1,s2,2294 <allocproc+0x28>
  return 0;
    22bc:	00000493          	li	s1,0
    22c0:	0640006f          	j	2324 <allocproc+0xb8>
  p->pid = allocpid();
    22c4:	00000097          	auipc	ra,0x0
    22c8:	ec4080e7          	jalr	-316(ra) # 2188 <allocpid>
    22cc:	02a4a023          	sw	a0,32(s1)
  if((p->tf = (struct trapframe *)kalloc()) == 0){
    22d0:	fffff097          	auipc	ra,0xfffff
    22d4:	8c8080e7          	jalr	-1848(ra) # b98 <kalloc>
    22d8:	00050913          	mv	s2,a0
    22dc:	02a4a823          	sw	a0,48(s1)
    22e0:	06050063          	beqz	a0,2340 <allocproc+0xd4>
  p->pagetable = proc_pagetable(p);
    22e4:	00048513          	mv	a0,s1
    22e8:	00000097          	auipc	ra,0x0
    22ec:	f08080e7          	jalr	-248(ra) # 21f0 <proc_pagetable>
    22f0:	02a4a623          	sw	a0,44(s1)
  memset(&p->context, 0, sizeof p->context);
    22f4:	03800613          	li	a2,56
    22f8:	00000593          	li	a1,0
    22fc:	03448513          	add	a0,s1,52
    2300:	fffff097          	auipc	ra,0xfffff
    2304:	b78080e7          	jalr	-1160(ra) # e78 <memset>
  p->context.ra = (uint32)forkret;
    2308:	00000797          	auipc	a5,0x0
    230c:	e2478793          	add	a5,a5,-476 # 212c <forkret>
    2310:	02f4aa23          	sw	a5,52(s1)
  p->context.sp = p->kstack + PGSIZE;
    2314:	0244a783          	lw	a5,36(s1)
    2318:	00001737          	lui	a4,0x1
    231c:	00e787b3          	add	a5,a5,a4
    2320:	02f4ac23          	sw	a5,56(s1)
}
    2324:	00048513          	mv	a0,s1
    2328:	00c12083          	lw	ra,12(sp)
    232c:	00812403          	lw	s0,8(sp)
    2330:	00412483          	lw	s1,4(sp)
    2334:	00012903          	lw	s2,0(sp)
    2338:	01010113          	add	sp,sp,16
    233c:	00008067          	ret
    release(&p->lock);
    2340:	00048513          	mv	a0,s1
    2344:	fffff097          	auipc	ra,0xfffff
    2348:	ad4080e7          	jalr	-1324(ra) # e18 <release>
    return 0;
    234c:	00090493          	mv	s1,s2
    2350:	fd5ff06f          	j	2324 <allocproc+0xb8>

00002354 <proc_freepagetable>:
{
    2354:	ff010113          	add	sp,sp,-16
    2358:	00112623          	sw	ra,12(sp)
    235c:	00812423          	sw	s0,8(sp)
    2360:	00912223          	sw	s1,4(sp)
    2364:	01212023          	sw	s2,0(sp)
    2368:	01010413          	add	s0,sp,16
    236c:	00050493          	mv	s1,a0
    2370:	00058913          	mv	s2,a1
  uvmunmap(pagetable, TRAMPOLINE, PGSIZE, 0);
    2374:	00000693          	li	a3,0
    2378:	00001637          	lui	a2,0x1
    237c:	fffff5b7          	lui	a1,0xfffff
    2380:	fffff097          	auipc	ra,0xfffff
    2384:	328080e7          	jalr	808(ra) # 16a8 <uvmunmap>
  uvmunmap(pagetable, TRAPFRAME, PGSIZE, 0);
    2388:	00000693          	li	a3,0
    238c:	00001637          	lui	a2,0x1
    2390:	ffffe5b7          	lui	a1,0xffffe
    2394:	00048513          	mv	a0,s1
    2398:	fffff097          	auipc	ra,0xfffff
    239c:	310080e7          	jalr	784(ra) # 16a8 <uvmunmap>
  if(sz > 0)
    23a0:	00091e63          	bnez	s2,23bc <proc_freepagetable+0x68>
}
    23a4:	00c12083          	lw	ra,12(sp)
    23a8:	00812403          	lw	s0,8(sp)
    23ac:	00412483          	lw	s1,4(sp)
    23b0:	00012903          	lw	s2,0(sp)
    23b4:	01010113          	add	sp,sp,16
    23b8:	00008067          	ret
    uvmfree(pagetable, sz);
    23bc:	00090593          	mv	a1,s2
    23c0:	00048513          	mv	a0,s1
    23c4:	fffff097          	auipc	ra,0xfffff
    23c8:	68c080e7          	jalr	1676(ra) # 1a50 <uvmfree>
}
    23cc:	fd9ff06f          	j	23a4 <proc_freepagetable+0x50>

000023d0 <freeproc>:
{
    23d0:	ff010113          	add	sp,sp,-16
    23d4:	00112623          	sw	ra,12(sp)
    23d8:	00812423          	sw	s0,8(sp)
    23dc:	00912223          	sw	s1,4(sp)
    23e0:	01010413          	add	s0,sp,16
    23e4:	00050493          	mv	s1,a0
  if(p->tf)
    23e8:	03052503          	lw	a0,48(a0)
    23ec:	00050663          	beqz	a0,23f8 <freeproc+0x28>
    kfree((void*)p->tf);
    23f0:	ffffe097          	auipc	ra,0xffffe
    23f4:	654080e7          	jalr	1620(ra) # a44 <kfree>
  p->tf = 0;
    23f8:	0204a823          	sw	zero,48(s1)
  if(p->pagetable)
    23fc:	02c4a503          	lw	a0,44(s1)
    2400:	00050863          	beqz	a0,2410 <freeproc+0x40>
    proc_freepagetable(p->pagetable, p->sz);
    2404:	0284a583          	lw	a1,40(s1)
    2408:	00000097          	auipc	ra,0x0
    240c:	f4c080e7          	jalr	-180(ra) # 2354 <proc_freepagetable>
  p->pagetable = 0;
    2410:	0204a623          	sw	zero,44(s1)
  p->sz = 0;
    2414:	0204a423          	sw	zero,40(s1)
  p->pid = 0;
    2418:	0204a023          	sw	zero,32(s1)
  p->parent = 0;
    241c:	0004a823          	sw	zero,16(s1)
  p->name[0] = 0;
    2420:	0a048823          	sb	zero,176(s1)
  p->chan = 0;
    2424:	0004aa23          	sw	zero,20(s1)
  p->killed = 0;
    2428:	0004ac23          	sw	zero,24(s1)
  p->xstate = 0;
    242c:	0004ae23          	sw	zero,28(s1)
  p->state = UNUSED;
    2430:	0004a623          	sw	zero,12(s1)
}
    2434:	00c12083          	lw	ra,12(sp)
    2438:	00812403          	lw	s0,8(sp)
    243c:	00412483          	lw	s1,4(sp)
    2440:	01010113          	add	sp,sp,16
    2444:	00008067          	ret

00002448 <userinit>:
{
    2448:	ff010113          	add	sp,sp,-16
    244c:	00112623          	sw	ra,12(sp)
    2450:	00812423          	sw	s0,8(sp)
    2454:	00912223          	sw	s1,4(sp)
    2458:	01010413          	add	s0,sp,16
  p = allocproc();
    245c:	00000097          	auipc	ra,0x0
    2460:	e10080e7          	jalr	-496(ra) # 226c <allocproc>
    2464:	00050493          	mv	s1,a0
  initproc = p;
    2468:	0001f797          	auipc	a5,0x1f
    246c:	baa7a223          	sw	a0,-1116(a5) # 2100c <initproc>
  uvminit(p->pagetable, initcode, sizeof(initcode));
    2470:	03800613          	li	a2,56
    2474:	00007597          	auipc	a1,0x7
    2478:	b8c58593          	add	a1,a1,-1140 # 9000 <initcode>
    247c:	02c52503          	lw	a0,44(a0)
    2480:	fffff097          	auipc	ra,0xfffff
    2484:	39c080e7          	jalr	924(ra) # 181c <uvminit>
  p->sz = PGSIZE;
    2488:	000017b7          	lui	a5,0x1
    248c:	02f4a423          	sw	a5,40(s1)
  p->tf->epc = 0;      // user program counter
    2490:	0304a703          	lw	a4,48(s1)
    2494:	00072623          	sw	zero,12(a4) # 100c <strncpy+0x28>
  p->tf->sp = PGSIZE;  // user stack pointer
    2498:	0304a703          	lw	a4,48(s1)
    249c:	00f72c23          	sw	a5,24(a4)
  safestrcpy(p->name, "initcode", sizeof(p->name));
    24a0:	01000613          	li	a2,16
    24a4:	00006597          	auipc	a1,0x6
    24a8:	e4c58593          	add	a1,a1,-436 # 82f0 <userret+0x250>
    24ac:	0b048513          	add	a0,s1,176
    24b0:	fffff097          	auipc	ra,0xfffff
    24b4:	b90080e7          	jalr	-1136(ra) # 1040 <safestrcpy>
  p->cwd = namei("/");
    24b8:	00006517          	auipc	a0,0x6
    24bc:	e4450513          	add	a0,a0,-444 # 82fc <userret+0x25c>
    24c0:	00003097          	auipc	ra,0x3
    24c4:	c40080e7          	jalr	-960(ra) # 5100 <namei>
    24c8:	0aa4a623          	sw	a0,172(s1)
  p->state = RUNNABLE;
    24cc:	00200793          	li	a5,2
    24d0:	00f4a623          	sw	a5,12(s1)
  release(&p->lock);
    24d4:	00048513          	mv	a0,s1
    24d8:	fffff097          	auipc	ra,0xfffff
    24dc:	940080e7          	jalr	-1728(ra) # e18 <release>
}
    24e0:	00c12083          	lw	ra,12(sp)
    24e4:	00812403          	lw	s0,8(sp)
    24e8:	00412483          	lw	s1,4(sp)
    24ec:	01010113          	add	sp,sp,16
    24f0:	00008067          	ret

000024f4 <growproc>:
{
    24f4:	ff010113          	add	sp,sp,-16
    24f8:	00112623          	sw	ra,12(sp)
    24fc:	00812423          	sw	s0,8(sp)
    2500:	00912223          	sw	s1,4(sp)
    2504:	01212023          	sw	s2,0(sp)
    2508:	01010413          	add	s0,sp,16
    250c:	00050913          	mv	s2,a0
  struct proc *p = myproc();
    2510:	00000097          	auipc	ra,0x0
    2514:	bc0080e7          	jalr	-1088(ra) # 20d0 <myproc>
    2518:	00050493          	mv	s1,a0
  sz = p->sz;
    251c:	02852583          	lw	a1,40(a0)
  if(n > 0){
    2520:	03204463          	bgtz	s2,2548 <growproc+0x54>
  } else if(n < 0){
    2524:	04094263          	bltz	s2,2568 <growproc+0x74>
  p->sz = sz;
    2528:	02b4a423          	sw	a1,40(s1)
  return 0;
    252c:	00000513          	li	a0,0
}
    2530:	00c12083          	lw	ra,12(sp)
    2534:	00812403          	lw	s0,8(sp)
    2538:	00412483          	lw	s1,4(sp)
    253c:	00012903          	lw	s2,0(sp)
    2540:	01010113          	add	sp,sp,16
    2544:	00008067          	ret
    if((sz = uvmalloc(p->pagetable, sz, sz + n)) == 0) {
    2548:	00b90633          	add	a2,s2,a1
    254c:	02c52503          	lw	a0,44(a0)
    2550:	fffff097          	auipc	ra,0xfffff
    2554:	3ec080e7          	jalr	1004(ra) # 193c <uvmalloc>
    2558:	00050593          	mv	a1,a0
    255c:	fc0516e3          	bnez	a0,2528 <growproc+0x34>
      return -1;
    2560:	fff00513          	li	a0,-1
    2564:	fcdff06f          	j	2530 <growproc+0x3c>
    sz = uvmdealloc(p->pagetable, sz, sz + n);
    2568:	00b90633          	add	a2,s2,a1
    256c:	02c52503          	lw	a0,44(a0)
    2570:	fffff097          	auipc	ra,0xfffff
    2574:	35c080e7          	jalr	860(ra) # 18cc <uvmdealloc>
    2578:	00050593          	mv	a1,a0
    257c:	fadff06f          	j	2528 <growproc+0x34>

00002580 <fork>:
{
    2580:	fe010113          	add	sp,sp,-32
    2584:	00112e23          	sw	ra,28(sp)
    2588:	00812c23          	sw	s0,24(sp)
    258c:	00912a23          	sw	s1,20(sp)
    2590:	01212823          	sw	s2,16(sp)
    2594:	01312623          	sw	s3,12(sp)
    2598:	01412423          	sw	s4,8(sp)
    259c:	01512223          	sw	s5,4(sp)
    25a0:	02010413          	add	s0,sp,32
  struct proc *p = myproc();
    25a4:	00000097          	auipc	ra,0x0
    25a8:	b2c080e7          	jalr	-1236(ra) # 20d0 <myproc>
    25ac:	00050a93          	mv	s5,a0
  if((np = allocproc()) == 0){
    25b0:	00000097          	auipc	ra,0x0
    25b4:	cbc080e7          	jalr	-836(ra) # 226c <allocproc>
    25b8:	12050463          	beqz	a0,26e0 <fork+0x160>
    25bc:	00050a13          	mv	s4,a0
  if(uvmcopy(p->pagetable, np->pagetable, p->sz) < 0){
    25c0:	028aa603          	lw	a2,40(s5) # fffff028 <end+0xfffde014>
    25c4:	02c52583          	lw	a1,44(a0)
    25c8:	02caa503          	lw	a0,44(s5)
    25cc:	fffff097          	auipc	ra,0xfffff
    25d0:	4d0080e7          	jalr	1232(ra) # 1a9c <uvmcopy>
    25d4:	06054263          	bltz	a0,2638 <fork+0xb8>
  np->sz = p->sz;
    25d8:	028aa783          	lw	a5,40(s5)
    25dc:	02fa2423          	sw	a5,40(s4)
  np->parent = p;
    25e0:	015a2823          	sw	s5,16(s4)
  *(np->tf) = *(p->tf);
    25e4:	030aa683          	lw	a3,48(s5)
    25e8:	00068793          	mv	a5,a3
    25ec:	030a2703          	lw	a4,48(s4)
    25f0:	09068693          	add	a3,a3,144
    25f4:	0007a803          	lw	a6,0(a5) # 1000 <strncpy+0x1c>
    25f8:	0047a503          	lw	a0,4(a5)
    25fc:	0087a583          	lw	a1,8(a5)
    2600:	00c7a603          	lw	a2,12(a5)
    2604:	01072023          	sw	a6,0(a4)
    2608:	00a72223          	sw	a0,4(a4)
    260c:	00b72423          	sw	a1,8(a4)
    2610:	00c72623          	sw	a2,12(a4)
    2614:	01078793          	add	a5,a5,16
    2618:	01070713          	add	a4,a4,16
    261c:	fcd79ce3          	bne	a5,a3,25f4 <fork+0x74>
  np->tf->a0 = 0;
    2620:	030a2783          	lw	a5,48(s4)
    2624:	0207ac23          	sw	zero,56(a5)
  for(i = 0; i < NOFILE; i++)
    2628:	06ca8493          	add	s1,s5,108
    262c:	06ca0913          	add	s2,s4,108
    2630:	0aca8993          	add	s3,s5,172
    2634:	0300006f          	j	2664 <fork+0xe4>
    freeproc(np);
    2638:	000a0513          	mv	a0,s4
    263c:	00000097          	auipc	ra,0x0
    2640:	d94080e7          	jalr	-620(ra) # 23d0 <freeproc>
    release(&np->lock);
    2644:	000a0513          	mv	a0,s4
    2648:	ffffe097          	auipc	ra,0xffffe
    264c:	7d0080e7          	jalr	2000(ra) # e18 <release>
    return -1;
    2650:	fff00493          	li	s1,-1
    2654:	0640006f          	j	26b8 <fork+0x138>
  for(i = 0; i < NOFILE; i++)
    2658:	00448493          	add	s1,s1,4
    265c:	00490913          	add	s2,s2,4
    2660:	01348e63          	beq	s1,s3,267c <fork+0xfc>
    if(p->ofile[i])
    2664:	0004a503          	lw	a0,0(s1)
    2668:	fe0508e3          	beqz	a0,2658 <fork+0xd8>
      np->ofile[i] = filedup(p->ofile[i]);
    266c:	00003097          	auipc	ra,0x3
    2670:	364080e7          	jalr	868(ra) # 59d0 <filedup>
    2674:	00a92023          	sw	a0,0(s2)
    2678:	fe1ff06f          	j	2658 <fork+0xd8>
  np->cwd = idup(p->cwd);
    267c:	0acaa503          	lw	a0,172(s5)
    2680:	00002097          	auipc	ra,0x2
    2684:	fb0080e7          	jalr	-80(ra) # 4630 <idup>
    2688:	0aaa2623          	sw	a0,172(s4)
  safestrcpy(np->name, p->name, sizeof(p->name));
    268c:	01000613          	li	a2,16
    2690:	0b0a8593          	add	a1,s5,176
    2694:	0b0a0513          	add	a0,s4,176
    2698:	fffff097          	auipc	ra,0xfffff
    269c:	9a8080e7          	jalr	-1624(ra) # 1040 <safestrcpy>
  pid = np->pid;
    26a0:	020a2483          	lw	s1,32(s4)
  np->state = RUNNABLE;
    26a4:	00200793          	li	a5,2
    26a8:	00fa2623          	sw	a5,12(s4)
  release(&np->lock);
    26ac:	000a0513          	mv	a0,s4
    26b0:	ffffe097          	auipc	ra,0xffffe
    26b4:	768080e7          	jalr	1896(ra) # e18 <release>
}
    26b8:	00048513          	mv	a0,s1
    26bc:	01c12083          	lw	ra,28(sp)
    26c0:	01812403          	lw	s0,24(sp)
    26c4:	01412483          	lw	s1,20(sp)
    26c8:	01012903          	lw	s2,16(sp)
    26cc:	00c12983          	lw	s3,12(sp)
    26d0:	00812a03          	lw	s4,8(sp)
    26d4:	00412a83          	lw	s5,4(sp)
    26d8:	02010113          	add	sp,sp,32
    26dc:	00008067          	ret
    return -1;
    26e0:	fff00493          	li	s1,-1
    26e4:	fd5ff06f          	j	26b8 <fork+0x138>

000026e8 <reparent>:
{
    26e8:	fe010113          	add	sp,sp,-32
    26ec:	00112e23          	sw	ra,28(sp)
    26f0:	00812c23          	sw	s0,24(sp)
    26f4:	00912a23          	sw	s1,20(sp)
    26f8:	01212823          	sw	s2,16(sp)
    26fc:	01312623          	sw	s3,12(sp)
    2700:	01412423          	sw	s4,8(sp)
    2704:	02010413          	add	s0,sp,32
    2708:	00050913          	mv	s2,a0
  for(pp = proc; pp < &proc[NPROC]; pp++){
    270c:	00010497          	auipc	s1,0x10
    2710:	fd848493          	add	s1,s1,-40 # 126e4 <proc>
      pp->parent = initproc;
    2714:	0001fa17          	auipc	s4,0x1f
    2718:	8f8a0a13          	add	s4,s4,-1800 # 2100c <initproc>
  for(pp = proc; pp < &proc[NPROC]; pp++){
    271c:	00013997          	auipc	s3,0x13
    2720:	fc898993          	add	s3,s3,-56 # 156e4 <tickslock>
    2724:	00c0006f          	j	2730 <reparent+0x48>
    2728:	0c048493          	add	s1,s1,192
    272c:	03348863          	beq	s1,s3,275c <reparent+0x74>
    if(pp->parent == p){
    2730:	0104a783          	lw	a5,16(s1)
    2734:	ff279ae3          	bne	a5,s2,2728 <reparent+0x40>
      acquire(&pp->lock);
    2738:	00048513          	mv	a0,s1
    273c:	ffffe097          	auipc	ra,0xffffe
    2740:	668080e7          	jalr	1640(ra) # da4 <acquire>
      pp->parent = initproc;
    2744:	000a2783          	lw	a5,0(s4)
    2748:	00f4a823          	sw	a5,16(s1)
      release(&pp->lock);
    274c:	00048513          	mv	a0,s1
    2750:	ffffe097          	auipc	ra,0xffffe
    2754:	6c8080e7          	jalr	1736(ra) # e18 <release>
    2758:	fd1ff06f          	j	2728 <reparent+0x40>
}
    275c:	01c12083          	lw	ra,28(sp)
    2760:	01812403          	lw	s0,24(sp)
    2764:	01412483          	lw	s1,20(sp)
    2768:	01012903          	lw	s2,16(sp)
    276c:	00c12983          	lw	s3,12(sp)
    2770:	00812a03          	lw	s4,8(sp)
    2774:	02010113          	add	sp,sp,32
    2778:	00008067          	ret

0000277c <scheduler>:
{
    277c:	fe010113          	add	sp,sp,-32
    2780:	00112e23          	sw	ra,28(sp)
    2784:	00812c23          	sw	s0,24(sp)
    2788:	00912a23          	sw	s1,20(sp)
    278c:	01212823          	sw	s2,16(sp)
    2790:	01312623          	sw	s3,12(sp)
    2794:	01412423          	sw	s4,8(sp)
    2798:	01512223          	sw	s5,4(sp)
    279c:	01612023          	sw	s6,0(sp)
    27a0:	02010413          	add	s0,sp,32
    27a4:	00020713          	mv	a4,tp
  c->proc = 0;
    27a8:	00471793          	sll	a5,a4,0x4
    27ac:	00e78633          	add	a2,a5,a4
    27b0:	00261613          	sll	a2,a2,0x2
    27b4:	00010697          	auipc	a3,0x10
    27b8:	d0468693          	add	a3,a3,-764 # 124b8 <pid_lock>
    27bc:	00c686b3          	add	a3,a3,a2
    27c0:	0006a623          	sw	zero,12(a3)
        swtch(&c->scheduler, &p->context);
    27c4:	00010797          	auipc	a5,0x10
    27c8:	d0478793          	add	a5,a5,-764 # 124c8 <cpus+0x4>
    27cc:	00f60b33          	add	s6,a2,a5
      if(p->state == RUNNABLE) {
    27d0:	00200993          	li	s3,2
        c->proc = p;
    27d4:	00068a13          	mv	s4,a3
    for(p = proc; p < &proc[NPROC]; p++) {
    27d8:	00013917          	auipc	s2,0x13
    27dc:	f0c90913          	add	s2,s2,-244 # 156e4 <tickslock>
  asm volatile("csrr %0, sie" : "=r" (x) );
    27e0:	104027f3          	csrr	a5,sie
  w_sie(r_sie() | SIE_SEIE | SIE_STIE | SIE_SSIE);
    27e4:	2227e793          	or	a5,a5,546
  asm volatile("csrw sie, %0" : : "r" (x));
    27e8:	10479073          	csrw	sie,a5
  asm volatile("csrr %0, sstatus" : "=r" (x) );
    27ec:	100027f3          	csrr	a5,sstatus
  w_sstatus(r_sstatus() | SSTATUS_SIE);
    27f0:	0027e793          	or	a5,a5,2
  asm volatile("csrw sstatus, %0" : : "r" (x));
    27f4:	10079073          	csrw	sstatus,a5
    27f8:	00010497          	auipc	s1,0x10
    27fc:	eec48493          	add	s1,s1,-276 # 126e4 <proc>
        p->state = RUNNING;
    2800:	00300a93          	li	s5,3
    2804:	0180006f          	j	281c <scheduler+0xa0>
      release(&p->lock);
    2808:	00048513          	mv	a0,s1
    280c:	ffffe097          	auipc	ra,0xffffe
    2810:	60c080e7          	jalr	1548(ra) # e18 <release>
    for(p = proc; p < &proc[NPROC]; p++) {
    2814:	0c048493          	add	s1,s1,192
    2818:	fd2484e3          	beq	s1,s2,27e0 <scheduler+0x64>
      acquire(&p->lock);
    281c:	00048513          	mv	a0,s1
    2820:	ffffe097          	auipc	ra,0xffffe
    2824:	584080e7          	jalr	1412(ra) # da4 <acquire>
      if(p->state == RUNNABLE) {
    2828:	00c4a783          	lw	a5,12(s1)
    282c:	fd379ee3          	bne	a5,s3,2808 <scheduler+0x8c>
        p->state = RUNNING;
    2830:	0154a623          	sw	s5,12(s1)
        c->proc = p;
    2834:	009a2623          	sw	s1,12(s4)
        swtch(&c->scheduler, &p->context);
    2838:	03448593          	add	a1,s1,52
    283c:	000b0513          	mv	a0,s6
    2840:	00001097          	auipc	ra,0x1
    2844:	848080e7          	jalr	-1976(ra) # 3088 <swtch>
        c->proc = 0;
    2848:	000a2623          	sw	zero,12(s4)
    284c:	fbdff06f          	j	2808 <scheduler+0x8c>

00002850 <sched>:
{
    2850:	fe010113          	add	sp,sp,-32
    2854:	00112e23          	sw	ra,28(sp)
    2858:	00812c23          	sw	s0,24(sp)
    285c:	00912a23          	sw	s1,20(sp)
    2860:	01212823          	sw	s2,16(sp)
    2864:	01312623          	sw	s3,12(sp)
    2868:	02010413          	add	s0,sp,32
  struct proc *p = myproc();
    286c:	00000097          	auipc	ra,0x0
    2870:	864080e7          	jalr	-1948(ra) # 20d0 <myproc>
    2874:	00050493          	mv	s1,a0
  if(!holding(&p->lock))
    2878:	ffffe097          	auipc	ra,0xffffe
    287c:	4c8080e7          	jalr	1224(ra) # d40 <holding>
    2880:	0c050063          	beqz	a0,2940 <sched+0xf0>
  asm volatile("mv %0, tp" : "=r" (x) );
    2884:	00020713          	mv	a4,tp
  if(mycpu()->noff != 1)
    2888:	00471793          	sll	a5,a4,0x4
    288c:	00e787b3          	add	a5,a5,a4
    2890:	00279793          	sll	a5,a5,0x2
    2894:	00010717          	auipc	a4,0x10
    2898:	c2470713          	add	a4,a4,-988 # 124b8 <pid_lock>
    289c:	00f707b3          	add	a5,a4,a5
    28a0:	0487a703          	lw	a4,72(a5)
    28a4:	00100793          	li	a5,1
    28a8:	0af71463          	bne	a4,a5,2950 <sched+0x100>
  if(p->state == RUNNING)
    28ac:	00c4a703          	lw	a4,12(s1)
    28b0:	00300793          	li	a5,3
    28b4:	0af70663          	beq	a4,a5,2960 <sched+0x110>
  asm volatile("csrr %0, sstatus" : "=r" (x) );
    28b8:	100027f3          	csrr	a5,sstatus
  return (x & SSTATUS_SIE) != 0;
    28bc:	0027f793          	and	a5,a5,2
  if(intr_get())
    28c0:	0a079863          	bnez	a5,2970 <sched+0x120>
  asm volatile("mv %0, tp" : "=r" (x) );
    28c4:	00020713          	mv	a4,tp
  intena = mycpu()->intena;
    28c8:	00010917          	auipc	s2,0x10
    28cc:	bf090913          	add	s2,s2,-1040 # 124b8 <pid_lock>
    28d0:	00471793          	sll	a5,a4,0x4
    28d4:	00e787b3          	add	a5,a5,a4
    28d8:	00279793          	sll	a5,a5,0x2
    28dc:	00f907b3          	add	a5,s2,a5
    28e0:	04c7a983          	lw	s3,76(a5)
    28e4:	00020713          	mv	a4,tp
  swtch(&p->context, &mycpu()->scheduler);
    28e8:	00471793          	sll	a5,a4,0x4
    28ec:	00e787b3          	add	a5,a5,a4
    28f0:	00279793          	sll	a5,a5,0x2
    28f4:	00010597          	auipc	a1,0x10
    28f8:	bd458593          	add	a1,a1,-1068 # 124c8 <cpus+0x4>
    28fc:	00b785b3          	add	a1,a5,a1
    2900:	03448513          	add	a0,s1,52
    2904:	00000097          	auipc	ra,0x0
    2908:	784080e7          	jalr	1924(ra) # 3088 <swtch>
    290c:	00020713          	mv	a4,tp
  mycpu()->intena = intena;
    2910:	00471793          	sll	a5,a4,0x4
    2914:	00e787b3          	add	a5,a5,a4
    2918:	00279793          	sll	a5,a5,0x2
    291c:	00f90933          	add	s2,s2,a5
    2920:	05392623          	sw	s3,76(s2)
}
    2924:	01c12083          	lw	ra,28(sp)
    2928:	01812403          	lw	s0,24(sp)
    292c:	01412483          	lw	s1,20(sp)
    2930:	01012903          	lw	s2,16(sp)
    2934:	00c12983          	lw	s3,12(sp)
    2938:	02010113          	add	sp,sp,32
    293c:	00008067          	ret
    panic("sched p->lock");
    2940:	00006517          	auipc	a0,0x6
    2944:	9c050513          	add	a0,a0,-1600 # 8300 <userret+0x260>
    2948:	ffffe097          	auipc	ra,0xffffe
    294c:	d44080e7          	jalr	-700(ra) # 68c <panic>
    panic("sched locks");
    2950:	00006517          	auipc	a0,0x6
    2954:	9c050513          	add	a0,a0,-1600 # 8310 <userret+0x270>
    2958:	ffffe097          	auipc	ra,0xffffe
    295c:	d34080e7          	jalr	-716(ra) # 68c <panic>
    panic("sched running");
    2960:	00006517          	auipc	a0,0x6
    2964:	9bc50513          	add	a0,a0,-1604 # 831c <userret+0x27c>
    2968:	ffffe097          	auipc	ra,0xffffe
    296c:	d24080e7          	jalr	-732(ra) # 68c <panic>
    panic("sched interruptible");
    2970:	00006517          	auipc	a0,0x6
    2974:	9bc50513          	add	a0,a0,-1604 # 832c <userret+0x28c>
    2978:	ffffe097          	auipc	ra,0xffffe
    297c:	d14080e7          	jalr	-748(ra) # 68c <panic>

00002980 <exit>:
{
    2980:	fe010113          	add	sp,sp,-32
    2984:	00112e23          	sw	ra,28(sp)
    2988:	00812c23          	sw	s0,24(sp)
    298c:	00912a23          	sw	s1,20(sp)
    2990:	01212823          	sw	s2,16(sp)
    2994:	01312623          	sw	s3,12(sp)
    2998:	01412423          	sw	s4,8(sp)
    299c:	02010413          	add	s0,sp,32
    29a0:	00050a13          	mv	s4,a0
  struct proc *p = myproc();
    29a4:	fffff097          	auipc	ra,0xfffff
    29a8:	72c080e7          	jalr	1836(ra) # 20d0 <myproc>
    29ac:	00050993          	mv	s3,a0
  if(p == initproc)
    29b0:	0001e797          	auipc	a5,0x1e
    29b4:	65c7a783          	lw	a5,1628(a5) # 2100c <initproc>
    29b8:	06c50493          	add	s1,a0,108
    29bc:	0ac50913          	add	s2,a0,172
    29c0:	02a79463          	bne	a5,a0,29e8 <exit+0x68>
    panic("init exiting");
    29c4:	00006517          	auipc	a0,0x6
    29c8:	97c50513          	add	a0,a0,-1668 # 8340 <userret+0x2a0>
    29cc:	ffffe097          	auipc	ra,0xffffe
    29d0:	cc0080e7          	jalr	-832(ra) # 68c <panic>
      fileclose(f);
    29d4:	00003097          	auipc	ra,0x3
    29d8:	06c080e7          	jalr	108(ra) # 5a40 <fileclose>
      p->ofile[fd] = 0;
    29dc:	0004a023          	sw	zero,0(s1)
  for(int fd = 0; fd < NOFILE; fd++){
    29e0:	00448493          	add	s1,s1,4
    29e4:	01248863          	beq	s1,s2,29f4 <exit+0x74>
    if(p->ofile[fd]){
    29e8:	0004a503          	lw	a0,0(s1)
    29ec:	fe0514e3          	bnez	a0,29d4 <exit+0x54>
    29f0:	ff1ff06f          	j	29e0 <exit+0x60>
  begin_op();
    29f4:	00003097          	auipc	ra,0x3
    29f8:	9c4080e7          	jalr	-1596(ra) # 53b8 <begin_op>
  iput(p->cwd);
    29fc:	0ac9a503          	lw	a0,172(s3)
    2a00:	00002097          	auipc	ra,0x2
    2a04:	e00080e7          	jalr	-512(ra) # 4800 <iput>
  end_op();
    2a08:	00003097          	auipc	ra,0x3
    2a0c:	a60080e7          	jalr	-1440(ra) # 5468 <end_op>
  p->cwd = 0;
    2a10:	0a09a623          	sw	zero,172(s3)
  acquire(&initproc->lock);
    2a14:	0001e497          	auipc	s1,0x1e
    2a18:	5f848493          	add	s1,s1,1528 # 2100c <initproc>
    2a1c:	0004a503          	lw	a0,0(s1)
    2a20:	ffffe097          	auipc	ra,0xffffe
    2a24:	384080e7          	jalr	900(ra) # da4 <acquire>
  wakeup1(initproc);
    2a28:	0004a503          	lw	a0,0(s1)
    2a2c:	fffff097          	auipc	ra,0xfffff
    2a30:	4e4080e7          	jalr	1252(ra) # 1f10 <wakeup1>
  release(&initproc->lock);
    2a34:	0004a503          	lw	a0,0(s1)
    2a38:	ffffe097          	auipc	ra,0xffffe
    2a3c:	3e0080e7          	jalr	992(ra) # e18 <release>
  acquire(&p->lock);
    2a40:	00098513          	mv	a0,s3
    2a44:	ffffe097          	auipc	ra,0xffffe
    2a48:	360080e7          	jalr	864(ra) # da4 <acquire>
  struct proc *original_parent = p->parent;
    2a4c:	0109a483          	lw	s1,16(s3)
  release(&p->lock);
    2a50:	00098513          	mv	a0,s3
    2a54:	ffffe097          	auipc	ra,0xffffe
    2a58:	3c4080e7          	jalr	964(ra) # e18 <release>
  acquire(&original_parent->lock);
    2a5c:	00048513          	mv	a0,s1
    2a60:	ffffe097          	auipc	ra,0xffffe
    2a64:	344080e7          	jalr	836(ra) # da4 <acquire>
  acquire(&p->lock);
    2a68:	00098513          	mv	a0,s3
    2a6c:	ffffe097          	auipc	ra,0xffffe
    2a70:	338080e7          	jalr	824(ra) # da4 <acquire>
  reparent(p);
    2a74:	00098513          	mv	a0,s3
    2a78:	00000097          	auipc	ra,0x0
    2a7c:	c70080e7          	jalr	-912(ra) # 26e8 <reparent>
  wakeup1(original_parent);
    2a80:	00048513          	mv	a0,s1
    2a84:	fffff097          	auipc	ra,0xfffff
    2a88:	48c080e7          	jalr	1164(ra) # 1f10 <wakeup1>
  p->xstate = status;
    2a8c:	0149ae23          	sw	s4,28(s3)
  p->state = ZOMBIE;
    2a90:	00400793          	li	a5,4
    2a94:	00f9a623          	sw	a5,12(s3)
  release(&original_parent->lock);
    2a98:	00048513          	mv	a0,s1
    2a9c:	ffffe097          	auipc	ra,0xffffe
    2aa0:	37c080e7          	jalr	892(ra) # e18 <release>
  sched();
    2aa4:	00000097          	auipc	ra,0x0
    2aa8:	dac080e7          	jalr	-596(ra) # 2850 <sched>
  panic("zombie exit");
    2aac:	00006517          	auipc	a0,0x6
    2ab0:	8a450513          	add	a0,a0,-1884 # 8350 <userret+0x2b0>
    2ab4:	ffffe097          	auipc	ra,0xffffe
    2ab8:	bd8080e7          	jalr	-1064(ra) # 68c <panic>

00002abc <yield>:
{
    2abc:	ff010113          	add	sp,sp,-16
    2ac0:	00112623          	sw	ra,12(sp)
    2ac4:	00812423          	sw	s0,8(sp)
    2ac8:	00912223          	sw	s1,4(sp)
    2acc:	01010413          	add	s0,sp,16
  struct proc *p = myproc();
    2ad0:	fffff097          	auipc	ra,0xfffff
    2ad4:	600080e7          	jalr	1536(ra) # 20d0 <myproc>
    2ad8:	00050493          	mv	s1,a0
  acquire(&p->lock);
    2adc:	ffffe097          	auipc	ra,0xffffe
    2ae0:	2c8080e7          	jalr	712(ra) # da4 <acquire>
  p->state = RUNNABLE;
    2ae4:	00200793          	li	a5,2
    2ae8:	00f4a623          	sw	a5,12(s1)
  sched();
    2aec:	00000097          	auipc	ra,0x0
    2af0:	d64080e7          	jalr	-668(ra) # 2850 <sched>
  release(&p->lock);
    2af4:	00048513          	mv	a0,s1
    2af8:	ffffe097          	auipc	ra,0xffffe
    2afc:	320080e7          	jalr	800(ra) # e18 <release>
}
    2b00:	00c12083          	lw	ra,12(sp)
    2b04:	00812403          	lw	s0,8(sp)
    2b08:	00412483          	lw	s1,4(sp)
    2b0c:	01010113          	add	sp,sp,16
    2b10:	00008067          	ret

00002b14 <sleep>:
{
    2b14:	fe010113          	add	sp,sp,-32
    2b18:	00112e23          	sw	ra,28(sp)
    2b1c:	00812c23          	sw	s0,24(sp)
    2b20:	00912a23          	sw	s1,20(sp)
    2b24:	01212823          	sw	s2,16(sp)
    2b28:	01312623          	sw	s3,12(sp)
    2b2c:	02010413          	add	s0,sp,32
    2b30:	00050993          	mv	s3,a0
    2b34:	00058913          	mv	s2,a1
  struct proc *p = myproc();
    2b38:	fffff097          	auipc	ra,0xfffff
    2b3c:	598080e7          	jalr	1432(ra) # 20d0 <myproc>
    2b40:	00050493          	mv	s1,a0
  if(lk != &p->lock){  //DOC: sleeplock0
    2b44:	07250263          	beq	a0,s2,2ba8 <sleep+0x94>
    acquire(&p->lock);  //DOC: sleeplock1
    2b48:	ffffe097          	auipc	ra,0xffffe
    2b4c:	25c080e7          	jalr	604(ra) # da4 <acquire>
    release(lk);
    2b50:	00090513          	mv	a0,s2
    2b54:	ffffe097          	auipc	ra,0xffffe
    2b58:	2c4080e7          	jalr	708(ra) # e18 <release>
  p->chan = chan;
    2b5c:	0134aa23          	sw	s3,20(s1)
  p->state = SLEEPING;
    2b60:	00100793          	li	a5,1
    2b64:	00f4a623          	sw	a5,12(s1)
  sched();
    2b68:	00000097          	auipc	ra,0x0
    2b6c:	ce8080e7          	jalr	-792(ra) # 2850 <sched>
  p->chan = 0;
    2b70:	0004aa23          	sw	zero,20(s1)
    release(&p->lock);
    2b74:	00048513          	mv	a0,s1
    2b78:	ffffe097          	auipc	ra,0xffffe
    2b7c:	2a0080e7          	jalr	672(ra) # e18 <release>
    acquire(lk);
    2b80:	00090513          	mv	a0,s2
    2b84:	ffffe097          	auipc	ra,0xffffe
    2b88:	220080e7          	jalr	544(ra) # da4 <acquire>
}
    2b8c:	01c12083          	lw	ra,28(sp)
    2b90:	01812403          	lw	s0,24(sp)
    2b94:	01412483          	lw	s1,20(sp)
    2b98:	01012903          	lw	s2,16(sp)
    2b9c:	00c12983          	lw	s3,12(sp)
    2ba0:	02010113          	add	sp,sp,32
    2ba4:	00008067          	ret
  p->chan = chan;
    2ba8:	01352a23          	sw	s3,20(a0)
  p->state = SLEEPING;
    2bac:	00100793          	li	a5,1
    2bb0:	00f52623          	sw	a5,12(a0)
  sched();
    2bb4:	00000097          	auipc	ra,0x0
    2bb8:	c9c080e7          	jalr	-868(ra) # 2850 <sched>
  p->chan = 0;
    2bbc:	0004aa23          	sw	zero,20(s1)
  if(lk != &p->lock){
    2bc0:	fcdff06f          	j	2b8c <sleep+0x78>

00002bc4 <wait>:
{
    2bc4:	fd010113          	add	sp,sp,-48
    2bc8:	02112623          	sw	ra,44(sp)
    2bcc:	02812423          	sw	s0,40(sp)
    2bd0:	02912223          	sw	s1,36(sp)
    2bd4:	03212023          	sw	s2,32(sp)
    2bd8:	01312e23          	sw	s3,28(sp)
    2bdc:	01412c23          	sw	s4,24(sp)
    2be0:	01512a23          	sw	s5,20(sp)
    2be4:	01612823          	sw	s6,16(sp)
    2be8:	01712623          	sw	s7,12(sp)
    2bec:	03010413          	add	s0,sp,48
    2bf0:	00050b13          	mv	s6,a0
  struct proc *p = myproc();
    2bf4:	fffff097          	auipc	ra,0xfffff
    2bf8:	4dc080e7          	jalr	1244(ra) # 20d0 <myproc>
    2bfc:	00050913          	mv	s2,a0
  acquire(&p->lock);
    2c00:	ffffe097          	auipc	ra,0xffffe
    2c04:	1a4080e7          	jalr	420(ra) # da4 <acquire>
    havekids = 0;
    2c08:	00000b93          	li	s7,0
        if(np->state == ZOMBIE){
    2c0c:	00400a13          	li	s4,4
        havekids = 1;
    2c10:	00100a93          	li	s5,1
    for(np = proc; np < &proc[NPROC]; np++){
    2c14:	00013997          	auipc	s3,0x13
    2c18:	ad098993          	add	s3,s3,-1328 # 156e4 <tickslock>
    2c1c:	0f00006f          	j	2d0c <wait+0x148>
          pid = np->pid;
    2c20:	0204a983          	lw	s3,32(s1)
          if(addr != 0 && copyout(p->pagetable, addr, (char *)&np->xstate,
    2c24:	020b0063          	beqz	s6,2c44 <wait+0x80>
    2c28:	00400693          	li	a3,4
    2c2c:	01c48613          	add	a2,s1,28
    2c30:	000b0593          	mv	a1,s6
    2c34:	02c92503          	lw	a0,44(s2)
    2c38:	fffff097          	auipc	ra,0xfffff
    2c3c:	fec080e7          	jalr	-20(ra) # 1c24 <copyout>
    2c40:	04054c63          	bltz	a0,2c98 <wait+0xd4>
          freeproc(np);
    2c44:	00048513          	mv	a0,s1
    2c48:	fffff097          	auipc	ra,0xfffff
    2c4c:	788080e7          	jalr	1928(ra) # 23d0 <freeproc>
          release(&np->lock);
    2c50:	00048513          	mv	a0,s1
    2c54:	ffffe097          	auipc	ra,0xffffe
    2c58:	1c4080e7          	jalr	452(ra) # e18 <release>
          release(&p->lock);
    2c5c:	00090513          	mv	a0,s2
    2c60:	ffffe097          	auipc	ra,0xffffe
    2c64:	1b8080e7          	jalr	440(ra) # e18 <release>
}
    2c68:	00098513          	mv	a0,s3
    2c6c:	02c12083          	lw	ra,44(sp)
    2c70:	02812403          	lw	s0,40(sp)
    2c74:	02412483          	lw	s1,36(sp)
    2c78:	02012903          	lw	s2,32(sp)
    2c7c:	01c12983          	lw	s3,28(sp)
    2c80:	01812a03          	lw	s4,24(sp)
    2c84:	01412a83          	lw	s5,20(sp)
    2c88:	01012b03          	lw	s6,16(sp)
    2c8c:	00c12b83          	lw	s7,12(sp)
    2c90:	03010113          	add	sp,sp,48
    2c94:	00008067          	ret
            release(&np->lock);
    2c98:	00048513          	mv	a0,s1
    2c9c:	ffffe097          	auipc	ra,0xffffe
    2ca0:	17c080e7          	jalr	380(ra) # e18 <release>
            release(&p->lock);
    2ca4:	00090513          	mv	a0,s2
    2ca8:	ffffe097          	auipc	ra,0xffffe
    2cac:	170080e7          	jalr	368(ra) # e18 <release>
            return -1;
    2cb0:	fff00993          	li	s3,-1
    2cb4:	fb5ff06f          	j	2c68 <wait+0xa4>
    for(np = proc; np < &proc[NPROC]; np++){
    2cb8:	0c048493          	add	s1,s1,192
    2cbc:	03348a63          	beq	s1,s3,2cf0 <wait+0x12c>
      if(np->parent == p){
    2cc0:	0104a783          	lw	a5,16(s1)
    2cc4:	ff279ae3          	bne	a5,s2,2cb8 <wait+0xf4>
        acquire(&np->lock);
    2cc8:	00048513          	mv	a0,s1
    2ccc:	ffffe097          	auipc	ra,0xffffe
    2cd0:	0d8080e7          	jalr	216(ra) # da4 <acquire>
        if(np->state == ZOMBIE){
    2cd4:	00c4a783          	lw	a5,12(s1)
    2cd8:	f54784e3          	beq	a5,s4,2c20 <wait+0x5c>
        release(&np->lock);
    2cdc:	00048513          	mv	a0,s1
    2ce0:	ffffe097          	auipc	ra,0xffffe
    2ce4:	138080e7          	jalr	312(ra) # e18 <release>
        havekids = 1;
    2ce8:	000a8713          	mv	a4,s5
    2cec:	fcdff06f          	j	2cb8 <wait+0xf4>
    if(!havekids || p->killed){
    2cf0:	02070663          	beqz	a4,2d1c <wait+0x158>
    2cf4:	01892783          	lw	a5,24(s2)
    2cf8:	02079263          	bnez	a5,2d1c <wait+0x158>
    sleep(p, &p->lock);  //DOC: wait-sleep
    2cfc:	00090593          	mv	a1,s2
    2d00:	00090513          	mv	a0,s2
    2d04:	00000097          	auipc	ra,0x0
    2d08:	e10080e7          	jalr	-496(ra) # 2b14 <sleep>
    havekids = 0;
    2d0c:	000b8713          	mv	a4,s7
    for(np = proc; np < &proc[NPROC]; np++){
    2d10:	00010497          	auipc	s1,0x10
    2d14:	9d448493          	add	s1,s1,-1580 # 126e4 <proc>
    2d18:	fa9ff06f          	j	2cc0 <wait+0xfc>
      release(&p->lock);
    2d1c:	00090513          	mv	a0,s2
    2d20:	ffffe097          	auipc	ra,0xffffe
    2d24:	0f8080e7          	jalr	248(ra) # e18 <release>
      return -1;
    2d28:	fff00993          	li	s3,-1
    2d2c:	f3dff06f          	j	2c68 <wait+0xa4>

00002d30 <wakeup>:
{
    2d30:	fe010113          	add	sp,sp,-32
    2d34:	00112e23          	sw	ra,28(sp)
    2d38:	00812c23          	sw	s0,24(sp)
    2d3c:	00912a23          	sw	s1,20(sp)
    2d40:	01212823          	sw	s2,16(sp)
    2d44:	01312623          	sw	s3,12(sp)
    2d48:	01412423          	sw	s4,8(sp)
    2d4c:	01512223          	sw	s5,4(sp)
    2d50:	02010413          	add	s0,sp,32
    2d54:	00050a13          	mv	s4,a0
  for(p = proc; p < &proc[NPROC]; p++) {
    2d58:	00010497          	auipc	s1,0x10
    2d5c:	98c48493          	add	s1,s1,-1652 # 126e4 <proc>
    if(p->state == SLEEPING && p->chan == chan) {
    2d60:	00100993          	li	s3,1
      p->state = RUNNABLE;
    2d64:	00200a93          	li	s5,2
  for(p = proc; p < &proc[NPROC]; p++) {
    2d68:	00013917          	auipc	s2,0x13
    2d6c:	97c90913          	add	s2,s2,-1668 # 156e4 <tickslock>
    2d70:	0180006f          	j	2d88 <wakeup+0x58>
    release(&p->lock);
    2d74:	00048513          	mv	a0,s1
    2d78:	ffffe097          	auipc	ra,0xffffe
    2d7c:	0a0080e7          	jalr	160(ra) # e18 <release>
  for(p = proc; p < &proc[NPROC]; p++) {
    2d80:	0c048493          	add	s1,s1,192
    2d84:	03248463          	beq	s1,s2,2dac <wakeup+0x7c>
    acquire(&p->lock);
    2d88:	00048513          	mv	a0,s1
    2d8c:	ffffe097          	auipc	ra,0xffffe
    2d90:	018080e7          	jalr	24(ra) # da4 <acquire>
    if(p->state == SLEEPING && p->chan == chan) {
    2d94:	00c4a783          	lw	a5,12(s1)
    2d98:	fd379ee3          	bne	a5,s3,2d74 <wakeup+0x44>
    2d9c:	0144a783          	lw	a5,20(s1)
    2da0:	fd479ae3          	bne	a5,s4,2d74 <wakeup+0x44>
      p->state = RUNNABLE;
    2da4:	0154a623          	sw	s5,12(s1)
    2da8:	fcdff06f          	j	2d74 <wakeup+0x44>
}
    2dac:	01c12083          	lw	ra,28(sp)
    2db0:	01812403          	lw	s0,24(sp)
    2db4:	01412483          	lw	s1,20(sp)
    2db8:	01012903          	lw	s2,16(sp)
    2dbc:	00c12983          	lw	s3,12(sp)
    2dc0:	00812a03          	lw	s4,8(sp)
    2dc4:	00412a83          	lw	s5,4(sp)
    2dc8:	02010113          	add	sp,sp,32
    2dcc:	00008067          	ret

00002dd0 <kill>:
// Kill the process with the given pid.
// The victim won't exit until it tries to return
// to user space (see usertrap() in trap.c).
int
kill(int pid)
{
    2dd0:	fe010113          	add	sp,sp,-32
    2dd4:	00112e23          	sw	ra,28(sp)
    2dd8:	00812c23          	sw	s0,24(sp)
    2ddc:	00912a23          	sw	s1,20(sp)
    2de0:	01212823          	sw	s2,16(sp)
    2de4:	01312623          	sw	s3,12(sp)
    2de8:	02010413          	add	s0,sp,32
    2dec:	00050913          	mv	s2,a0
  struct proc *p;

  for(p = proc; p < &proc[NPROC]; p++){
    2df0:	00010497          	auipc	s1,0x10
    2df4:	8f448493          	add	s1,s1,-1804 # 126e4 <proc>
    2df8:	00013997          	auipc	s3,0x13
    2dfc:	8ec98993          	add	s3,s3,-1812 # 156e4 <tickslock>
    acquire(&p->lock);
    2e00:	00048513          	mv	a0,s1
    2e04:	ffffe097          	auipc	ra,0xffffe
    2e08:	fa0080e7          	jalr	-96(ra) # da4 <acquire>
    if(p->pid == pid){
    2e0c:	0204a783          	lw	a5,32(s1)
    2e10:	03278063          	beq	a5,s2,2e30 <kill+0x60>
        p->state = RUNNABLE;
      }
      release(&p->lock);
      return 0;
    }
    release(&p->lock);
    2e14:	00048513          	mv	a0,s1
    2e18:	ffffe097          	auipc	ra,0xffffe
    2e1c:	000080e7          	jalr	ra # e18 <release>
  for(p = proc; p < &proc[NPROC]; p++){
    2e20:	0c048493          	add	s1,s1,192
    2e24:	fd349ee3          	bne	s1,s3,2e00 <kill+0x30>
  }
  return -1;
    2e28:	fff00513          	li	a0,-1
    2e2c:	0240006f          	j	2e50 <kill+0x80>
      p->killed = 1;
    2e30:	00100793          	li	a5,1
    2e34:	00f4ac23          	sw	a5,24(s1)
      if(p->state == SLEEPING){
    2e38:	00c4a703          	lw	a4,12(s1)
    2e3c:	02f70863          	beq	a4,a5,2e6c <kill+0x9c>
      release(&p->lock);
    2e40:	00048513          	mv	a0,s1
    2e44:	ffffe097          	auipc	ra,0xffffe
    2e48:	fd4080e7          	jalr	-44(ra) # e18 <release>
      return 0;
    2e4c:	00000513          	li	a0,0
}
    2e50:	01c12083          	lw	ra,28(sp)
    2e54:	01812403          	lw	s0,24(sp)
    2e58:	01412483          	lw	s1,20(sp)
    2e5c:	01012903          	lw	s2,16(sp)
    2e60:	00c12983          	lw	s3,12(sp)
    2e64:	02010113          	add	sp,sp,32
    2e68:	00008067          	ret
        p->state = RUNNABLE;
    2e6c:	00200793          	li	a5,2
    2e70:	00f4a623          	sw	a5,12(s1)
    2e74:	fcdff06f          	j	2e40 <kill+0x70>

00002e78 <either_copyout>:
// Copy to either a user address, or kernel address,
// depending on usr_dst.
// Returns 0 on success, -1 on error.
int
either_copyout(int user_dst, uint32 dst, void *src, uint32 len)
{
    2e78:	fe010113          	add	sp,sp,-32
    2e7c:	00112e23          	sw	ra,28(sp)
    2e80:	00812c23          	sw	s0,24(sp)
    2e84:	00912a23          	sw	s1,20(sp)
    2e88:	01212823          	sw	s2,16(sp)
    2e8c:	01312623          	sw	s3,12(sp)
    2e90:	01412423          	sw	s4,8(sp)
    2e94:	02010413          	add	s0,sp,32
    2e98:	00050493          	mv	s1,a0
    2e9c:	00058913          	mv	s2,a1
    2ea0:	00060993          	mv	s3,a2
    2ea4:	00068a13          	mv	s4,a3
  struct proc *p = myproc();
    2ea8:	fffff097          	auipc	ra,0xfffff
    2eac:	228080e7          	jalr	552(ra) # 20d0 <myproc>
  if(user_dst){
    2eb0:	02048e63          	beqz	s1,2eec <either_copyout+0x74>
    return copyout(p->pagetable, dst, src, len);
    2eb4:	000a0693          	mv	a3,s4
    2eb8:	00098613          	mv	a2,s3
    2ebc:	00090593          	mv	a1,s2
    2ec0:	02c52503          	lw	a0,44(a0)
    2ec4:	fffff097          	auipc	ra,0xfffff
    2ec8:	d60080e7          	jalr	-672(ra) # 1c24 <copyout>
  } else {
    memmove((char *)dst, src, len);
    return 0;
  }
}
    2ecc:	01c12083          	lw	ra,28(sp)
    2ed0:	01812403          	lw	s0,24(sp)
    2ed4:	01412483          	lw	s1,20(sp)
    2ed8:	01012903          	lw	s2,16(sp)
    2edc:	00c12983          	lw	s3,12(sp)
    2ee0:	00812a03          	lw	s4,8(sp)
    2ee4:	02010113          	add	sp,sp,32
    2ee8:	00008067          	ret
    memmove((char *)dst, src, len);
    2eec:	000a0613          	mv	a2,s4
    2ef0:	00098593          	mv	a1,s3
    2ef4:	00090513          	mv	a0,s2
    2ef8:	ffffe097          	auipc	ra,0xffffe
    2efc:	ffc080e7          	jalr	-4(ra) # ef4 <memmove>
    return 0;
    2f00:	00048513          	mv	a0,s1
    2f04:	fc9ff06f          	j	2ecc <either_copyout+0x54>

00002f08 <either_copyin>:
// Copy from either a user address, or kernel address,
// depending on usr_src.
// Returns 0 on success, -1 on error.
int
either_copyin(void *dst, int user_src, uint32 src, uint32 len)
{
    2f08:	fe010113          	add	sp,sp,-32
    2f0c:	00112e23          	sw	ra,28(sp)
    2f10:	00812c23          	sw	s0,24(sp)
    2f14:	00912a23          	sw	s1,20(sp)
    2f18:	01212823          	sw	s2,16(sp)
    2f1c:	01312623          	sw	s3,12(sp)
    2f20:	01412423          	sw	s4,8(sp)
    2f24:	02010413          	add	s0,sp,32
    2f28:	00050913          	mv	s2,a0
    2f2c:	00058493          	mv	s1,a1
    2f30:	00060993          	mv	s3,a2
    2f34:	00068a13          	mv	s4,a3
  struct proc *p = myproc();
    2f38:	fffff097          	auipc	ra,0xfffff
    2f3c:	198080e7          	jalr	408(ra) # 20d0 <myproc>
  if(user_src){
    2f40:	02048e63          	beqz	s1,2f7c <either_copyin+0x74>
    return copyin(p->pagetable, dst, src, len);
    2f44:	000a0693          	mv	a3,s4
    2f48:	00098613          	mv	a2,s3
    2f4c:	00090593          	mv	a1,s2
    2f50:	02c52503          	lw	a0,44(a0)
    2f54:	fffff097          	auipc	ra,0xfffff
    2f58:	db8080e7          	jalr	-584(ra) # 1d0c <copyin>
  } else {
    memmove(dst, (char*)src, len);
    return 0;
  }
}
    2f5c:	01c12083          	lw	ra,28(sp)
    2f60:	01812403          	lw	s0,24(sp)
    2f64:	01412483          	lw	s1,20(sp)
    2f68:	01012903          	lw	s2,16(sp)
    2f6c:	00c12983          	lw	s3,12(sp)
    2f70:	00812a03          	lw	s4,8(sp)
    2f74:	02010113          	add	sp,sp,32
    2f78:	00008067          	ret
    memmove(dst, (char*)src, len);
    2f7c:	000a0613          	mv	a2,s4
    2f80:	00098593          	mv	a1,s3
    2f84:	00090513          	mv	a0,s2
    2f88:	ffffe097          	auipc	ra,0xffffe
    2f8c:	f6c080e7          	jalr	-148(ra) # ef4 <memmove>
    return 0;
    2f90:	00048513          	mv	a0,s1
    2f94:	fc9ff06f          	j	2f5c <either_copyin+0x54>

00002f98 <procdump>:
// Print a process listing to console.  For debugging.
// Runs when user types ^P on console.
// No lock to avoid wedging a stuck machine further.
void
procdump(void)
{
    2f98:	fd010113          	add	sp,sp,-48
    2f9c:	02112623          	sw	ra,44(sp)
    2fa0:	02812423          	sw	s0,40(sp)
    2fa4:	02912223          	sw	s1,36(sp)
    2fa8:	03212023          	sw	s2,32(sp)
    2fac:	01312e23          	sw	s3,28(sp)
    2fb0:	01412c23          	sw	s4,24(sp)
    2fb4:	01512a23          	sw	s5,20(sp)
    2fb8:	01612823          	sw	s6,16(sp)
    2fbc:	01712623          	sw	s7,12(sp)
    2fc0:	03010413          	add	s0,sp,48
  [ZOMBIE]    "zombie"
  };
  struct proc *p;
  char *state;

  printf("\n");
    2fc4:	00005517          	auipc	a0,0x5
    2fc8:	1fc50513          	add	a0,a0,508 # 81c0 <userret+0x120>
    2fcc:	ffffd097          	auipc	ra,0xffffd
    2fd0:	71c080e7          	jalr	1820(ra) # 6e8 <printf>
  for(p = proc; p < &proc[NPROC]; p++){
    2fd4:	0000f497          	auipc	s1,0xf
    2fd8:	7c048493          	add	s1,s1,1984 # 12794 <proc+0xb0>
    2fdc:	00012917          	auipc	s2,0x12
    2fe0:	7b890913          	add	s2,s2,1976 # 15794 <bcache+0xa4>
    if(p->state == UNUSED)
      continue;
    if(p->state >= 0 && p->state < NELEM(states) && states[p->state])
    2fe4:	00400b13          	li	s6,4
      state = states[p->state];
    else
      state = "???";
    2fe8:	00005997          	auipc	s3,0x5
    2fec:	37498993          	add	s3,s3,884 # 835c <userret+0x2bc>
    printf("%d %s %s", p->pid, state, p->name);
    2ff0:	00005a97          	auipc	s5,0x5
    2ff4:	370a8a93          	add	s5,s5,880 # 8360 <userret+0x2c0>
    printf("\n");
    2ff8:	00005a17          	auipc	s4,0x5
    2ffc:	1c8a0a13          	add	s4,s4,456 # 81c0 <userret+0x120>
    if(p->state >= 0 && p->state < NELEM(states) && states[p->state])
    3000:	00005b97          	auipc	s7,0x5
    3004:	778b8b93          	add	s7,s7,1912 # 8778 <states.0>
    3008:	0280006f          	j	3030 <procdump+0x98>
    printf("%d %s %s", p->pid, state, p->name);
    300c:	f706a583          	lw	a1,-144(a3)
    3010:	000a8513          	mv	a0,s5
    3014:	ffffd097          	auipc	ra,0xffffd
    3018:	6d4080e7          	jalr	1748(ra) # 6e8 <printf>
    printf("\n");
    301c:	000a0513          	mv	a0,s4
    3020:	ffffd097          	auipc	ra,0xffffd
    3024:	6c8080e7          	jalr	1736(ra) # 6e8 <printf>
  for(p = proc; p < &proc[NPROC]; p++){
    3028:	0c048493          	add	s1,s1,192
    302c:	03248863          	beq	s1,s2,305c <procdump+0xc4>
    if(p->state == UNUSED)
    3030:	00048693          	mv	a3,s1
    3034:	f5c4a783          	lw	a5,-164(s1)
    3038:	fe0788e3          	beqz	a5,3028 <procdump+0x90>
      state = "???";
    303c:	00098613          	mv	a2,s3
    if(p->state >= 0 && p->state < NELEM(states) && states[p->state])
    3040:	fcfb66e3          	bltu	s6,a5,300c <procdump+0x74>
    3044:	00279793          	sll	a5,a5,0x2
    3048:	00fb87b3          	add	a5,s7,a5
    304c:	0007a603          	lw	a2,0(a5)
    3050:	fa061ee3          	bnez	a2,300c <procdump+0x74>
      state = "???";
    3054:	00098613          	mv	a2,s3
    3058:	fb5ff06f          	j	300c <procdump+0x74>
  }
}
    305c:	02c12083          	lw	ra,44(sp)
    3060:	02812403          	lw	s0,40(sp)
    3064:	02412483          	lw	s1,36(sp)
    3068:	02012903          	lw	s2,32(sp)
    306c:	01c12983          	lw	s3,28(sp)
    3070:	01812a03          	lw	s4,24(sp)
    3074:	01412a83          	lw	s5,20(sp)
    3078:	01012b03          	lw	s6,16(sp)
    307c:	00c12b83          	lw	s7,12(sp)
    3080:	03010113          	add	sp,sp,48
    3084:	00008067          	ret

00003088 <swtch>:
    3088:	00152023          	sw	ra,0(a0)
    308c:	00252223          	sw	sp,4(a0)
    3090:	00852423          	sw	s0,8(a0)
    3094:	00952623          	sw	s1,12(a0)
    3098:	01252823          	sw	s2,16(a0)
    309c:	01352a23          	sw	s3,20(a0)
    30a0:	01452c23          	sw	s4,24(a0)
    30a4:	01552e23          	sw	s5,28(a0)
    30a8:	03652023          	sw	s6,32(a0)
    30ac:	03752223          	sw	s7,36(a0)
    30b0:	03852423          	sw	s8,40(a0)
    30b4:	03952623          	sw	s9,44(a0)
    30b8:	03a52823          	sw	s10,48(a0)
    30bc:	03b52a23          	sw	s11,52(a0)
    30c0:	0005a083          	lw	ra,0(a1)
    30c4:	0045a103          	lw	sp,4(a1)
    30c8:	0085a403          	lw	s0,8(a1)
    30cc:	00c5a483          	lw	s1,12(a1)
    30d0:	0105a903          	lw	s2,16(a1)
    30d4:	0145a983          	lw	s3,20(a1)
    30d8:	0185aa03          	lw	s4,24(a1)
    30dc:	01c5aa83          	lw	s5,28(a1)
    30e0:	0205ab03          	lw	s6,32(a1)
    30e4:	0245ab83          	lw	s7,36(a1)
    30e8:	0285ac03          	lw	s8,40(a1)
    30ec:	02c5ac83          	lw	s9,44(a1)
    30f0:	0305ad03          	lw	s10,48(a1)
    30f4:	0345ad83          	lw	s11,52(a1)
    30f8:	00008067          	ret

000030fc <trapinit>:

extern int devintr();

void
trapinit(void)
{
    30fc:	ff010113          	add	sp,sp,-16
    3100:	00112623          	sw	ra,12(sp)
    3104:	00812423          	sw	s0,8(sp)
    3108:	01010413          	add	s0,sp,16
  initlock(&tickslock, "time");
    310c:	00005597          	auipc	a1,0x5
    3110:	28858593          	add	a1,a1,648 # 8394 <userret+0x2f4>
    3114:	00012517          	auipc	a0,0x12
    3118:	5d050513          	add	a0,a0,1488 # 156e4 <tickslock>
    311c:	ffffe097          	auipc	ra,0xffffe
    3120:	b04080e7          	jalr	-1276(ra) # c20 <initlock>
}
    3124:	00c12083          	lw	ra,12(sp)
    3128:	00812403          	lw	s0,8(sp)
    312c:	01010113          	add	sp,sp,16
    3130:	00008067          	ret

00003134 <trapinithart>:

// set up to take exceptions and traps while in the kernel.
void
trapinithart(void)
{
    3134:	ff010113          	add	sp,sp,-16
    3138:	00812623          	sw	s0,12(sp)
    313c:	01010413          	add	s0,sp,16
  asm volatile("csrw stvec, %0" : : "r" (x));
    3140:	00004797          	auipc	a5,0x4
    3144:	64078793          	add	a5,a5,1600 # 7780 <kernelvec>
    3148:	10579073          	csrw	stvec,a5
  w_stvec((uint32)kernelvec);
}
    314c:	00c12403          	lw	s0,12(sp)
    3150:	01010113          	add	sp,sp,16
    3154:	00008067          	ret

00003158 <usertrapret>:
//
// return to user space
//
void
usertrapret(void)
{
    3158:	ff010113          	add	sp,sp,-16
    315c:	00112623          	sw	ra,12(sp)
    3160:	00812423          	sw	s0,8(sp)
    3164:	01010413          	add	s0,sp,16
  struct proc *p = myproc();
    3168:	fffff097          	auipc	ra,0xfffff
    316c:	f68080e7          	jalr	-152(ra) # 20d0 <myproc>
  asm volatile("csrr %0, sstatus" : "=r" (x) );
    3170:	100027f3          	csrr	a5,sstatus
  w_sstatus(r_sstatus() & ~SSTATUS_SIE);
    3174:	ffd7f793          	and	a5,a5,-3
  asm volatile("csrw sstatus, %0" : : "r" (x));
    3178:	10079073          	csrw	sstatus,a5
  // turn off interrupts, since we're switching
  // now from kerneltrap() to usertrap().
  intr_off();

  // send syscalls, interrupts, and exceptions to trampoline.S
  w_stvec(TRAMPOLINE + (uservec - trampoline));
    317c:	00005617          	auipc	a2,0x5
    3180:	e8460613          	add	a2,a2,-380 # 8000 <trampoline>
    3184:	00005797          	auipc	a5,0x5
    3188:	e7c78793          	add	a5,a5,-388 # 8000 <trampoline>
    318c:	40c787b3          	sub	a5,a5,a2
    3190:	fffff737          	lui	a4,0xfffff
    3194:	00e787b3          	add	a5,a5,a4
  asm volatile("csrw stvec, %0" : : "r" (x));
    3198:	10579073          	csrw	stvec,a5

  // set up trapframe values that uservec will need when
  // the process next re-enters the kernel.
  p->tf->kernel_satp = r_satp();         // kernel page table
    319c:	03052783          	lw	a5,48(a0)
  asm volatile("csrr %0, satp" : "=r" (x) );
    31a0:	18002773          	csrr	a4,satp
    31a4:	00e7a023          	sw	a4,0(a5)
  p->tf->kernel_sp = p->kstack + PGSIZE; // process's kernel stack
    31a8:	03052703          	lw	a4,48(a0)
    31ac:	000016b7          	lui	a3,0x1
    31b0:	02452783          	lw	a5,36(a0)
    31b4:	00d787b3          	add	a5,a5,a3
    31b8:	00f72223          	sw	a5,4(a4) # fffff004 <end+0xfffddff0>
  p->tf->kernel_trap = (uint32)usertrap;
    31bc:	03052783          	lw	a5,48(a0)
    31c0:	00000717          	auipc	a4,0x0
    31c4:	15870713          	add	a4,a4,344 # 3318 <usertrap>
    31c8:	00e7a423          	sw	a4,8(a5)
  p->tf->kernel_hartid = r_tp();         // hartid for cpuid()
    31cc:	03052783          	lw	a5,48(a0)
  asm volatile("mv %0, tp" : "=r" (x) );
    31d0:	00020713          	mv	a4,tp
    31d4:	00e7a823          	sw	a4,16(a5)
  asm volatile("csrr %0, sstatus" : "=r" (x) );
    31d8:	100027f3          	csrr	a5,sstatus
  // set up the registers that trampoline.S's sret will use
  // to get to user space.
  
  // set S Previous Privilege mode to User.
  unsigned long x = r_sstatus();
  x &= ~SSTATUS_SPP; // clear SPP to 0 for user mode
    31dc:	eff7f793          	and	a5,a5,-257
  x |= SSTATUS_SPIE; // enable interrupts in user mode
    31e0:	0207e793          	or	a5,a5,32
  asm volatile("csrw sstatus, %0" : : "r" (x));
    31e4:	10079073          	csrw	sstatus,a5
  w_sstatus(x);

  // set S Exception Program Counter to the saved user pc.
  w_sepc(p->tf->epc);
    31e8:	03052783          	lw	a5,48(a0)
  asm volatile("csrw sepc, %0" : : "r" (x));
    31ec:	00c7a783          	lw	a5,12(a5)
    31f0:	14179073          	csrw	sepc,a5

  // tell trampoline.S the user page table to switch to.
  uint32 satp = MAKE_SATP(p->pagetable);
    31f4:	02c52703          	lw	a4,44(a0)
    31f8:	00c75713          	srl	a4,a4,0xc

  // jump to trampoline.S at the top of memory, which 
  // switches to the user page table, restores user registers,
  // and switches to user mode with sret.
  uint32 fn = TRAMPOLINE + (userret - trampoline);
    31fc:	00005797          	auipc	a5,0x5
    3200:	ea478793          	add	a5,a5,-348 # 80a0 <userret>
    3204:	40c787b3          	sub	a5,a5,a2
    3208:	40d787b3          	sub	a5,a5,a3
  ((void (*)(uint32,uint32))fn)(TRAPFRAME, satp);
    320c:	800005b7          	lui	a1,0x80000
    3210:	00b765b3          	or	a1,a4,a1
    3214:	ffffe537          	lui	a0,0xffffe
    3218:	000780e7          	jalr	a5
}
    321c:	00c12083          	lw	ra,12(sp)
    3220:	00812403          	lw	s0,8(sp)
    3224:	01010113          	add	sp,sp,16
    3228:	00008067          	ret

0000322c <clockintr>:
  w_sstatus(sstatus);
}

void
clockintr()
{
    322c:	ff010113          	add	sp,sp,-16
    3230:	00112623          	sw	ra,12(sp)
    3234:	00812423          	sw	s0,8(sp)
    3238:	00912223          	sw	s1,4(sp)
    323c:	01010413          	add	s0,sp,16
  acquire(&tickslock);
    3240:	00012497          	auipc	s1,0x12
    3244:	4a448493          	add	s1,s1,1188 # 156e4 <tickslock>
    3248:	00048513          	mv	a0,s1
    324c:	ffffe097          	auipc	ra,0xffffe
    3250:	b58080e7          	jalr	-1192(ra) # da4 <acquire>
  ticks++;
    3254:	0001e517          	auipc	a0,0x1e
    3258:	dbc50513          	add	a0,a0,-580 # 21010 <ticks>
    325c:	00052783          	lw	a5,0(a0)
    3260:	00178793          	add	a5,a5,1
    3264:	00f52023          	sw	a5,0(a0)
  wakeup(&ticks);
    3268:	00000097          	auipc	ra,0x0
    326c:	ac8080e7          	jalr	-1336(ra) # 2d30 <wakeup>
  release(&tickslock);
    3270:	00048513          	mv	a0,s1
    3274:	ffffe097          	auipc	ra,0xffffe
    3278:	ba4080e7          	jalr	-1116(ra) # e18 <release>
}
    327c:	00c12083          	lw	ra,12(sp)
    3280:	00812403          	lw	s0,8(sp)
    3284:	00412483          	lw	s1,4(sp)
    3288:	01010113          	add	sp,sp,16
    328c:	00008067          	ret

00003290 <devintr>:
  asm volatile("csrr %0, scause" : "=r" (x) );
    3290:	142027f3          	csrr	a5,scause
    // the SSIP bit in sip.
    w_sip(r_sip() & ~2);

    return 2;
  } else {
    return 0;
    3294:	00000513          	li	a0,0
  if((scause & 0x80000000L) &&
    3298:	0607de63          	bgez	a5,3314 <devintr+0x84>
{
    329c:	ff010113          	add	sp,sp,-16
    32a0:	00112623          	sw	ra,12(sp)
    32a4:	00812423          	sw	s0,8(sp)
    32a8:	01010413          	add	s0,sp,16
     (scause & 0xff) == 9){
    32ac:	0ff7f713          	zext.b	a4,a5
  if((scause & 0x80000000L) &&
    32b0:	00900693          	li	a3,9
    32b4:	02d70263          	beq	a4,a3,32d8 <devintr+0x48>
  } else if(scause == 0x80000001L){
    32b8:	80000737          	lui	a4,0x80000
    32bc:	00170713          	add	a4,a4,1 # 80000001 <end+0x7ffdefed>
    return 0;
    32c0:	00000513          	li	a0,0
  } else if(scause == 0x80000001L){
    32c4:	02e78263          	beq	a5,a4,32e8 <devintr+0x58>
  }
}
    32c8:	00c12083          	lw	ra,12(sp)
    32cc:	00812403          	lw	s0,8(sp)
    32d0:	01010113          	add	sp,sp,16
    32d4:	00008067          	ret
      uartintr();
    32d8:	ffffd097          	auipc	ra,0xffffd
    32dc:	728080e7          	jalr	1832(ra) # a00 <uartintr>
    return 1;
    32e0:	00100513          	li	a0,1
    32e4:	fe5ff06f          	j	32c8 <devintr+0x38>
    if(cpuid() == 0){
    32e8:	fffff097          	auipc	ra,0xfffff
    32ec:	d98080e7          	jalr	-616(ra) # 2080 <cpuid>
    32f0:	00050c63          	beqz	a0,3308 <devintr+0x78>
  asm volatile("csrr %0, sip" : "=r" (x) );
    32f4:	144027f3          	csrr	a5,sip
    w_sip(r_sip() & ~2);
    32f8:	ffd7f793          	and	a5,a5,-3
  asm volatile("csrw sip, %0" : : "r" (x));
    32fc:	14479073          	csrw	sip,a5
    return 2;
    3300:	00200513          	li	a0,2
    3304:	fc5ff06f          	j	32c8 <devintr+0x38>
      clockintr();
    3308:	00000097          	auipc	ra,0x0
    330c:	f24080e7          	jalr	-220(ra) # 322c <clockintr>
    3310:	fe5ff06f          	j	32f4 <devintr+0x64>
}
    3314:	00008067          	ret

00003318 <usertrap>:
{
    3318:	ff010113          	add	sp,sp,-16
    331c:	00112623          	sw	ra,12(sp)
    3320:	00812423          	sw	s0,8(sp)
    3324:	00912223          	sw	s1,4(sp)
    3328:	01212023          	sw	s2,0(sp)
    332c:	01010413          	add	s0,sp,16
  asm volatile("csrr %0, sstatus" : "=r" (x) );
    3330:	100027f3          	csrr	a5,sstatus
  if((r_sstatus() & SSTATUS_SPP) != 0)
    3334:	1007f793          	and	a5,a5,256
    3338:	08079a63          	bnez	a5,33cc <usertrap+0xb4>
  asm volatile("csrw stvec, %0" : : "r" (x));
    333c:	00004797          	auipc	a5,0x4
    3340:	44478793          	add	a5,a5,1092 # 7780 <kernelvec>
    3344:	10579073          	csrw	stvec,a5
  struct proc *p = myproc();
    3348:	fffff097          	auipc	ra,0xfffff
    334c:	d88080e7          	jalr	-632(ra) # 20d0 <myproc>
    3350:	00050493          	mv	s1,a0
  p->tf->epc = r_sepc();
    3354:	03052783          	lw	a5,48(a0)
  asm volatile("csrr %0, sepc" : "=r" (x) );
    3358:	14102773          	csrr	a4,sepc
    335c:	00e7a623          	sw	a4,12(a5)
  asm volatile("csrr %0, scause" : "=r" (x) );
    3360:	14202773          	csrr	a4,scause
  if(r_scause() == 8){
    3364:	00800793          	li	a5,8
    3368:	08f71263          	bne	a4,a5,33ec <usertrap+0xd4>
    if(p->killed)
    336c:	01852783          	lw	a5,24(a0)
    3370:	06079663          	bnez	a5,33dc <usertrap+0xc4>
    p->tf->epc += 4;
    3374:	0304a703          	lw	a4,48(s1)
    3378:	00c72783          	lw	a5,12(a4)
    337c:	00478793          	add	a5,a5,4
    3380:	00f72623          	sw	a5,12(a4)
  asm volatile("csrr %0, sie" : "=r" (x) );
    3384:	104027f3          	csrr	a5,sie
  w_sie(r_sie() | SIE_SEIE | SIE_STIE | SIE_SSIE);
    3388:	2227e793          	or	a5,a5,546
  asm volatile("csrw sie, %0" : : "r" (x));
    338c:	10479073          	csrw	sie,a5
  asm volatile("csrr %0, sstatus" : "=r" (x) );
    3390:	100027f3          	csrr	a5,sstatus
  w_sstatus(r_sstatus() | SSTATUS_SIE);
    3394:	0027e793          	or	a5,a5,2
  asm volatile("csrw sstatus, %0" : : "r" (x));
    3398:	10079073          	csrw	sstatus,a5
    syscall();
    339c:	00000097          	auipc	ra,0x0
    33a0:	430080e7          	jalr	1072(ra) # 37cc <syscall>
  if(p->killed)
    33a4:	0184a783          	lw	a5,24(s1)
    33a8:	0a079c63          	bnez	a5,3460 <usertrap+0x148>
  usertrapret();
    33ac:	00000097          	auipc	ra,0x0
    33b0:	dac080e7          	jalr	-596(ra) # 3158 <usertrapret>
}
    33b4:	00c12083          	lw	ra,12(sp)
    33b8:	00812403          	lw	s0,8(sp)
    33bc:	00412483          	lw	s1,4(sp)
    33c0:	00012903          	lw	s2,0(sp)
    33c4:	01010113          	add	sp,sp,16
    33c8:	00008067          	ret
    panic("usertrap: not from user mode");
    33cc:	00005517          	auipc	a0,0x5
    33d0:	fd050513          	add	a0,a0,-48 # 839c <userret+0x2fc>
    33d4:	ffffd097          	auipc	ra,0xffffd
    33d8:	2b8080e7          	jalr	696(ra) # 68c <panic>
      exit(-1);
    33dc:	fff00513          	li	a0,-1
    33e0:	fffff097          	auipc	ra,0xfffff
    33e4:	5a0080e7          	jalr	1440(ra) # 2980 <exit>
    33e8:	f8dff06f          	j	3374 <usertrap+0x5c>
  } else if((which_dev = devintr()) != 0){
    33ec:	00000097          	auipc	ra,0x0
    33f0:	ea4080e7          	jalr	-348(ra) # 3290 <devintr>
    33f4:	00050913          	mv	s2,a0
    33f8:	00050863          	beqz	a0,3408 <usertrap+0xf0>
  if(p->killed)
    33fc:	0184a783          	lw	a5,24(s1)
    3400:	04078663          	beqz	a5,344c <usertrap+0x134>
    3404:	03c0006f          	j	3440 <usertrap+0x128>
  asm volatile("csrr %0, scause" : "=r" (x) );
    3408:	142025f3          	csrr	a1,scause
    printf("usertrap(): unexpected scause %p pid=%d\n", r_scause(), p->pid);
    340c:	0204a603          	lw	a2,32(s1)
    3410:	00005517          	auipc	a0,0x5
    3414:	fac50513          	add	a0,a0,-84 # 83bc <userret+0x31c>
    3418:	ffffd097          	auipc	ra,0xffffd
    341c:	2d0080e7          	jalr	720(ra) # 6e8 <printf>
  asm volatile("csrr %0, sepc" : "=r" (x) );
    3420:	141025f3          	csrr	a1,sepc
  asm volatile("csrr %0, stval" : "=r" (x) );
    3424:	14302673          	csrr	a2,stval
    printf("            sepc=%p stval=%p\n", r_sepc(), r_stval());
    3428:	00005517          	auipc	a0,0x5
    342c:	fc050513          	add	a0,a0,-64 # 83e8 <userret+0x348>
    3430:	ffffd097          	auipc	ra,0xffffd
    3434:	2b8080e7          	jalr	696(ra) # 6e8 <printf>
    p->killed = 1;
    3438:	00100793          	li	a5,1
    343c:	00f4ac23          	sw	a5,24(s1)
    exit(-1);
    3440:	fff00513          	li	a0,-1
    3444:	fffff097          	auipc	ra,0xfffff
    3448:	53c080e7          	jalr	1340(ra) # 2980 <exit>
  if(which_dev == 2)
    344c:	00200793          	li	a5,2
    3450:	f4f91ee3          	bne	s2,a5,33ac <usertrap+0x94>
    yield();
    3454:	fffff097          	auipc	ra,0xfffff
    3458:	668080e7          	jalr	1640(ra) # 2abc <yield>
    345c:	f51ff06f          	j	33ac <usertrap+0x94>
  int which_dev = 0;
    3460:	00000913          	li	s2,0
    3464:	fddff06f          	j	3440 <usertrap+0x128>

00003468 <kerneltrap>:
{
    3468:	fe010113          	add	sp,sp,-32
    346c:	00112e23          	sw	ra,28(sp)
    3470:	00812c23          	sw	s0,24(sp)
    3474:	00912a23          	sw	s1,20(sp)
    3478:	01212823          	sw	s2,16(sp)
    347c:	01312623          	sw	s3,12(sp)
    3480:	02010413          	add	s0,sp,32
  asm volatile("csrr %0, sepc" : "=r" (x) );
    3484:	14102973          	csrr	s2,sepc
  asm volatile("csrr %0, sstatus" : "=r" (x) );
    3488:	100024f3          	csrr	s1,sstatus
  asm volatile("csrr %0, scause" : "=r" (x) );
    348c:	142029f3          	csrr	s3,scause
  if((sstatus & SSTATUS_SPP) == 0)
    3490:	1004f793          	and	a5,s1,256
    3494:	04078463          	beqz	a5,34dc <kerneltrap+0x74>
  asm volatile("csrr %0, sstatus" : "=r" (x) );
    3498:	100027f3          	csrr	a5,sstatus
  return (x & SSTATUS_SIE) != 0;
    349c:	0027f793          	and	a5,a5,2
  if(intr_get() != 0)
    34a0:	04079663          	bnez	a5,34ec <kerneltrap+0x84>
  if((which_dev = devintr()) == 0){
    34a4:	00000097          	auipc	ra,0x0
    34a8:	dec080e7          	jalr	-532(ra) # 3290 <devintr>
    34ac:	04050863          	beqz	a0,34fc <kerneltrap+0x94>
  if(which_dev == 2 && myproc() != 0 && myproc()->state == RUNNING)
    34b0:	00200793          	li	a5,2
    34b4:	08f50263          	beq	a0,a5,3538 <kerneltrap+0xd0>
  asm volatile("csrw sepc, %0" : : "r" (x));
    34b8:	14191073          	csrw	sepc,s2
  asm volatile("csrw sstatus, %0" : : "r" (x));
    34bc:	10049073          	csrw	sstatus,s1
}
    34c0:	01c12083          	lw	ra,28(sp)
    34c4:	01812403          	lw	s0,24(sp)
    34c8:	01412483          	lw	s1,20(sp)
    34cc:	01012903          	lw	s2,16(sp)
    34d0:	00c12983          	lw	s3,12(sp)
    34d4:	02010113          	add	sp,sp,32
    34d8:	00008067          	ret
    panic("kerneltrap: not from supervisor mode");
    34dc:	00005517          	auipc	a0,0x5
    34e0:	f2c50513          	add	a0,a0,-212 # 8408 <userret+0x368>
    34e4:	ffffd097          	auipc	ra,0xffffd
    34e8:	1a8080e7          	jalr	424(ra) # 68c <panic>
    panic("kerneltrap: interrupts enabled");
    34ec:	00005517          	auipc	a0,0x5
    34f0:	f4450513          	add	a0,a0,-188 # 8430 <userret+0x390>
    34f4:	ffffd097          	auipc	ra,0xffffd
    34f8:	198080e7          	jalr	408(ra) # 68c <panic>
    printf("scause %p\n", scause);
    34fc:	00098593          	mv	a1,s3
    3500:	00005517          	auipc	a0,0x5
    3504:	f5050513          	add	a0,a0,-176 # 8450 <userret+0x3b0>
    3508:	ffffd097          	auipc	ra,0xffffd
    350c:	1e0080e7          	jalr	480(ra) # 6e8 <printf>
  asm volatile("csrr %0, sepc" : "=r" (x) );
    3510:	141025f3          	csrr	a1,sepc
  asm volatile("csrr %0, stval" : "=r" (x) );
    3514:	14302673          	csrr	a2,stval
    printf("sepc=%p stval=%p\n", r_sepc(), r_stval());
    3518:	00005517          	auipc	a0,0x5
    351c:	edc50513          	add	a0,a0,-292 # 83f4 <userret+0x354>
    3520:	ffffd097          	auipc	ra,0xffffd
    3524:	1c8080e7          	jalr	456(ra) # 6e8 <printf>
    panic("kerneltrap");
    3528:	00005517          	auipc	a0,0x5
    352c:	f3450513          	add	a0,a0,-204 # 845c <userret+0x3bc>
    3530:	ffffd097          	auipc	ra,0xffffd
    3534:	15c080e7          	jalr	348(ra) # 68c <panic>
  if(which_dev == 2 && myproc() != 0 && myproc()->state == RUNNING)
    3538:	fffff097          	auipc	ra,0xfffff
    353c:	b98080e7          	jalr	-1128(ra) # 20d0 <myproc>
    3540:	f6050ce3          	beqz	a0,34b8 <kerneltrap+0x50>
    3544:	fffff097          	auipc	ra,0xfffff
    3548:	b8c080e7          	jalr	-1140(ra) # 20d0 <myproc>
    354c:	00c52703          	lw	a4,12(a0)
    3550:	00300793          	li	a5,3
    3554:	f6f712e3          	bne	a4,a5,34b8 <kerneltrap+0x50>
    yield();
    3558:	fffff097          	auipc	ra,0xfffff
    355c:	564080e7          	jalr	1380(ra) # 2abc <yield>
    3560:	f59ff06f          	j	34b8 <kerneltrap+0x50>

00003564 <argraw>:
  return strlen(buf);
}

static uint32
argraw(int n)
{
    3564:	ff010113          	add	sp,sp,-16
    3568:	00112623          	sw	ra,12(sp)
    356c:	00812423          	sw	s0,8(sp)
    3570:	00912223          	sw	s1,4(sp)
    3574:	01010413          	add	s0,sp,16
    3578:	00050493          	mv	s1,a0
  struct proc *p = myproc();
    357c:	fffff097          	auipc	ra,0xfffff
    3580:	b54080e7          	jalr	-1196(ra) # 20d0 <myproc>
  switch (n) {
    3584:	00500793          	li	a5,5
    3588:	0697ec63          	bltu	a5,s1,3600 <argraw+0x9c>
    358c:	00249493          	sll	s1,s1,0x2
    3590:	00005717          	auipc	a4,0x5
    3594:	1fc70713          	add	a4,a4,508 # 878c <states.0+0x14>
    3598:	00e484b3          	add	s1,s1,a4
    359c:	0004a783          	lw	a5,0(s1)
    35a0:	00e787b3          	add	a5,a5,a4
    35a4:	00078067          	jr	a5
  case 0:
    return p->tf->a0;
    35a8:	03052783          	lw	a5,48(a0)
    35ac:	0387a503          	lw	a0,56(a5)
  case 5:
    return p->tf->a5;
  }
  panic("argraw");
  return -1;
}
    35b0:	00c12083          	lw	ra,12(sp)
    35b4:	00812403          	lw	s0,8(sp)
    35b8:	00412483          	lw	s1,4(sp)
    35bc:	01010113          	add	sp,sp,16
    35c0:	00008067          	ret
    return p->tf->a1;
    35c4:	03052783          	lw	a5,48(a0)
    35c8:	03c7a503          	lw	a0,60(a5)
    35cc:	fe5ff06f          	j	35b0 <argraw+0x4c>
    return p->tf->a2;
    35d0:	03052783          	lw	a5,48(a0)
    35d4:	0407a503          	lw	a0,64(a5)
    35d8:	fd9ff06f          	j	35b0 <argraw+0x4c>
    return p->tf->a3;
    35dc:	03052783          	lw	a5,48(a0)
    35e0:	0447a503          	lw	a0,68(a5)
    35e4:	fcdff06f          	j	35b0 <argraw+0x4c>
    return p->tf->a4;
    35e8:	03052783          	lw	a5,48(a0)
    35ec:	0487a503          	lw	a0,72(a5)
    35f0:	fc1ff06f          	j	35b0 <argraw+0x4c>
    return p->tf->a5;
    35f4:	03052783          	lw	a5,48(a0)
    35f8:	04c7a503          	lw	a0,76(a5)
    35fc:	fb5ff06f          	j	35b0 <argraw+0x4c>
  panic("argraw");
    3600:	00005517          	auipc	a0,0x5
    3604:	e6850513          	add	a0,a0,-408 # 8468 <userret+0x3c8>
    3608:	ffffd097          	auipc	ra,0xffffd
    360c:	084080e7          	jalr	132(ra) # 68c <panic>

00003610 <fetchaddr>:
{
    3610:	ff010113          	add	sp,sp,-16
    3614:	00112623          	sw	ra,12(sp)
    3618:	00812423          	sw	s0,8(sp)
    361c:	00912223          	sw	s1,4(sp)
    3620:	01212023          	sw	s2,0(sp)
    3624:	01010413          	add	s0,sp,16
    3628:	00050493          	mv	s1,a0
    362c:	00058913          	mv	s2,a1
  struct proc *p = myproc();
    3630:	fffff097          	auipc	ra,0xfffff
    3634:	aa0080e7          	jalr	-1376(ra) # 20d0 <myproc>
  if(addr >= p->sz || addr+sizeof(uint32) > p->sz)
    3638:	02852783          	lw	a5,40(a0)
    363c:	04f4f263          	bgeu	s1,a5,3680 <fetchaddr+0x70>
    3640:	00448713          	add	a4,s1,4
    3644:	04e7e263          	bltu	a5,a4,3688 <fetchaddr+0x78>
  if(copyin(p->pagetable, (char *)ip, addr, sizeof(*ip)) != 0)
    3648:	00400693          	li	a3,4
    364c:	00048613          	mv	a2,s1
    3650:	00090593          	mv	a1,s2
    3654:	02c52503          	lw	a0,44(a0)
    3658:	ffffe097          	auipc	ra,0xffffe
    365c:	6b4080e7          	jalr	1716(ra) # 1d0c <copyin>
    3660:	00a03533          	snez	a0,a0
    3664:	40a00533          	neg	a0,a0
}
    3668:	00c12083          	lw	ra,12(sp)
    366c:	00812403          	lw	s0,8(sp)
    3670:	00412483          	lw	s1,4(sp)
    3674:	00012903          	lw	s2,0(sp)
    3678:	01010113          	add	sp,sp,16
    367c:	00008067          	ret
    return -1;
    3680:	fff00513          	li	a0,-1
    3684:	fe5ff06f          	j	3668 <fetchaddr+0x58>
    3688:	fff00513          	li	a0,-1
    368c:	fddff06f          	j	3668 <fetchaddr+0x58>

00003690 <fetchstr>:
{
    3690:	fe010113          	add	sp,sp,-32
    3694:	00112e23          	sw	ra,28(sp)
    3698:	00812c23          	sw	s0,24(sp)
    369c:	00912a23          	sw	s1,20(sp)
    36a0:	01212823          	sw	s2,16(sp)
    36a4:	01312623          	sw	s3,12(sp)
    36a8:	02010413          	add	s0,sp,32
    36ac:	00050913          	mv	s2,a0
    36b0:	00058493          	mv	s1,a1
    36b4:	00060993          	mv	s3,a2
  struct proc *p = myproc();
    36b8:	fffff097          	auipc	ra,0xfffff
    36bc:	a18080e7          	jalr	-1512(ra) # 20d0 <myproc>
  int err = copyinstr(p->pagetable, buf, addr, max);
    36c0:	00098693          	mv	a3,s3
    36c4:	00090613          	mv	a2,s2
    36c8:	00048593          	mv	a1,s1
    36cc:	02c52503          	lw	a0,44(a0)
    36d0:	ffffe097          	auipc	ra,0xffffe
    36d4:	724080e7          	jalr	1828(ra) # 1df4 <copyinstr>
  if(err < 0)
    36d8:	00054863          	bltz	a0,36e8 <fetchstr+0x58>
  return strlen(buf);
    36dc:	00048513          	mv	a0,s1
    36e0:	ffffe097          	auipc	ra,0xffffe
    36e4:	9a4080e7          	jalr	-1628(ra) # 1084 <strlen>
}
    36e8:	01c12083          	lw	ra,28(sp)
    36ec:	01812403          	lw	s0,24(sp)
    36f0:	01412483          	lw	s1,20(sp)
    36f4:	01012903          	lw	s2,16(sp)
    36f8:	00c12983          	lw	s3,12(sp)
    36fc:	02010113          	add	sp,sp,32
    3700:	00008067          	ret

00003704 <argint>:

// Fetch the nth 32-bit system call argument.
int
argint(int n, int *ip)
{
    3704:	ff010113          	add	sp,sp,-16
    3708:	00112623          	sw	ra,12(sp)
    370c:	00812423          	sw	s0,8(sp)
    3710:	00912223          	sw	s1,4(sp)
    3714:	01010413          	add	s0,sp,16
    3718:	00058493          	mv	s1,a1
  *ip = argraw(n);
    371c:	00000097          	auipc	ra,0x0
    3720:	e48080e7          	jalr	-440(ra) # 3564 <argraw>
    3724:	00a4a023          	sw	a0,0(s1)
  return 0;
}
    3728:	00000513          	li	a0,0
    372c:	00c12083          	lw	ra,12(sp)
    3730:	00812403          	lw	s0,8(sp)
    3734:	00412483          	lw	s1,4(sp)
    3738:	01010113          	add	sp,sp,16
    373c:	00008067          	ret

00003740 <argaddr>:
// Retrieve an argument as a pointer.
// Doesn't check for legality, since
// copyin/copyout will do that.
int
argaddr(int n, uint32 *ip)
{
    3740:	ff010113          	add	sp,sp,-16
    3744:	00112623          	sw	ra,12(sp)
    3748:	00812423          	sw	s0,8(sp)
    374c:	00912223          	sw	s1,4(sp)
    3750:	01010413          	add	s0,sp,16
    3754:	00058493          	mv	s1,a1
  *ip = argraw(n);
    3758:	00000097          	auipc	ra,0x0
    375c:	e0c080e7          	jalr	-500(ra) # 3564 <argraw>
    3760:	00a4a023          	sw	a0,0(s1)
  return 0;
}
    3764:	00000513          	li	a0,0
    3768:	00c12083          	lw	ra,12(sp)
    376c:	00812403          	lw	s0,8(sp)
    3770:	00412483          	lw	s1,4(sp)
    3774:	01010113          	add	sp,sp,16
    3778:	00008067          	ret

0000377c <argstr>:
// Fetch the nth word-sized system call argument as a null-terminated string.
// Copies into buf, at most max.
// Returns string length if OK (including nul), -1 if error.
int
argstr(int n, char *buf, int max)
{
    377c:	ff010113          	add	sp,sp,-16
    3780:	00112623          	sw	ra,12(sp)
    3784:	00812423          	sw	s0,8(sp)
    3788:	00912223          	sw	s1,4(sp)
    378c:	01212023          	sw	s2,0(sp)
    3790:	01010413          	add	s0,sp,16
    3794:	00058493          	mv	s1,a1
    3798:	00060913          	mv	s2,a2
  *ip = argraw(n);
    379c:	00000097          	auipc	ra,0x0
    37a0:	dc8080e7          	jalr	-568(ra) # 3564 <argraw>
  uint32 addr;
  if(argaddr(n, &addr) < 0)
    return -1;
  return fetchstr(addr, buf, max);
    37a4:	00090613          	mv	a2,s2
    37a8:	00048593          	mv	a1,s1
    37ac:	00000097          	auipc	ra,0x0
    37b0:	ee4080e7          	jalr	-284(ra) # 3690 <fetchstr>
}
    37b4:	00c12083          	lw	ra,12(sp)
    37b8:	00812403          	lw	s0,8(sp)
    37bc:	00412483          	lw	s1,4(sp)
    37c0:	00012903          	lw	s2,0(sp)
    37c4:	01010113          	add	sp,sp,16
    37c8:	00008067          	ret

000037cc <syscall>:
[SYS_close]   sys_close,
};

void
syscall(void)
{
    37cc:	ff010113          	add	sp,sp,-16
    37d0:	00112623          	sw	ra,12(sp)
    37d4:	00812423          	sw	s0,8(sp)
    37d8:	00912223          	sw	s1,4(sp)
    37dc:	01212023          	sw	s2,0(sp)
    37e0:	01010413          	add	s0,sp,16
  int num;
  struct proc *p = myproc();
    37e4:	fffff097          	auipc	ra,0xfffff
    37e8:	8ec080e7          	jalr	-1812(ra) # 20d0 <myproc>
    37ec:	00050493          	mv	s1,a0

  num = p->tf->a7;
    37f0:	03052903          	lw	s2,48(a0)
    37f4:	05492683          	lw	a3,84(s2)
  if(num > 0 && num < NELEM(syscalls) && syscalls[num]) {
    37f8:	fff68713          	add	a4,a3,-1 # fff <strncpy+0x1b>
    37fc:	01400793          	li	a5,20
    3800:	02e7e463          	bltu	a5,a4,3828 <syscall+0x5c>
    3804:	00269713          	sll	a4,a3,0x2
    3808:	00005797          	auipc	a5,0x5
    380c:	f9c78793          	add	a5,a5,-100 # 87a4 <syscalls>
    3810:	00e787b3          	add	a5,a5,a4
    3814:	0007a783          	lw	a5,0(a5)
    3818:	00078863          	beqz	a5,3828 <syscall+0x5c>
    // printf("syscall %p!\n", num);
    p->tf->a0 = syscalls[num]();
    381c:	000780e7          	jalr	a5
    3820:	02a92c23          	sw	a0,56(s2)
    3824:	0280006f          	j	384c <syscall+0x80>
    // printf("result: %p\n", p->tf->a0);
  } else {
    printf("%d %s: unknown sys call %d\n",
    3828:	0b048613          	add	a2,s1,176
    382c:	0204a583          	lw	a1,32(s1)
    3830:	00005517          	auipc	a0,0x5
    3834:	c4050513          	add	a0,a0,-960 # 8470 <userret+0x3d0>
    3838:	ffffd097          	auipc	ra,0xffffd
    383c:	eb0080e7          	jalr	-336(ra) # 6e8 <printf>
            p->pid, p->name, num);
    p->tf->a0 = -1;
    3840:	0304a783          	lw	a5,48(s1)
    3844:	fff00713          	li	a4,-1
    3848:	02e7ac23          	sw	a4,56(a5)
  }
}
    384c:	00c12083          	lw	ra,12(sp)
    3850:	00812403          	lw	s0,8(sp)
    3854:	00412483          	lw	s1,4(sp)
    3858:	00012903          	lw	s2,0(sp)
    385c:	01010113          	add	sp,sp,16
    3860:	00008067          	ret

00003864 <sys_exit>:
#include "spinlock.h"
#include "proc.h"

uint32
sys_exit(void)
{
    3864:	fe010113          	add	sp,sp,-32
    3868:	00112e23          	sw	ra,28(sp)
    386c:	00812c23          	sw	s0,24(sp)
    3870:	02010413          	add	s0,sp,32
  int n;
  if(argint(0, &n) < 0)
    3874:	fec40593          	add	a1,s0,-20
    3878:	00000513          	li	a0,0
    387c:	00000097          	auipc	ra,0x0
    3880:	e88080e7          	jalr	-376(ra) # 3704 <argint>
    return -1;
    3884:	fff00793          	li	a5,-1
  if(argint(0, &n) < 0)
    3888:	00054a63          	bltz	a0,389c <sys_exit+0x38>
  exit(n);
    388c:	fec42503          	lw	a0,-20(s0)
    3890:	fffff097          	auipc	ra,0xfffff
    3894:	0f0080e7          	jalr	240(ra) # 2980 <exit>
  return 0;  // not reached
    3898:	00000793          	li	a5,0
}
    389c:	00078513          	mv	a0,a5
    38a0:	01c12083          	lw	ra,28(sp)
    38a4:	01812403          	lw	s0,24(sp)
    38a8:	02010113          	add	sp,sp,32
    38ac:	00008067          	ret

000038b0 <sys_getpid>:

uint32
sys_getpid(void)
{
    38b0:	ff010113          	add	sp,sp,-16
    38b4:	00112623          	sw	ra,12(sp)
    38b8:	00812423          	sw	s0,8(sp)
    38bc:	01010413          	add	s0,sp,16
  return myproc()->pid;
    38c0:	fffff097          	auipc	ra,0xfffff
    38c4:	810080e7          	jalr	-2032(ra) # 20d0 <myproc>
}
    38c8:	02052503          	lw	a0,32(a0)
    38cc:	00c12083          	lw	ra,12(sp)
    38d0:	00812403          	lw	s0,8(sp)
    38d4:	01010113          	add	sp,sp,16
    38d8:	00008067          	ret

000038dc <sys_fork>:

uint32
sys_fork(void)
{
    38dc:	ff010113          	add	sp,sp,-16
    38e0:	00112623          	sw	ra,12(sp)
    38e4:	00812423          	sw	s0,8(sp)
    38e8:	01010413          	add	s0,sp,16
  return fork();
    38ec:	fffff097          	auipc	ra,0xfffff
    38f0:	c94080e7          	jalr	-876(ra) # 2580 <fork>
}
    38f4:	00c12083          	lw	ra,12(sp)
    38f8:	00812403          	lw	s0,8(sp)
    38fc:	01010113          	add	sp,sp,16
    3900:	00008067          	ret

00003904 <sys_wait>:

uint32
sys_wait(void)
{
    3904:	fe010113          	add	sp,sp,-32
    3908:	00112e23          	sw	ra,28(sp)
    390c:	00812c23          	sw	s0,24(sp)
    3910:	02010413          	add	s0,sp,32
  uint32 p;
  if(argaddr(0, &p) < 0)
    3914:	fec40593          	add	a1,s0,-20
    3918:	00000513          	li	a0,0
    391c:	00000097          	auipc	ra,0x0
    3920:	e24080e7          	jalr	-476(ra) # 3740 <argaddr>
    3924:	00050793          	mv	a5,a0
    return -1;
    3928:	fff00513          	li	a0,-1
  if(argaddr(0, &p) < 0)
    392c:	0007c863          	bltz	a5,393c <sys_wait+0x38>
  return wait(p);
    3930:	fec42503          	lw	a0,-20(s0)
    3934:	fffff097          	auipc	ra,0xfffff
    3938:	290080e7          	jalr	656(ra) # 2bc4 <wait>
}
    393c:	01c12083          	lw	ra,28(sp)
    3940:	01812403          	lw	s0,24(sp)
    3944:	02010113          	add	sp,sp,32
    3948:	00008067          	ret

0000394c <sys_sbrk>:

uint32
sys_sbrk(void)
{
    394c:	fe010113          	add	sp,sp,-32
    3950:	00112e23          	sw	ra,28(sp)
    3954:	00812c23          	sw	s0,24(sp)
    3958:	00912a23          	sw	s1,20(sp)
    395c:	02010413          	add	s0,sp,32
  int addr;
  int n;

  if(argint(0, &n) < 0)
    3960:	fec40593          	add	a1,s0,-20
    3964:	00000513          	li	a0,0
    3968:	00000097          	auipc	ra,0x0
    396c:	d9c080e7          	jalr	-612(ra) # 3704 <argint>
    return -1;
    3970:	fff00493          	li	s1,-1
  if(argint(0, &n) < 0)
    3974:	02054063          	bltz	a0,3994 <sys_sbrk+0x48>
  addr = myproc()->sz;
    3978:	ffffe097          	auipc	ra,0xffffe
    397c:	758080e7          	jalr	1880(ra) # 20d0 <myproc>
    3980:	02852483          	lw	s1,40(a0)
  if(growproc(n) < 0)
    3984:	fec42503          	lw	a0,-20(s0)
    3988:	fffff097          	auipc	ra,0xfffff
    398c:	b6c080e7          	jalr	-1172(ra) # 24f4 <growproc>
    3990:	00054e63          	bltz	a0,39ac <sys_sbrk+0x60>
    return -1;
  return addr;
}
    3994:	00048513          	mv	a0,s1
    3998:	01c12083          	lw	ra,28(sp)
    399c:	01812403          	lw	s0,24(sp)
    39a0:	01412483          	lw	s1,20(sp)
    39a4:	02010113          	add	sp,sp,32
    39a8:	00008067          	ret
    return -1;
    39ac:	fff00493          	li	s1,-1
    39b0:	fe5ff06f          	j	3994 <sys_sbrk+0x48>

000039b4 <sys_sleep>:

uint32
sys_sleep(void)
{
    39b4:	fd010113          	add	sp,sp,-48
    39b8:	02112623          	sw	ra,44(sp)
    39bc:	02812423          	sw	s0,40(sp)
    39c0:	02912223          	sw	s1,36(sp)
    39c4:	03212023          	sw	s2,32(sp)
    39c8:	01312e23          	sw	s3,28(sp)
    39cc:	03010413          	add	s0,sp,48
  int n;
  uint ticks0;

  if(argint(0, &n) < 0)
    39d0:	fdc40593          	add	a1,s0,-36
    39d4:	00000513          	li	a0,0
    39d8:	00000097          	auipc	ra,0x0
    39dc:	d2c080e7          	jalr	-724(ra) # 3704 <argint>
    return -1;
    39e0:	fff00793          	li	a5,-1
  if(argint(0, &n) < 0)
    39e4:	06054c63          	bltz	a0,3a5c <sys_sleep+0xa8>
  acquire(&tickslock);
    39e8:	00012517          	auipc	a0,0x12
    39ec:	cfc50513          	add	a0,a0,-772 # 156e4 <tickslock>
    39f0:	ffffd097          	auipc	ra,0xffffd
    39f4:	3b4080e7          	jalr	948(ra) # da4 <acquire>
  ticks0 = ticks;
    39f8:	0001d917          	auipc	s2,0x1d
    39fc:	61892903          	lw	s2,1560(s2) # 21010 <ticks>
  while(ticks - ticks0 < n){
    3a00:	fdc42783          	lw	a5,-36(s0)
    3a04:	04078263          	beqz	a5,3a48 <sys_sleep+0x94>
    if(myproc()->killed){
      release(&tickslock);
      return -1;
    }
    sleep(&ticks, &tickslock);
    3a08:	00012997          	auipc	s3,0x12
    3a0c:	cdc98993          	add	s3,s3,-804 # 156e4 <tickslock>
    3a10:	0001d497          	auipc	s1,0x1d
    3a14:	60048493          	add	s1,s1,1536 # 21010 <ticks>
    if(myproc()->killed){
    3a18:	ffffe097          	auipc	ra,0xffffe
    3a1c:	6b8080e7          	jalr	1720(ra) # 20d0 <myproc>
    3a20:	01852783          	lw	a5,24(a0)
    3a24:	04079c63          	bnez	a5,3a7c <sys_sleep+0xc8>
    sleep(&ticks, &tickslock);
    3a28:	00098593          	mv	a1,s3
    3a2c:	00048513          	mv	a0,s1
    3a30:	fffff097          	auipc	ra,0xfffff
    3a34:	0e4080e7          	jalr	228(ra) # 2b14 <sleep>
  while(ticks - ticks0 < n){
    3a38:	0004a783          	lw	a5,0(s1)
    3a3c:	412787b3          	sub	a5,a5,s2
    3a40:	fdc42703          	lw	a4,-36(s0)
    3a44:	fce7eae3          	bltu	a5,a4,3a18 <sys_sleep+0x64>
  }
  release(&tickslock);
    3a48:	00012517          	auipc	a0,0x12
    3a4c:	c9c50513          	add	a0,a0,-868 # 156e4 <tickslock>
    3a50:	ffffd097          	auipc	ra,0xffffd
    3a54:	3c8080e7          	jalr	968(ra) # e18 <release>
  return 0;
    3a58:	00000793          	li	a5,0
}
    3a5c:	00078513          	mv	a0,a5
    3a60:	02c12083          	lw	ra,44(sp)
    3a64:	02812403          	lw	s0,40(sp)
    3a68:	02412483          	lw	s1,36(sp)
    3a6c:	02012903          	lw	s2,32(sp)
    3a70:	01c12983          	lw	s3,28(sp)
    3a74:	03010113          	add	sp,sp,48
    3a78:	00008067          	ret
      release(&tickslock);
    3a7c:	00012517          	auipc	a0,0x12
    3a80:	c6850513          	add	a0,a0,-920 # 156e4 <tickslock>
    3a84:	ffffd097          	auipc	ra,0xffffd
    3a88:	394080e7          	jalr	916(ra) # e18 <release>
      return -1;
    3a8c:	fff00793          	li	a5,-1
    3a90:	fcdff06f          	j	3a5c <sys_sleep+0xa8>

00003a94 <sys_kill>:

uint32
sys_kill(void)
{
    3a94:	fe010113          	add	sp,sp,-32
    3a98:	00112e23          	sw	ra,28(sp)
    3a9c:	00812c23          	sw	s0,24(sp)
    3aa0:	02010413          	add	s0,sp,32
  int pid;

  if(argint(0, &pid) < 0)
    3aa4:	fec40593          	add	a1,s0,-20
    3aa8:	00000513          	li	a0,0
    3aac:	00000097          	auipc	ra,0x0
    3ab0:	c58080e7          	jalr	-936(ra) # 3704 <argint>
    3ab4:	00050793          	mv	a5,a0
    return -1;
    3ab8:	fff00513          	li	a0,-1
  if(argint(0, &pid) < 0)
    3abc:	0007c863          	bltz	a5,3acc <sys_kill+0x38>
  return kill(pid);
    3ac0:	fec42503          	lw	a0,-20(s0)
    3ac4:	fffff097          	auipc	ra,0xfffff
    3ac8:	30c080e7          	jalr	780(ra) # 2dd0 <kill>
}
    3acc:	01c12083          	lw	ra,28(sp)
    3ad0:	01812403          	lw	s0,24(sp)
    3ad4:	02010113          	add	sp,sp,32
    3ad8:	00008067          	ret

00003adc <sys_uptime>:

// return how many clock tick interrupts have occurred
// since start.
uint32
sys_uptime(void)
{
    3adc:	ff010113          	add	sp,sp,-16
    3ae0:	00112623          	sw	ra,12(sp)
    3ae4:	00812423          	sw	s0,8(sp)
    3ae8:	00912223          	sw	s1,4(sp)
    3aec:	01010413          	add	s0,sp,16
  uint xticks;

  acquire(&tickslock);
    3af0:	00012517          	auipc	a0,0x12
    3af4:	bf450513          	add	a0,a0,-1036 # 156e4 <tickslock>
    3af8:	ffffd097          	auipc	ra,0xffffd
    3afc:	2ac080e7          	jalr	684(ra) # da4 <acquire>
  xticks = ticks;
    3b00:	0001d497          	auipc	s1,0x1d
    3b04:	5104a483          	lw	s1,1296(s1) # 21010 <ticks>
  release(&tickslock);
    3b08:	00012517          	auipc	a0,0x12
    3b0c:	bdc50513          	add	a0,a0,-1060 # 156e4 <tickslock>
    3b10:	ffffd097          	auipc	ra,0xffffd
    3b14:	308080e7          	jalr	776(ra) # e18 <release>
  return xticks;
}
    3b18:	00048513          	mv	a0,s1
    3b1c:	00c12083          	lw	ra,12(sp)
    3b20:	00812403          	lw	s0,8(sp)
    3b24:	00412483          	lw	s1,4(sp)
    3b28:	01010113          	add	sp,sp,16
    3b2c:	00008067          	ret

00003b30 <binit>:
  struct buf head;
} bcache;

void
binit(void)
{
    3b30:	fe010113          	add	sp,sp,-32
    3b34:	00112e23          	sw	ra,28(sp)
    3b38:	00812c23          	sw	s0,24(sp)
    3b3c:	00912a23          	sw	s1,20(sp)
    3b40:	01212823          	sw	s2,16(sp)
    3b44:	01312623          	sw	s3,12(sp)
    3b48:	01412423          	sw	s4,8(sp)
    3b4c:	02010413          	add	s0,sp,32
  struct buf *b;

  initlock(&bcache.lock, "bcache");
    3b50:	00005597          	auipc	a1,0x5
    3b54:	93c58593          	add	a1,a1,-1732 # 848c <userret+0x3ec>
    3b58:	00012517          	auipc	a0,0x12
    3b5c:	b9850513          	add	a0,a0,-1128 # 156f0 <bcache>
    3b60:	ffffd097          	auipc	ra,0xffffd
    3b64:	0c0080e7          	jalr	192(ra) # c20 <initlock>

  // Create linked list of buffers
  bcache.head.prev = &bcache.head;
    3b68:	0001a797          	auipc	a5,0x1a
    3b6c:	b8878793          	add	a5,a5,-1144 # 1d6f0 <bcache+0x8000>
    3b70:	0001a717          	auipc	a4,0x1a
    3b74:	a1c70713          	add	a4,a4,-1508 # 1d58c <bcache+0x7e9c>
    3b78:	ece7a423          	sw	a4,-312(a5)
  bcache.head.next = &bcache.head;
    3b7c:	ece7a623          	sw	a4,-308(a5)
  for(b = bcache.buf; b < bcache.buf+NBUF; b++){
    3b80:	00012497          	auipc	s1,0x12
    3b84:	b7c48493          	add	s1,s1,-1156 # 156fc <bcache+0xc>
    b->next = bcache.head.next;
    3b88:	00078913          	mv	s2,a5
    b->prev = &bcache.head;
    3b8c:	00070993          	mv	s3,a4
    initsleeplock(&b->lock, "buffer");
    3b90:	00005a17          	auipc	s4,0x5
    3b94:	904a0a13          	add	s4,s4,-1788 # 8494 <userret+0x3f4>
    b->next = bcache.head.next;
    3b98:	ecc92783          	lw	a5,-308(s2)
    3b9c:	02f4a823          	sw	a5,48(s1)
    b->prev = &bcache.head;
    3ba0:	0334a623          	sw	s3,44(s1)
    initsleeplock(&b->lock, "buffer");
    3ba4:	000a0593          	mv	a1,s4
    3ba8:	01048513          	add	a0,s1,16
    3bac:	00002097          	auipc	ra,0x2
    3bb0:	b98080e7          	jalr	-1128(ra) # 5744 <initsleeplock>
    bcache.head.next->prev = b;
    3bb4:	ecc92783          	lw	a5,-308(s2)
    3bb8:	0297a623          	sw	s1,44(a5)
    bcache.head.next = b;
    3bbc:	ec992623          	sw	s1,-308(s2)
  for(b = bcache.buf; b < bcache.buf+NBUF; b++){
    3bc0:	43848493          	add	s1,s1,1080
    3bc4:	fd349ae3          	bne	s1,s3,3b98 <binit+0x68>
  }
}
    3bc8:	01c12083          	lw	ra,28(sp)
    3bcc:	01812403          	lw	s0,24(sp)
    3bd0:	01412483          	lw	s1,20(sp)
    3bd4:	01012903          	lw	s2,16(sp)
    3bd8:	00c12983          	lw	s3,12(sp)
    3bdc:	00812a03          	lw	s4,8(sp)
    3be0:	02010113          	add	sp,sp,32
    3be4:	00008067          	ret

00003be8 <bread>:
}

// Return a locked buf with the contents of the indicated block.
struct buf*
bread(uint dev, uint blockno)
{
    3be8:	fe010113          	add	sp,sp,-32
    3bec:	00112e23          	sw	ra,28(sp)
    3bf0:	00812c23          	sw	s0,24(sp)
    3bf4:	00912a23          	sw	s1,20(sp)
    3bf8:	01212823          	sw	s2,16(sp)
    3bfc:	01312623          	sw	s3,12(sp)
    3c00:	02010413          	add	s0,sp,32
    3c04:	00050913          	mv	s2,a0
    3c08:	00058993          	mv	s3,a1
  acquire(&bcache.lock);
    3c0c:	00012517          	auipc	a0,0x12
    3c10:	ae450513          	add	a0,a0,-1308 # 156f0 <bcache>
    3c14:	ffffd097          	auipc	ra,0xffffd
    3c18:	190080e7          	jalr	400(ra) # da4 <acquire>
  for(b = bcache.head.next; b != &bcache.head; b = b->next){
    3c1c:	0001a497          	auipc	s1,0x1a
    3c20:	9a04a483          	lw	s1,-1632(s1) # 1d5bc <bcache+0x7ecc>
    3c24:	0001a797          	auipc	a5,0x1a
    3c28:	96878793          	add	a5,a5,-1688 # 1d58c <bcache+0x7e9c>
    3c2c:	04f48863          	beq	s1,a5,3c7c <bread+0x94>
    3c30:	00078713          	mv	a4,a5
    3c34:	00c0006f          	j	3c40 <bread+0x58>
    3c38:	0304a483          	lw	s1,48(s1)
    3c3c:	04e48063          	beq	s1,a4,3c7c <bread+0x94>
    if(b->dev == dev && b->blockno == blockno){
    3c40:	0084a783          	lw	a5,8(s1)
    3c44:	fef91ae3          	bne	s2,a5,3c38 <bread+0x50>
    3c48:	00c4a783          	lw	a5,12(s1)
    3c4c:	fef996e3          	bne	s3,a5,3c38 <bread+0x50>
      b->refcnt++;
    3c50:	0284a783          	lw	a5,40(s1)
    3c54:	00178793          	add	a5,a5,1
    3c58:	02f4a423          	sw	a5,40(s1)
      release(&bcache.lock);
    3c5c:	00012517          	auipc	a0,0x12
    3c60:	a9450513          	add	a0,a0,-1388 # 156f0 <bcache>
    3c64:	ffffd097          	auipc	ra,0xffffd
    3c68:	1b4080e7          	jalr	436(ra) # e18 <release>
      acquiresleep(&b->lock);
    3c6c:	01048513          	add	a0,s1,16
    3c70:	00002097          	auipc	ra,0x2
    3c74:	b2c080e7          	jalr	-1236(ra) # 579c <acquiresleep>
      return b;
    3c78:	06c0006f          	j	3ce4 <bread+0xfc>
  for(b = bcache.head.prev; b != &bcache.head; b = b->prev){
    3c7c:	0001a497          	auipc	s1,0x1a
    3c80:	93c4a483          	lw	s1,-1732(s1) # 1d5b8 <bcache+0x7ec8>
    3c84:	0001a797          	auipc	a5,0x1a
    3c88:	90878793          	add	a5,a5,-1784 # 1d58c <bcache+0x7e9c>
    3c8c:	00f48c63          	beq	s1,a5,3ca4 <bread+0xbc>
    3c90:	00078713          	mv	a4,a5
    if(b->refcnt == 0) {
    3c94:	0284a783          	lw	a5,40(s1)
    3c98:	00078e63          	beqz	a5,3cb4 <bread+0xcc>
  for(b = bcache.head.prev; b != &bcache.head; b = b->prev){
    3c9c:	02c4a483          	lw	s1,44(s1)
    3ca0:	fee49ae3          	bne	s1,a4,3c94 <bread+0xac>
  panic("bget: no buffers");
    3ca4:	00004517          	auipc	a0,0x4
    3ca8:	7f850513          	add	a0,a0,2040 # 849c <userret+0x3fc>
    3cac:	ffffd097          	auipc	ra,0xffffd
    3cb0:	9e0080e7          	jalr	-1568(ra) # 68c <panic>
      b->dev = dev;
    3cb4:	0124a423          	sw	s2,8(s1)
      b->blockno = blockno;
    3cb8:	0134a623          	sw	s3,12(s1)
      b->valid = 0;
    3cbc:	0004a023          	sw	zero,0(s1)
      b->refcnt = 1;
    3cc0:	00100793          	li	a5,1
    3cc4:	02f4a423          	sw	a5,40(s1)
      release(&bcache.lock);
    3cc8:	00012517          	auipc	a0,0x12
    3ccc:	a2850513          	add	a0,a0,-1496 # 156f0 <bcache>
    3cd0:	ffffd097          	auipc	ra,0xffffd
    3cd4:	148080e7          	jalr	328(ra) # e18 <release>
      acquiresleep(&b->lock);
    3cd8:	01048513          	add	a0,s1,16
    3cdc:	00002097          	auipc	ra,0x2
    3ce0:	ac0080e7          	jalr	-1344(ra) # 579c <acquiresleep>
  struct buf *b;

  b = bget(dev, blockno);
  if(!b->valid) {
    3ce4:	0004a783          	lw	a5,0(s1)
    3ce8:	02078263          	beqz	a5,3d0c <bread+0x124>
    virtio_disk_rw(b, 0);
    b->valid = 1;
  }
  return b;
}
    3cec:	00048513          	mv	a0,s1
    3cf0:	01c12083          	lw	ra,28(sp)
    3cf4:	01812403          	lw	s0,24(sp)
    3cf8:	01412483          	lw	s1,20(sp)
    3cfc:	01012903          	lw	s2,16(sp)
    3d00:	00c12983          	lw	s3,12(sp)
    3d04:	02010113          	add	sp,sp,32
    3d08:	00008067          	ret
    virtio_disk_rw(b, 0);
    3d0c:	00000593          	li	a1,0
    3d10:	00048513          	mv	a0,s1
    3d14:	00004097          	auipc	ra,0x4
    3d18:	cc0080e7          	jalr	-832(ra) # 79d4 <virtio_disk_rw>
    b->valid = 1;
    3d1c:	00100793          	li	a5,1
    3d20:	00f4a023          	sw	a5,0(s1)
  return b;
    3d24:	fc9ff06f          	j	3cec <bread+0x104>

00003d28 <bwrite>:

// Write b's contents to disk.  Must be locked.
void
bwrite(struct buf *b)
{
    3d28:	ff010113          	add	sp,sp,-16
    3d2c:	00112623          	sw	ra,12(sp)
    3d30:	00812423          	sw	s0,8(sp)
    3d34:	00912223          	sw	s1,4(sp)
    3d38:	01010413          	add	s0,sp,16
    3d3c:	00050493          	mv	s1,a0
  if(!holdingsleep(&b->lock))
    3d40:	01050513          	add	a0,a0,16
    3d44:	00002097          	auipc	ra,0x2
    3d48:	b44080e7          	jalr	-1212(ra) # 5888 <holdingsleep>
    3d4c:	02050463          	beqz	a0,3d74 <bwrite+0x4c>
    panic("bwrite");
  virtio_disk_rw(b, 1);
    3d50:	00100593          	li	a1,1
    3d54:	00048513          	mv	a0,s1
    3d58:	00004097          	auipc	ra,0x4
    3d5c:	c7c080e7          	jalr	-900(ra) # 79d4 <virtio_disk_rw>
}
    3d60:	00c12083          	lw	ra,12(sp)
    3d64:	00812403          	lw	s0,8(sp)
    3d68:	00412483          	lw	s1,4(sp)
    3d6c:	01010113          	add	sp,sp,16
    3d70:	00008067          	ret
    panic("bwrite");
    3d74:	00004517          	auipc	a0,0x4
    3d78:	73c50513          	add	a0,a0,1852 # 84b0 <userret+0x410>
    3d7c:	ffffd097          	auipc	ra,0xffffd
    3d80:	910080e7          	jalr	-1776(ra) # 68c <panic>

00003d84 <brelse>:

// Release a locked buffer.
// Move to the head of the MRU list.
void
brelse(struct buf *b)
{
    3d84:	ff010113          	add	sp,sp,-16
    3d88:	00112623          	sw	ra,12(sp)
    3d8c:	00812423          	sw	s0,8(sp)
    3d90:	00912223          	sw	s1,4(sp)
    3d94:	01212023          	sw	s2,0(sp)
    3d98:	01010413          	add	s0,sp,16
    3d9c:	00050493          	mv	s1,a0
  if(!holdingsleep(&b->lock))
    3da0:	01050913          	add	s2,a0,16
    3da4:	00090513          	mv	a0,s2
    3da8:	00002097          	auipc	ra,0x2
    3dac:	ae0080e7          	jalr	-1312(ra) # 5888 <holdingsleep>
    3db0:	08050a63          	beqz	a0,3e44 <brelse+0xc0>
    panic("brelse");

  releasesleep(&b->lock);
    3db4:	00090513          	mv	a0,s2
    3db8:	00002097          	auipc	ra,0x2
    3dbc:	a6c080e7          	jalr	-1428(ra) # 5824 <releasesleep>

  acquire(&bcache.lock);
    3dc0:	00012517          	auipc	a0,0x12
    3dc4:	93050513          	add	a0,a0,-1744 # 156f0 <bcache>
    3dc8:	ffffd097          	auipc	ra,0xffffd
    3dcc:	fdc080e7          	jalr	-36(ra) # da4 <acquire>
  b->refcnt--;
    3dd0:	0284a783          	lw	a5,40(s1)
    3dd4:	fff78793          	add	a5,a5,-1
    3dd8:	02f4a423          	sw	a5,40(s1)
  if (b->refcnt == 0) {
    3ddc:	04079063          	bnez	a5,3e1c <brelse+0x98>
    // no one is waiting for it.
    b->next->prev = b->prev;
    3de0:	0304a703          	lw	a4,48(s1)
    3de4:	02c4a783          	lw	a5,44(s1)
    3de8:	02f72623          	sw	a5,44(a4)
    b->prev->next = b->next;
    3dec:	0304a703          	lw	a4,48(s1)
    3df0:	02e7a823          	sw	a4,48(a5)
    b->next = bcache.head.next;
    3df4:	0001a797          	auipc	a5,0x1a
    3df8:	8fc78793          	add	a5,a5,-1796 # 1d6f0 <bcache+0x8000>
    3dfc:	ecc7a703          	lw	a4,-308(a5)
    3e00:	02e4a823          	sw	a4,48(s1)
    b->prev = &bcache.head;
    3e04:	00019717          	auipc	a4,0x19
    3e08:	78870713          	add	a4,a4,1928 # 1d58c <bcache+0x7e9c>
    3e0c:	02e4a623          	sw	a4,44(s1)
    bcache.head.next->prev = b;
    3e10:	ecc7a703          	lw	a4,-308(a5)
    3e14:	02972623          	sw	s1,44(a4)
    bcache.head.next = b;
    3e18:	ec97a623          	sw	s1,-308(a5)
  }
  
  release(&bcache.lock);
    3e1c:	00012517          	auipc	a0,0x12
    3e20:	8d450513          	add	a0,a0,-1836 # 156f0 <bcache>
    3e24:	ffffd097          	auipc	ra,0xffffd
    3e28:	ff4080e7          	jalr	-12(ra) # e18 <release>
}
    3e2c:	00c12083          	lw	ra,12(sp)
    3e30:	00812403          	lw	s0,8(sp)
    3e34:	00412483          	lw	s1,4(sp)
    3e38:	00012903          	lw	s2,0(sp)
    3e3c:	01010113          	add	sp,sp,16
    3e40:	00008067          	ret
    panic("brelse");
    3e44:	00004517          	auipc	a0,0x4
    3e48:	67450513          	add	a0,a0,1652 # 84b8 <userret+0x418>
    3e4c:	ffffd097          	auipc	ra,0xffffd
    3e50:	840080e7          	jalr	-1984(ra) # 68c <panic>

00003e54 <bpin>:

void
bpin(struct buf *b) {
    3e54:	ff010113          	add	sp,sp,-16
    3e58:	00112623          	sw	ra,12(sp)
    3e5c:	00812423          	sw	s0,8(sp)
    3e60:	00912223          	sw	s1,4(sp)
    3e64:	01010413          	add	s0,sp,16
    3e68:	00050493          	mv	s1,a0
  acquire(&bcache.lock);
    3e6c:	00012517          	auipc	a0,0x12
    3e70:	88450513          	add	a0,a0,-1916 # 156f0 <bcache>
    3e74:	ffffd097          	auipc	ra,0xffffd
    3e78:	f30080e7          	jalr	-208(ra) # da4 <acquire>
  b->refcnt++;
    3e7c:	0284a783          	lw	a5,40(s1)
    3e80:	00178793          	add	a5,a5,1
    3e84:	02f4a423          	sw	a5,40(s1)
  release(&bcache.lock);
    3e88:	00012517          	auipc	a0,0x12
    3e8c:	86850513          	add	a0,a0,-1944 # 156f0 <bcache>
    3e90:	ffffd097          	auipc	ra,0xffffd
    3e94:	f88080e7          	jalr	-120(ra) # e18 <release>
}
    3e98:	00c12083          	lw	ra,12(sp)
    3e9c:	00812403          	lw	s0,8(sp)
    3ea0:	00412483          	lw	s1,4(sp)
    3ea4:	01010113          	add	sp,sp,16
    3ea8:	00008067          	ret

00003eac <bunpin>:

void
bunpin(struct buf *b) {
    3eac:	ff010113          	add	sp,sp,-16
    3eb0:	00112623          	sw	ra,12(sp)
    3eb4:	00812423          	sw	s0,8(sp)
    3eb8:	00912223          	sw	s1,4(sp)
    3ebc:	01010413          	add	s0,sp,16
    3ec0:	00050493          	mv	s1,a0
  acquire(&bcache.lock);
    3ec4:	00012517          	auipc	a0,0x12
    3ec8:	82c50513          	add	a0,a0,-2004 # 156f0 <bcache>
    3ecc:	ffffd097          	auipc	ra,0xffffd
    3ed0:	ed8080e7          	jalr	-296(ra) # da4 <acquire>
  b->refcnt--;
    3ed4:	0284a783          	lw	a5,40(s1)
    3ed8:	fff78793          	add	a5,a5,-1
    3edc:	02f4a423          	sw	a5,40(s1)
  release(&bcache.lock);
    3ee0:	00012517          	auipc	a0,0x12
    3ee4:	81050513          	add	a0,a0,-2032 # 156f0 <bcache>
    3ee8:	ffffd097          	auipc	ra,0xffffd
    3eec:	f30080e7          	jalr	-208(ra) # e18 <release>
}
    3ef0:	00c12083          	lw	ra,12(sp)
    3ef4:	00812403          	lw	s0,8(sp)
    3ef8:	00412483          	lw	s1,4(sp)
    3efc:	01010113          	add	sp,sp,16
    3f00:	00008067          	ret

00003f04 <bfree>:
}

// Free a disk block.
static void
bfree(int dev, uint b)
{
    3f04:	ff010113          	add	sp,sp,-16
    3f08:	00112623          	sw	ra,12(sp)
    3f0c:	00812423          	sw	s0,8(sp)
    3f10:	00912223          	sw	s1,4(sp)
    3f14:	01212023          	sw	s2,0(sp)
    3f18:	01010413          	add	s0,sp,16
    3f1c:	00058493          	mv	s1,a1
  struct buf *bp;
  int bi, m;

  bp = bread(dev, BBLOCK(b, sb));
    3f20:	00d5d593          	srl	a1,a1,0xd
    3f24:	0001a797          	auipc	a5,0x1a
    3f28:	abc7a783          	lw	a5,-1348(a5) # 1d9e0 <sb+0x1c>
    3f2c:	00f585b3          	add	a1,a1,a5
    3f30:	00000097          	auipc	ra,0x0
    3f34:	cb8080e7          	jalr	-840(ra) # 3be8 <bread>
  bi = b % BPB;
  m = 1 << (bi % 8);
    3f38:	0074f713          	and	a4,s1,7
    3f3c:	00100793          	li	a5,1
    3f40:	00e797b3          	sll	a5,a5,a4
  bi = b % BPB;
    3f44:	01349493          	sll	s1,s1,0x13
  if((bp->data[bi/8] & m) == 0)
    3f48:	0164d493          	srl	s1,s1,0x16
    3f4c:	00950733          	add	a4,a0,s1
    3f50:	03874703          	lbu	a4,56(a4)
    3f54:	00f776b3          	and	a3,a4,a5
    3f58:	04068263          	beqz	a3,3f9c <bfree+0x98>
    3f5c:	00050913          	mv	s2,a0
    panic("freeing free block");
  bp->data[bi/8] &= ~m;
    3f60:	009504b3          	add	s1,a0,s1
    3f64:	fff7c793          	not	a5,a5
    3f68:	00f77733          	and	a4,a4,a5
    3f6c:	02e48c23          	sb	a4,56(s1)
  log_write(bp);
    3f70:	00001097          	auipc	ra,0x1
    3f74:	6a0080e7          	jalr	1696(ra) # 5610 <log_write>
  brelse(bp);
    3f78:	00090513          	mv	a0,s2
    3f7c:	00000097          	auipc	ra,0x0
    3f80:	e08080e7          	jalr	-504(ra) # 3d84 <brelse>
}
    3f84:	00c12083          	lw	ra,12(sp)
    3f88:	00812403          	lw	s0,8(sp)
    3f8c:	00412483          	lw	s1,4(sp)
    3f90:	00012903          	lw	s2,0(sp)
    3f94:	01010113          	add	sp,sp,16
    3f98:	00008067          	ret
    panic("freeing free block");
    3f9c:	00004517          	auipc	a0,0x4
    3fa0:	52450513          	add	a0,a0,1316 # 84c0 <userret+0x420>
    3fa4:	ffffc097          	auipc	ra,0xffffc
    3fa8:	6e8080e7          	jalr	1768(ra) # 68c <panic>

00003fac <balloc>:
{
    3fac:	fd010113          	add	sp,sp,-48
    3fb0:	02112623          	sw	ra,44(sp)
    3fb4:	02812423          	sw	s0,40(sp)
    3fb8:	02912223          	sw	s1,36(sp)
    3fbc:	03212023          	sw	s2,32(sp)
    3fc0:	01312e23          	sw	s3,28(sp)
    3fc4:	01412c23          	sw	s4,24(sp)
    3fc8:	01512a23          	sw	s5,20(sp)
    3fcc:	01612823          	sw	s6,16(sp)
    3fd0:	01712623          	sw	s7,12(sp)
    3fd4:	01812423          	sw	s8,8(sp)
    3fd8:	03010413          	add	s0,sp,48
  for(b = 0; b < sb.size; b += BPB){
    3fdc:	0001a797          	auipc	a5,0x1a
    3fe0:	9ec7a783          	lw	a5,-1556(a5) # 1d9c8 <sb+0x4>
    3fe4:	0a078663          	beqz	a5,4090 <balloc+0xe4>
    3fe8:	00050b93          	mv	s7,a0
    3fec:	00000a93          	li	s5,0
    bp = bread(dev, BBLOCK(b, sb));
    3ff0:	000029b7          	lui	s3,0x2
    3ff4:	fff98c13          	add	s8,s3,-1 # 1fff <procinit+0x87>
    3ff8:	0001ab17          	auipc	s6,0x1a
    3ffc:	9ccb0b13          	add	s6,s6,-1588 # 1d9c4 <sb>
      m = 1 << (bi % 8);
    4000:	00100a13          	li	s4,1
    4004:	01c0006f          	j	4020 <balloc+0x74>
    brelse(bp);
    4008:	00090513          	mv	a0,s2
    400c:	00000097          	auipc	ra,0x0
    4010:	d78080e7          	jalr	-648(ra) # 3d84 <brelse>
  for(b = 0; b < sb.size; b += BPB){
    4014:	013a8ab3          	add	s5,s5,s3
    4018:	004b2783          	lw	a5,4(s6)
    401c:	06fafa63          	bgeu	s5,a5,4090 <balloc+0xe4>
    bp = bread(dev, BBLOCK(b, sb));
    4020:	41fad793          	sra	a5,s5,0x1f
    4024:	0187f7b3          	and	a5,a5,s8
    4028:	015787b3          	add	a5,a5,s5
    402c:	40d7d793          	sra	a5,a5,0xd
    4030:	01cb2583          	lw	a1,28(s6)
    4034:	00b785b3          	add	a1,a5,a1
    4038:	000b8513          	mv	a0,s7
    403c:	00000097          	auipc	ra,0x0
    4040:	bac080e7          	jalr	-1108(ra) # 3be8 <bread>
    4044:	00050913          	mv	s2,a0
    for(bi = 0; bi < BPB && b + bi < sb.size; bi++){
    4048:	004b2503          	lw	a0,4(s6)
    404c:	000a8493          	mv	s1,s5
    4050:	00000713          	li	a4,0
    4054:	faa4fae3          	bgeu	s1,a0,4008 <balloc+0x5c>
      m = 1 << (bi % 8);
    4058:	00777693          	and	a3,a4,7
    405c:	00da16b3          	sll	a3,s4,a3
      if((bp->data[bi/8] & m) == 0){  // Is block free?
    4060:	41f75793          	sra	a5,a4,0x1f
    4064:	0077f793          	and	a5,a5,7
    4068:	00e787b3          	add	a5,a5,a4
    406c:	4037d793          	sra	a5,a5,0x3
    4070:	00f90633          	add	a2,s2,a5
    4074:	03864603          	lbu	a2,56(a2)
    4078:	00d675b3          	and	a1,a2,a3
    407c:	02058263          	beqz	a1,40a0 <balloc+0xf4>
    for(bi = 0; bi < BPB && b + bi < sb.size; bi++){
    4080:	00170713          	add	a4,a4,1
    4084:	00148493          	add	s1,s1,1
    4088:	fd3716e3          	bne	a4,s3,4054 <balloc+0xa8>
    408c:	f7dff06f          	j	4008 <balloc+0x5c>
  panic("balloc: out of blocks");
    4090:	00004517          	auipc	a0,0x4
    4094:	44450513          	add	a0,a0,1092 # 84d4 <userret+0x434>
    4098:	ffffc097          	auipc	ra,0xffffc
    409c:	5f4080e7          	jalr	1524(ra) # 68c <panic>
        bp->data[bi/8] |= m;  // Mark block in use.
    40a0:	00f907b3          	add	a5,s2,a5
    40a4:	00d66633          	or	a2,a2,a3
    40a8:	02c78c23          	sb	a2,56(a5)
        log_write(bp);
    40ac:	00090513          	mv	a0,s2
    40b0:	00001097          	auipc	ra,0x1
    40b4:	560080e7          	jalr	1376(ra) # 5610 <log_write>
        brelse(bp);
    40b8:	00090513          	mv	a0,s2
    40bc:	00000097          	auipc	ra,0x0
    40c0:	cc8080e7          	jalr	-824(ra) # 3d84 <brelse>
  bp = bread(dev, bno);
    40c4:	00048593          	mv	a1,s1
    40c8:	000b8513          	mv	a0,s7
    40cc:	00000097          	auipc	ra,0x0
    40d0:	b1c080e7          	jalr	-1252(ra) # 3be8 <bread>
    40d4:	00050913          	mv	s2,a0
  memset(bp->data, 0, BSIZE);
    40d8:	40000613          	li	a2,1024
    40dc:	00000593          	li	a1,0
    40e0:	03850513          	add	a0,a0,56
    40e4:	ffffd097          	auipc	ra,0xffffd
    40e8:	d94080e7          	jalr	-620(ra) # e78 <memset>
  log_write(bp);
    40ec:	00090513          	mv	a0,s2
    40f0:	00001097          	auipc	ra,0x1
    40f4:	520080e7          	jalr	1312(ra) # 5610 <log_write>
  brelse(bp);
    40f8:	00090513          	mv	a0,s2
    40fc:	00000097          	auipc	ra,0x0
    4100:	c88080e7          	jalr	-888(ra) # 3d84 <brelse>
}
    4104:	00048513          	mv	a0,s1
    4108:	02c12083          	lw	ra,44(sp)
    410c:	02812403          	lw	s0,40(sp)
    4110:	02412483          	lw	s1,36(sp)
    4114:	02012903          	lw	s2,32(sp)
    4118:	01c12983          	lw	s3,28(sp)
    411c:	01812a03          	lw	s4,24(sp)
    4120:	01412a83          	lw	s5,20(sp)
    4124:	01012b03          	lw	s6,16(sp)
    4128:	00c12b83          	lw	s7,12(sp)
    412c:	00812c03          	lw	s8,8(sp)
    4130:	03010113          	add	sp,sp,48
    4134:	00008067          	ret

00004138 <bmap>:

// Return the disk block address of the nth block in inode ip.
// If there is no such block, bmap allocates one.
static uint
bmap(struct inode *ip, uint bn)
{
    4138:	fe010113          	add	sp,sp,-32
    413c:	00112e23          	sw	ra,28(sp)
    4140:	00812c23          	sw	s0,24(sp)
    4144:	00912a23          	sw	s1,20(sp)
    4148:	01212823          	sw	s2,16(sp)
    414c:	01312623          	sw	s3,12(sp)
    4150:	01412423          	sw	s4,8(sp)
    4154:	02010413          	add	s0,sp,32
    4158:	00050913          	mv	s2,a0
  uint addr, *a;
  struct buf *bp;

  if(bn < NDIRECT){
    415c:	00b00793          	li	a5,11
    4160:	06b7f663          	bgeu	a5,a1,41cc <bmap+0x94>
    if((addr = ip->addrs[bn]) == 0)
      ip->addrs[bn] = addr = balloc(ip->dev);
    return addr;
  }
  bn -= NDIRECT;
    4164:	ff458493          	add	s1,a1,-12

  if(bn < NINDIRECT){
    4168:	0ff00793          	li	a5,255
    416c:	0c97e263          	bltu	a5,s1,4230 <bmap+0xf8>
    // Load indirect block, allocating if necessary.
    if((addr = ip->addrs[NDIRECT]) == 0)
    4170:	06452583          	lw	a1,100(a0)
    4174:	08058063          	beqz	a1,41f4 <bmap+0xbc>
      ip->addrs[NDIRECT] = addr = balloc(ip->dev);
    bp = bread(ip->dev, addr);
    4178:	00092503          	lw	a0,0(s2)
    417c:	00000097          	auipc	ra,0x0
    4180:	a6c080e7          	jalr	-1428(ra) # 3be8 <bread>
    4184:	00050a13          	mv	s4,a0
    a = (uint*)bp->data;
    4188:	03850793          	add	a5,a0,56
    if((addr = a[bn]) == 0){
    418c:	00249593          	sll	a1,s1,0x2
    4190:	00b784b3          	add	s1,a5,a1
    4194:	0004a983          	lw	s3,0(s1)
    4198:	06098a63          	beqz	s3,420c <bmap+0xd4>
      a[bn] = addr = balloc(ip->dev);
      log_write(bp);
    }
    brelse(bp);
    419c:	000a0513          	mv	a0,s4
    41a0:	00000097          	auipc	ra,0x0
    41a4:	be4080e7          	jalr	-1052(ra) # 3d84 <brelse>
    return addr;
  }

  panic("bmap: out of range");
}
    41a8:	00098513          	mv	a0,s3
    41ac:	01c12083          	lw	ra,28(sp)
    41b0:	01812403          	lw	s0,24(sp)
    41b4:	01412483          	lw	s1,20(sp)
    41b8:	01012903          	lw	s2,16(sp)
    41bc:	00c12983          	lw	s3,12(sp)
    41c0:	00812a03          	lw	s4,8(sp)
    41c4:	02010113          	add	sp,sp,32
    41c8:	00008067          	ret
    if((addr = ip->addrs[bn]) == 0)
    41cc:	00259593          	sll	a1,a1,0x2
    41d0:	00b504b3          	add	s1,a0,a1
    41d4:	0344a983          	lw	s3,52(s1)
    41d8:	fc0998e3          	bnez	s3,41a8 <bmap+0x70>
      ip->addrs[bn] = addr = balloc(ip->dev);
    41dc:	00052503          	lw	a0,0(a0)
    41e0:	00000097          	auipc	ra,0x0
    41e4:	dcc080e7          	jalr	-564(ra) # 3fac <balloc>
    41e8:	00050993          	mv	s3,a0
    41ec:	02a4aa23          	sw	a0,52(s1)
    41f0:	fb9ff06f          	j	41a8 <bmap+0x70>
      ip->addrs[NDIRECT] = addr = balloc(ip->dev);
    41f4:	00052503          	lw	a0,0(a0)
    41f8:	00000097          	auipc	ra,0x0
    41fc:	db4080e7          	jalr	-588(ra) # 3fac <balloc>
    4200:	00050593          	mv	a1,a0
    4204:	06a92223          	sw	a0,100(s2)
    4208:	f71ff06f          	j	4178 <bmap+0x40>
      a[bn] = addr = balloc(ip->dev);
    420c:	00092503          	lw	a0,0(s2)
    4210:	00000097          	auipc	ra,0x0
    4214:	d9c080e7          	jalr	-612(ra) # 3fac <balloc>
    4218:	00050993          	mv	s3,a0
    421c:	00a4a023          	sw	a0,0(s1)
      log_write(bp);
    4220:	000a0513          	mv	a0,s4
    4224:	00001097          	auipc	ra,0x1
    4228:	3ec080e7          	jalr	1004(ra) # 5610 <log_write>
    422c:	f71ff06f          	j	419c <bmap+0x64>
  panic("bmap: out of range");
    4230:	00004517          	auipc	a0,0x4
    4234:	2bc50513          	add	a0,a0,700 # 84ec <userret+0x44c>
    4238:	ffffc097          	auipc	ra,0xffffc
    423c:	454080e7          	jalr	1108(ra) # 68c <panic>

00004240 <iget>:
{
    4240:	fe010113          	add	sp,sp,-32
    4244:	00112e23          	sw	ra,28(sp)
    4248:	00812c23          	sw	s0,24(sp)
    424c:	00912a23          	sw	s1,20(sp)
    4250:	01212823          	sw	s2,16(sp)
    4254:	01312623          	sw	s3,12(sp)
    4258:	01412423          	sw	s4,8(sp)
    425c:	02010413          	add	s0,sp,32
    4260:	00050993          	mv	s3,a0
    4264:	00058a13          	mv	s4,a1
  acquire(&icache.lock);
    4268:	00019517          	auipc	a0,0x19
    426c:	77c50513          	add	a0,a0,1916 # 1d9e4 <icache>
    4270:	ffffd097          	auipc	ra,0xffffd
    4274:	b34080e7          	jalr	-1228(ra) # da4 <acquire>
  empty = 0;
    4278:	00000913          	li	s2,0
  for(ip = &icache.inode[0]; ip < &icache.inode[NINODE]; ip++){
    427c:	00019497          	auipc	s1,0x19
    4280:	77448493          	add	s1,s1,1908 # 1d9f0 <icache+0xc>
    4284:	0001b697          	auipc	a3,0x1b
    4288:	bbc68693          	add	a3,a3,-1092 # 1ee40 <log>
    428c:	0100006f          	j	429c <iget+0x5c>
    if(empty == 0 && ip->ref == 0)    // Remember empty slot.
    4290:	04090263          	beqz	s2,42d4 <iget+0x94>
  for(ip = &icache.inode[0]; ip < &icache.inode[NINODE]; ip++){
    4294:	06848493          	add	s1,s1,104
    4298:	04d48463          	beq	s1,a3,42e0 <iget+0xa0>
    if(ip->ref > 0 && ip->dev == dev && ip->inum == inum){
    429c:	0084a783          	lw	a5,8(s1)
    42a0:	fef058e3          	blez	a5,4290 <iget+0x50>
    42a4:	0004a703          	lw	a4,0(s1)
    42a8:	ff3714e3          	bne	a4,s3,4290 <iget+0x50>
    42ac:	0044a703          	lw	a4,4(s1)
    42b0:	ff4710e3          	bne	a4,s4,4290 <iget+0x50>
      ip->ref++;
    42b4:	00178793          	add	a5,a5,1
    42b8:	00f4a423          	sw	a5,8(s1)
      release(&icache.lock);
    42bc:	00019517          	auipc	a0,0x19
    42c0:	72850513          	add	a0,a0,1832 # 1d9e4 <icache>
    42c4:	ffffd097          	auipc	ra,0xffffd
    42c8:	b54080e7          	jalr	-1196(ra) # e18 <release>
      return ip;
    42cc:	00048913          	mv	s2,s1
    42d0:	0380006f          	j	4308 <iget+0xc8>
    if(empty == 0 && ip->ref == 0)    // Remember empty slot.
    42d4:	fc0790e3          	bnez	a5,4294 <iget+0x54>
    42d8:	00048913          	mv	s2,s1
    42dc:	fb9ff06f          	j	4294 <iget+0x54>
  if(empty == 0)
    42e0:	04090663          	beqz	s2,432c <iget+0xec>
  ip->dev = dev;
    42e4:	01392023          	sw	s3,0(s2)
  ip->inum = inum;
    42e8:	01492223          	sw	s4,4(s2)
  ip->ref = 1;
    42ec:	00100793          	li	a5,1
    42f0:	00f92423          	sw	a5,8(s2)
  ip->valid = 0;
    42f4:	02092223          	sw	zero,36(s2)
  release(&icache.lock);
    42f8:	00019517          	auipc	a0,0x19
    42fc:	6ec50513          	add	a0,a0,1772 # 1d9e4 <icache>
    4300:	ffffd097          	auipc	ra,0xffffd
    4304:	b18080e7          	jalr	-1256(ra) # e18 <release>
}
    4308:	00090513          	mv	a0,s2
    430c:	01c12083          	lw	ra,28(sp)
    4310:	01812403          	lw	s0,24(sp)
    4314:	01412483          	lw	s1,20(sp)
    4318:	01012903          	lw	s2,16(sp)
    431c:	00c12983          	lw	s3,12(sp)
    4320:	00812a03          	lw	s4,8(sp)
    4324:	02010113          	add	sp,sp,32
    4328:	00008067          	ret
    panic("iget: no inodes");
    432c:	00004517          	auipc	a0,0x4
    4330:	1d450513          	add	a0,a0,468 # 8500 <userret+0x460>
    4334:	ffffc097          	auipc	ra,0xffffc
    4338:	358080e7          	jalr	856(ra) # 68c <panic>

0000433c <fsinit>:
fsinit(int dev) {
    433c:	fe010113          	add	sp,sp,-32
    4340:	00112e23          	sw	ra,28(sp)
    4344:	00812c23          	sw	s0,24(sp)
    4348:	00912a23          	sw	s1,20(sp)
    434c:	01212823          	sw	s2,16(sp)
    4350:	01312623          	sw	s3,12(sp)
    4354:	02010413          	add	s0,sp,32
    4358:	00050913          	mv	s2,a0
  bp = bread(dev, 1);
    435c:	00100593          	li	a1,1
    4360:	00000097          	auipc	ra,0x0
    4364:	888080e7          	jalr	-1912(ra) # 3be8 <bread>
    4368:	00050493          	mv	s1,a0
  memmove(sb, bp->data, sizeof(*sb));
    436c:	00019997          	auipc	s3,0x19
    4370:	65898993          	add	s3,s3,1624 # 1d9c4 <sb>
    4374:	02000613          	li	a2,32
    4378:	03850593          	add	a1,a0,56
    437c:	00098513          	mv	a0,s3
    4380:	ffffd097          	auipc	ra,0xffffd
    4384:	b74080e7          	jalr	-1164(ra) # ef4 <memmove>
  brelse(bp);
    4388:	00048513          	mv	a0,s1
    438c:	00000097          	auipc	ra,0x0
    4390:	9f8080e7          	jalr	-1544(ra) # 3d84 <brelse>
  if(sb.magic != FSMAGIC)
    4394:	0009a703          	lw	a4,0(s3)
    4398:	102037b7          	lui	a5,0x10203
    439c:	04078793          	add	a5,a5,64 # 10203040 <end+0x101e202c>
    43a0:	02f71a63          	bne	a4,a5,43d4 <fsinit+0x98>
  initlog(dev, &sb);
    43a4:	00019597          	auipc	a1,0x19
    43a8:	62058593          	add	a1,a1,1568 # 1d9c4 <sb>
    43ac:	00090513          	mv	a0,s2
    43b0:	00001097          	auipc	ra,0x1
    43b4:	f38080e7          	jalr	-200(ra) # 52e8 <initlog>
}
    43b8:	01c12083          	lw	ra,28(sp)
    43bc:	01812403          	lw	s0,24(sp)
    43c0:	01412483          	lw	s1,20(sp)
    43c4:	01012903          	lw	s2,16(sp)
    43c8:	00c12983          	lw	s3,12(sp)
    43cc:	02010113          	add	sp,sp,32
    43d0:	00008067          	ret
    panic("invalid file system");
    43d4:	00004517          	auipc	a0,0x4
    43d8:	13c50513          	add	a0,a0,316 # 8510 <userret+0x470>
    43dc:	ffffc097          	auipc	ra,0xffffc
    43e0:	2b0080e7          	jalr	688(ra) # 68c <panic>

000043e4 <iinit>:
{
    43e4:	fe010113          	add	sp,sp,-32
    43e8:	00112e23          	sw	ra,28(sp)
    43ec:	00812c23          	sw	s0,24(sp)
    43f0:	00912a23          	sw	s1,20(sp)
    43f4:	01212823          	sw	s2,16(sp)
    43f8:	01312623          	sw	s3,12(sp)
    43fc:	02010413          	add	s0,sp,32
  initlock(&icache.lock, "icache");
    4400:	00004597          	auipc	a1,0x4
    4404:	12458593          	add	a1,a1,292 # 8524 <userret+0x484>
    4408:	00019517          	auipc	a0,0x19
    440c:	5dc50513          	add	a0,a0,1500 # 1d9e4 <icache>
    4410:	ffffd097          	auipc	ra,0xffffd
    4414:	810080e7          	jalr	-2032(ra) # c20 <initlock>
  for(i = 0; i < NINODE; i++) {
    4418:	00019497          	auipc	s1,0x19
    441c:	5e448493          	add	s1,s1,1508 # 1d9fc <icache+0x18>
    4420:	0001b997          	auipc	s3,0x1b
    4424:	a2c98993          	add	s3,s3,-1492 # 1ee4c <log+0xc>
    initsleeplock(&icache.inode[i].lock, "inode");
    4428:	00004917          	auipc	s2,0x4
    442c:	10490913          	add	s2,s2,260 # 852c <userret+0x48c>
    4430:	00090593          	mv	a1,s2
    4434:	00048513          	mv	a0,s1
    4438:	00001097          	auipc	ra,0x1
    443c:	30c080e7          	jalr	780(ra) # 5744 <initsleeplock>
  for(i = 0; i < NINODE; i++) {
    4440:	06848493          	add	s1,s1,104
    4444:	ff3496e3          	bne	s1,s3,4430 <iinit+0x4c>
}
    4448:	01c12083          	lw	ra,28(sp)
    444c:	01812403          	lw	s0,24(sp)
    4450:	01412483          	lw	s1,20(sp)
    4454:	01012903          	lw	s2,16(sp)
    4458:	00c12983          	lw	s3,12(sp)
    445c:	02010113          	add	sp,sp,32
    4460:	00008067          	ret

00004464 <ialloc>:
{
    4464:	fe010113          	add	sp,sp,-32
    4468:	00112e23          	sw	ra,28(sp)
    446c:	00812c23          	sw	s0,24(sp)
    4470:	00912a23          	sw	s1,20(sp)
    4474:	01212823          	sw	s2,16(sp)
    4478:	01312623          	sw	s3,12(sp)
    447c:	01412423          	sw	s4,8(sp)
    4480:	01512223          	sw	s5,4(sp)
    4484:	01612023          	sw	s6,0(sp)
    4488:	02010413          	add	s0,sp,32
  for(inum = 1; inum < sb.ninodes; inum++){
    448c:	00019717          	auipc	a4,0x19
    4490:	54472703          	lw	a4,1348(a4) # 1d9d0 <sb+0xc>
    4494:	00100793          	li	a5,1
    4498:	06e7f063          	bgeu	a5,a4,44f8 <ialloc+0x94>
    449c:	00050a93          	mv	s5,a0
    44a0:	00058b13          	mv	s6,a1
    44a4:	00100913          	li	s2,1
    bp = bread(dev, IBLOCK(inum, sb));
    44a8:	00019a17          	auipc	s4,0x19
    44ac:	51ca0a13          	add	s4,s4,1308 # 1d9c4 <sb>
    44b0:	00495593          	srl	a1,s2,0x4
    44b4:	018a2783          	lw	a5,24(s4)
    44b8:	00f585b3          	add	a1,a1,a5
    44bc:	000a8513          	mv	a0,s5
    44c0:	fffff097          	auipc	ra,0xfffff
    44c4:	728080e7          	jalr	1832(ra) # 3be8 <bread>
    44c8:	00050493          	mv	s1,a0
    dip = (struct dinode*)bp->data + inum%IPB;
    44cc:	03850993          	add	s3,a0,56
    44d0:	00f97793          	and	a5,s2,15
    44d4:	00679793          	sll	a5,a5,0x6
    44d8:	00f989b3          	add	s3,s3,a5
    if(dip->type == 0){  // a free inode
    44dc:	00099783          	lh	a5,0(s3)
    44e0:	02078463          	beqz	a5,4508 <ialloc+0xa4>
    brelse(bp);
    44e4:	00000097          	auipc	ra,0x0
    44e8:	8a0080e7          	jalr	-1888(ra) # 3d84 <brelse>
  for(inum = 1; inum < sb.ninodes; inum++){
    44ec:	00190913          	add	s2,s2,1
    44f0:	00ca2783          	lw	a5,12(s4)
    44f4:	faf96ee3          	bltu	s2,a5,44b0 <ialloc+0x4c>
  panic("ialloc: no inodes");
    44f8:	00004517          	auipc	a0,0x4
    44fc:	03c50513          	add	a0,a0,60 # 8534 <userret+0x494>
    4500:	ffffc097          	auipc	ra,0xffffc
    4504:	18c080e7          	jalr	396(ra) # 68c <panic>
      memset(dip, 0, sizeof(*dip));
    4508:	04000613          	li	a2,64
    450c:	00000593          	li	a1,0
    4510:	00098513          	mv	a0,s3
    4514:	ffffd097          	auipc	ra,0xffffd
    4518:	964080e7          	jalr	-1692(ra) # e78 <memset>
      dip->type = type;
    451c:	01699023          	sh	s6,0(s3)
      log_write(bp);   // mark it allocated on the disk
    4520:	00048513          	mv	a0,s1
    4524:	00001097          	auipc	ra,0x1
    4528:	0ec080e7          	jalr	236(ra) # 5610 <log_write>
      brelse(bp);
    452c:	00048513          	mv	a0,s1
    4530:	00000097          	auipc	ra,0x0
    4534:	854080e7          	jalr	-1964(ra) # 3d84 <brelse>
      return iget(dev, inum);
    4538:	00090593          	mv	a1,s2
    453c:	000a8513          	mv	a0,s5
    4540:	00000097          	auipc	ra,0x0
    4544:	d00080e7          	jalr	-768(ra) # 4240 <iget>
}
    4548:	01c12083          	lw	ra,28(sp)
    454c:	01812403          	lw	s0,24(sp)
    4550:	01412483          	lw	s1,20(sp)
    4554:	01012903          	lw	s2,16(sp)
    4558:	00c12983          	lw	s3,12(sp)
    455c:	00812a03          	lw	s4,8(sp)
    4560:	00412a83          	lw	s5,4(sp)
    4564:	00012b03          	lw	s6,0(sp)
    4568:	02010113          	add	sp,sp,32
    456c:	00008067          	ret

00004570 <iupdate>:
{
    4570:	ff010113          	add	sp,sp,-16
    4574:	00112623          	sw	ra,12(sp)
    4578:	00812423          	sw	s0,8(sp)
    457c:	00912223          	sw	s1,4(sp)
    4580:	01212023          	sw	s2,0(sp)
    4584:	01010413          	add	s0,sp,16
    4588:	00050493          	mv	s1,a0
  bp = bread(ip->dev, IBLOCK(ip->inum, sb));
    458c:	00452783          	lw	a5,4(a0)
    4590:	0047d793          	srl	a5,a5,0x4
    4594:	00019597          	auipc	a1,0x19
    4598:	4485a583          	lw	a1,1096(a1) # 1d9dc <sb+0x18>
    459c:	00b785b3          	add	a1,a5,a1
    45a0:	00052503          	lw	a0,0(a0)
    45a4:	fffff097          	auipc	ra,0xfffff
    45a8:	644080e7          	jalr	1604(ra) # 3be8 <bread>
    45ac:	00050913          	mv	s2,a0
  dip = (struct dinode*)bp->data + ip->inum%IPB;
    45b0:	03850793          	add	a5,a0,56
    45b4:	0044a703          	lw	a4,4(s1)
    45b8:	00f77713          	and	a4,a4,15
    45bc:	00671713          	sll	a4,a4,0x6
    45c0:	00e787b3          	add	a5,a5,a4
  dip->type = ip->type;
    45c4:	02849703          	lh	a4,40(s1)
    45c8:	00e79023          	sh	a4,0(a5)
  dip->major = ip->major;
    45cc:	02a49703          	lh	a4,42(s1)
    45d0:	00e79123          	sh	a4,2(a5)
  dip->minor = ip->minor;
    45d4:	02c49703          	lh	a4,44(s1)
    45d8:	00e79223          	sh	a4,4(a5)
  dip->nlink = ip->nlink;
    45dc:	02e49703          	lh	a4,46(s1)
    45e0:	00e79323          	sh	a4,6(a5)
  dip->size = ip->size;
    45e4:	0304a703          	lw	a4,48(s1)
    45e8:	00e7a423          	sw	a4,8(a5)
  memmove(dip->addrs, ip->addrs, sizeof(ip->addrs));
    45ec:	03400613          	li	a2,52
    45f0:	03448593          	add	a1,s1,52
    45f4:	00c78513          	add	a0,a5,12
    45f8:	ffffd097          	auipc	ra,0xffffd
    45fc:	8fc080e7          	jalr	-1796(ra) # ef4 <memmove>
  log_write(bp);
    4600:	00090513          	mv	a0,s2
    4604:	00001097          	auipc	ra,0x1
    4608:	00c080e7          	jalr	12(ra) # 5610 <log_write>
  brelse(bp);
    460c:	00090513          	mv	a0,s2
    4610:	fffff097          	auipc	ra,0xfffff
    4614:	774080e7          	jalr	1908(ra) # 3d84 <brelse>
}
    4618:	00c12083          	lw	ra,12(sp)
    461c:	00812403          	lw	s0,8(sp)
    4620:	00412483          	lw	s1,4(sp)
    4624:	00012903          	lw	s2,0(sp)
    4628:	01010113          	add	sp,sp,16
    462c:	00008067          	ret

00004630 <idup>:
{
    4630:	ff010113          	add	sp,sp,-16
    4634:	00112623          	sw	ra,12(sp)
    4638:	00812423          	sw	s0,8(sp)
    463c:	00912223          	sw	s1,4(sp)
    4640:	01010413          	add	s0,sp,16
    4644:	00050493          	mv	s1,a0
  acquire(&icache.lock);
    4648:	00019517          	auipc	a0,0x19
    464c:	39c50513          	add	a0,a0,924 # 1d9e4 <icache>
    4650:	ffffc097          	auipc	ra,0xffffc
    4654:	754080e7          	jalr	1876(ra) # da4 <acquire>
  ip->ref++;
    4658:	0084a783          	lw	a5,8(s1)
    465c:	00178793          	add	a5,a5,1
    4660:	00f4a423          	sw	a5,8(s1)
  release(&icache.lock);
    4664:	00019517          	auipc	a0,0x19
    4668:	38050513          	add	a0,a0,896 # 1d9e4 <icache>
    466c:	ffffc097          	auipc	ra,0xffffc
    4670:	7ac080e7          	jalr	1964(ra) # e18 <release>
}
    4674:	00048513          	mv	a0,s1
    4678:	00c12083          	lw	ra,12(sp)
    467c:	00812403          	lw	s0,8(sp)
