
./output/temp.elf:     file format elf32-littleriscv


Disassembly of section .text:

00000000 <_entry>:
       0:	00000093          	li	ra,0
       4:	00010137          	lui	sp,0x10
       8:	00000193          	li	gp,0
       c:	00000213          	li	tp,0
      10:	00000293          	li	t0,0
      14:	00000313          	li	t1,0
      18:	00000393          	li	t2,0
      1c:	00000413          	li	s0,0
      20:	00000493          	li	s1,0
      24:	00000513          	li	a0,0
      28:	00000593          	li	a1,0
      2c:	00000613          	li	a2,0
      30:	00000693          	li	a3,0
      34:	00000713          	li	a4,0
      38:	00000793          	li	a5,0
      3c:	00000813          	li	a6,0
      40:	00000893          	li	a7,0
      44:	00000913          	li	s2,0
      48:	00000993          	li	s3,0
      4c:	00000a13          	li	s4,0
      50:	00000a93          	li	s5,0
      54:	00000b13          	li	s6,0
      58:	00000b93          	li	s7,0
      5c:	00000c13          	li	s8,0
      60:	00000c93          	li	s9,0
      64:	00000d13          	li	s10,0
      68:	00000d93          	li	s11,0
      6c:	00000e13          	li	t3,0
      70:	00000e93          	li	t4,0
      74:	00000f13          	li	t5,0
      78:	00000f93          	li	t6,0
      7c:	7850306f          	j	4000 <main>
	...

00004000 <main>:
    4000:	81010113          	add	sp,sp,-2032 # f810 <start_time_val+0x6184>
    4004:	00009537          	lui	a0,0x9
    4008:	7e112623          	sw	ra,2028(sp)
    400c:	7e812423          	sw	s0,2024(sp)
    4010:	7e912223          	sw	s1,2020(sp)
    4014:	7f212023          	sw	s2,2016(sp)
    4018:	7d312e23          	sw	s3,2012(sp)
    401c:	7d412c23          	sw	s4,2008(sp)
    4020:	7d512a23          	sw	s5,2004(sp)
    4024:	7d612823          	sw	s6,2000(sp)
    4028:	7d712623          	sw	s7,1996(sp)
    402c:	7d812423          	sw	s8,1992(sp)
    4030:	7d912223          	sw	s9,1988(sp)
    4034:	7da12023          	sw	s10,1984(sp)
    4038:	7bb12e23          	sw	s11,1980(sp)
    403c:	efc50513          	add	a0,a0,-260 # 8efc <ee_printf+0x140c>
    4040:	f8010113          	add	sp,sp,-128
    4044:	00012a23          	sw	zero,20(sp)
    4048:	2a9030ef          	jal	7af0 <ee_printf>
    404c:	00001737          	lui	a4,0x1
    4050:	fffff437          	lui	s0,0xfffff
    4054:	82070793          	add	a5,a4,-2016 # 820 <_entry+0x820>
    4058:	7e840613          	add	a2,s0,2024 # fffff7e8 <start_time_val+0xffff615c>
    405c:	01010693          	add	a3,sp,16
    4060:	00c787b3          	add	a5,a5,a2
    4064:	00d78633          	add	a2,a5,a3
    4068:	7e440593          	add	a1,s0,2020
    406c:	82070793          	add	a5,a4,-2016
    4070:	00b787b3          	add	a5,a5,a1
    4074:	00d785b3          	add	a1,a5,a3
    4078:	05e10513          	add	a0,sp,94
    407c:	4ec030ef          	jal	7568 <portable_init>
    4080:	00100513          	li	a0,1
    4084:	0d1020ef          	jal	6954 <get_seed_32>
    4088:	00050793          	mv	a5,a0
    408c:	00200513          	li	a0,2
    4090:	00f11e23          	sh	a5,28(sp)
    4094:	0c1020ef          	jal	6954 <get_seed_32>
    4098:	00050793          	mv	a5,a0
    409c:	00300513          	li	a0,3
    40a0:	00f11f23          	sh	a5,30(sp)
    40a4:	0b1020ef          	jal	6954 <get_seed_32>
    40a8:	00050793          	mv	a5,a0
    40ac:	00400513          	li	a0,4
    40b0:	02f11023          	sh	a5,32(sp)
    40b4:	0a1020ef          	jal	6954 <get_seed_32>
    40b8:	00050793          	mv	a5,a0
    40bc:	00500513          	li	a0,5
    40c0:	02f12c23          	sw	a5,56(sp)
    40c4:	091020ef          	jal	6954 <get_seed_32>
    40c8:	00051463          	bnez	a0,40d0 <main+0xd0>
    40cc:	00700513          	li	a0,7
    40d0:	00001737          	lui	a4,0x1
    40d4:	fffff7b7          	lui	a5,0xfffff
    40d8:	82070713          	add	a4,a4,-2016 # 820 <_entry+0x820>
    40dc:	00f70733          	add	a4,a4,a5
    40e0:	01010793          	add	a5,sp,16
    40e4:	00f707b3          	add	a5,a4,a5
    40e8:	00f12423          	sw	a5,8(sp)
    40ec:	7ec7a783          	lw	a5,2028(a5) # fffff7ec <start_time_val+0xffff6160>
    40f0:	02a12e23          	sw	a0,60(sp)
    40f4:	7c079e63          	bnez	a5,48d0 <main+0x8d0>
    40f8:	00812783          	lw	a5,8(sp)
    40fc:	7f079783          	lh	a5,2032(a5)
    4100:	000788e3          	beqz	a5,4910 <main+0x910>
    4104:	000018b7          	lui	a7,0x1
    4108:	fffff637          	lui	a2,0xfffff
    410c:	82088593          	add	a1,a7,-2016 # 820 <_entry+0x820>
    4110:	00c585b3          	add	a1,a1,a2
    4114:	01010613          	add	a2,sp,16
    4118:	00c58633          	add	a2,a1,a2
    411c:	00257693          	and	a3,a0,2
    4120:	06010593          	add	a1,sp,96
    4124:	00157713          	and	a4,a0,1
    4128:	00d037b3          	snez	a5,a3
    412c:	00c12423          	sw	a2,8(sp)
    4130:	7eb62a23          	sw	a1,2036(a2) # fffff7f4 <start_time_val+0xffff6168>
    4134:	04011e23          	sh	zero,92(sp)
    4138:	00457613          	and	a2,a0,4
    413c:	00f707b3          	add	a5,a4,a5
    4140:	40061463          	bnez	a2,4548 <main+0x548>
    4144:	7d000593          	li	a1,2000
    4148:	02f5d5b3          	divu	a1,a1,a5
    414c:	fffff837          	lui	a6,0xfffff
    4150:	82088893          	add	a7,a7,-2016
    4154:	010888b3          	add	a7,a7,a6
    4158:	01010813          	add	a6,sp,16
    415c:	01088833          	add	a6,a7,a6
    4160:	02b12a23          	sw	a1,52(sp)
    4164:	100716e3          	bnez	a4,4a70 <main+0xa70>
    4168:	000694e3          	bnez	a3,4970 <main+0x970>
    416c:	000016b7          	lui	a3,0x1
    4170:	fffff737          	lui	a4,0xfffff
    4174:	03c12783          	lw	a5,60(sp)
    4178:	82068693          	add	a3,a3,-2016 # 820 <_entry+0x820>
    417c:	00e686b3          	add	a3,a3,a4
    4180:	01010713          	add	a4,sp,16
    4184:	00e68733          	add	a4,a3,a4
    4188:	00e12423          	sw	a4,8(sp)
    418c:	0017f713          	and	a4,a5,1
    4190:	02070063          	beqz	a4,41b0 <main+0x1b0>
    4194:	00812783          	lw	a5,8(sp)
    4198:	03412503          	lw	a0,52(sp)
    419c:	7ec79603          	lh	a2,2028(a5)
    41a0:	7f87a583          	lw	a1,2040(a5)
    41a4:	100010ef          	jal	52a4 <core_list_init>
    41a8:	03c12783          	lw	a5,60(sp)
    41ac:	04a12023          	sw	a0,64(sp)
    41b0:	0027f713          	and	a4,a5,2
    41b4:	30071c63          	bnez	a4,44cc <main+0x4cc>
    41b8:	0047f793          	and	a5,a5,4
    41bc:	02078863          	beqz	a5,41ec <main+0x1ec>
    41c0:	00001737          	lui	a4,0x1
    41c4:	fffff7b7          	lui	a5,0xfffff
    41c8:	82070713          	add	a4,a4,-2016 # 820 <_entry+0x820>
    41cc:	00f70733          	add	a4,a4,a5
    41d0:	01010793          	add	a5,sp,16
    41d4:	00f707b3          	add	a5,a4,a5
    41d8:	03012603          	lw	a2,48(sp)
    41dc:	7ec79583          	lh	a1,2028(a5) # fffff7ec <start_time_val+0xffff6160>
    41e0:	03412503          	lw	a0,52(sp)
    41e4:	00f12423          	sw	a5,8(sp)
    41e8:	7bd010ef          	jal	61a4 <core_init_state>
    41ec:	03812783          	lw	a5,56(sp)
    41f0:	0a079e63          	bnez	a5,42ac <main+0x2ac>
    41f4:	00100793          	li	a5,1
    41f8:	fffff4b7          	lui	s1,0xfffff
    41fc:	02f12c23          	sw	a5,56(sp)
    4200:	000017b7          	lui	a5,0x1
    4204:	7ec48493          	add	s1,s1,2028 # fffff7ec <start_time_val+0xffff6160>
    4208:	82078793          	add	a5,a5,-2016 # 820 <_entry+0x820>
    420c:	009787b3          	add	a5,a5,s1
    4210:	01010713          	add	a4,sp,16
    4214:	00e784b3          	add	s1,a5,a4
    4218:	03812703          	lw	a4,56(sp)
    421c:	00000413          	li	s0,0
    4220:	00271793          	sll	a5,a4,0x2
    4224:	00e787b3          	add	a5,a5,a4
    4228:	00179793          	sll	a5,a5,0x1
    422c:	02f12c23          	sw	a5,56(sp)
    4230:	2f0030ef          	jal	7520 <start_time>
    4234:	03812903          	lw	s2,56(sp)
    4238:	04012a23          	sw	zero,84(sp)
    423c:	04012c23          	sw	zero,88(sp)
    4240:	04090263          	beqz	s2,4284 <main+0x284>
    4244:	00100593          	li	a1,1
    4248:	00048513          	mv	a0,s1
    424c:	3ad000ef          	jal	4df8 <core_bench_list>
    4250:	05415583          	lhu	a1,84(sp)
    4254:	0a1020ef          	jal	6af4 <crcu16>
    4258:	00050793          	mv	a5,a0
    425c:	fff00593          	li	a1,-1
    4260:	00048513          	mv	a0,s1
    4264:	04f11a23          	sh	a5,84(sp)
    4268:	391000ef          	jal	4df8 <core_bench_list>
    426c:	05415583          	lhu	a1,84(sp)
    4270:	085020ef          	jal	6af4 <crcu16>
    4274:	04a11a23          	sh	a0,84(sp)
    4278:	24040063          	beqz	s0,44b8 <main+0x4b8>
    427c:	00140413          	add	s0,s0,1
    4280:	fc8912e3          	bne	s2,s0,4244 <main+0x244>
    4284:	2ac030ef          	jal	7530 <stop_time>
    4288:	2b8030ef          	jal	7540 <get_time>
    428c:	2cc030ef          	jal	7558 <time_in_secs>
    4290:	f80504e3          	beqz	a0,4218 <main+0x218>
    4294:	00a00793          	li	a5,10
    4298:	02a7d7b3          	divu	a5,a5,a0
    429c:	03812703          	lw	a4,56(sp)
    42a0:	00178793          	add	a5,a5,1
    42a4:	02e787b3          	mul	a5,a5,a4
    42a8:	02f12c23          	sw	a5,56(sp)
    42ac:	274030ef          	jal	7520 <start_time>
    42b0:	fffff437          	lui	s0,0xfffff
    42b4:	000014b7          	lui	s1,0x1
    42b8:	7ec40513          	add	a0,s0,2028 # fffff7ec <start_time_val+0xffff6160>
    42bc:	82048793          	add	a5,s1,-2016 # 820 <_entry+0x820>
    42c0:	00a787b3          	add	a5,a5,a0
    42c4:	01010713          	add	a4,sp,16
    42c8:	00e78533          	add	a0,a5,a4
    42cc:	4e4010ef          	jal	57b0 <iterate>
    42d0:	260030ef          	jal	7530 <stop_time>
    42d4:	26c030ef          	jal	7540 <get_time>
    42d8:	82048793          	add	a5,s1,-2016
    42dc:	01010713          	add	a4,sp,16
    42e0:	008787b3          	add	a5,a5,s0
    42e4:	00e787b3          	add	a5,a5,a4
    42e8:	00050a13          	mv	s4,a0
    42ec:	7ec79503          	lh	a0,2028(a5)
    42f0:	00000593          	li	a1,0
    42f4:	00f12423          	sw	a5,8(sp)
    42f8:	791020ef          	jal	7288 <crc16>
    42fc:	00812783          	lw	a5,8(sp)
    4300:	00050593          	mv	a1,a0
    4304:	7ee79503          	lh	a0,2030(a5)
    4308:	781020ef          	jal	7288 <crc16>
    430c:	00812783          	lw	a5,8(sp)
    4310:	00050593          	mv	a1,a0
    4314:	7f079503          	lh	a0,2032(a5)
    4318:	771020ef          	jal	7288 <crc16>
    431c:	00050593          	mv	a1,a0
    4320:	03411503          	lh	a0,52(sp)
    4324:	765020ef          	jal	7288 <crc16>
    4328:	000087b7          	lui	a5,0x8
    432c:	b0578793          	add	a5,a5,-1275 # 7b05 <ee_printf+0x15>
    4330:	00050913          	mv	s2,a0
    4334:	6cf50063          	beq	a0,a5,49f4 <main+0x9f4>
    4338:	24a7ec63          	bltu	a5,a0,4590 <main+0x590>
    433c:	000027b7          	lui	a5,0x2
    4340:	8f278793          	add	a5,a5,-1806 # 18f2 <_entry+0x18f2>
    4344:	6cf50e63          	beq	a0,a5,4a20 <main+0xa20>
    4348:	00005b37          	lui	s6,0x5
    434c:	eafb0793          	add	a5,s6,-337 # 4eaf <core_bench_list+0xb7>
    4350:	72f51a63          	bne	a0,a5,4a84 <main+0xa84>
    4354:	00009537          	lui	a0,0x9
    4358:	f6050513          	add	a0,a0,-160 # 8f60 <ee_printf+0x1470>
    435c:	608b0b93          	add	s7,s6,1544
    4360:	0000e9b7          	lui	s3,0xe
    4364:	00007ab7          	lui	s5,0x7
    4368:	788030ef          	jal	7af0 <ee_printf>
    436c:	5a498993          	add	s3,s3,1444 # e5a4 <start_time_val+0x4f18>
    4370:	01712623          	sw	s7,12(sp)
    4374:	a79a8a93          	add	s5,s5,-1415 # 6a79 <crcu8+0xc1>
    4378:	00009db7          	lui	s11,0x9
    437c:	670da783          	lw	a5,1648(s11) # 9670 <default_num_contexts>
    4380:	24078863          	beqz	a5,45d0 <main+0x5d0>
    4384:	00001737          	lui	a4,0x1
    4388:	fffff7b7          	lui	a5,0xfffff
    438c:	82070713          	add	a4,a4,-2016 # 820 <_entry+0x820>
    4390:	00f70733          	add	a4,a4,a5
    4394:	01010793          	add	a5,sp,16
    4398:	00f707b3          	add	a5,a4,a5
    439c:	00000c93          	li	s9,0
    43a0:	00000c13          	li	s8,0
    43a4:	00f12423          	sw	a5,8(sp)
    43a8:	00001b37          	lui	s6,0x1
    43ac:	00009d37          	lui	s10,0x9
    43b0:	0440006f          	j	43f4 <main+0x3f4>
    43b4:	00812703          	lw	a4,8(sp)
    43b8:	018407b3          	add	a5,s0,s8
    43bc:	00279793          	sll	a5,a5,0x2
    43c0:	00f707b3          	add	a5,a4,a5
    43c4:	00fb07b3          	add	a5,s6,a5
    43c8:	82c7d783          	lhu	a5,-2004(a5) # ffffe82c <start_time_val+0xffff51a0>
    43cc:	001c0593          	add	a1,s8,1
    43d0:	670da683          	lw	a3,1648(s11)
    43d4:	019787b3          	add	a5,a5,s9
    43d8:	01059c13          	sll	s8,a1,0x10
    43dc:	01079493          	sll	s1,a5,0x10
    43e0:	01079c93          	sll	s9,a5,0x10
    43e4:	010c5c13          	srl	s8,s8,0x10
    43e8:	0104d493          	srl	s1,s1,0x10
    43ec:	410cdc93          	sra	s9,s9,0x10
    43f0:	1edc7263          	bgeu	s8,a3,45d4 <main+0x5d4>
    43f4:	00812783          	lw	a5,8(sp)
    43f8:	004c1413          	sll	s0,s8,0x4
    43fc:	018404b3          	add	s1,s0,s8
    4400:	00249493          	sll	s1,s1,0x2
    4404:	009784b3          	add	s1,a5,s1
    4408:	009b04b3          	add	s1,s6,s1
    440c:	80c4a783          	lw	a5,-2036(s1)
    4410:	82049623          	sh	zero,-2004(s1)
    4414:	0017f693          	and	a3,a5,1
    4418:	02068663          	beqz	a3,4444 <main+0x444>
    441c:	8264d603          	lhu	a2,-2010(s1)
    4420:	03560263          	beq	a2,s5,4444 <main+0x444>
    4424:	000a8693          	mv	a3,s5
    4428:	000c0593          	mv	a1,s8
    442c:	ff0d0513          	add	a0,s10,-16 # 8ff0 <ee_printf+0x1500>
    4430:	6c0030ef          	jal	7af0 <ee_printf>
    4434:	82c4d683          	lhu	a3,-2004(s1)
    4438:	80c4a783          	lw	a5,-2036(s1)
    443c:	00168693          	add	a3,a3,1
    4440:	82d49623          	sh	a3,-2004(s1)
    4444:	0027f693          	and	a3,a5,2
    4448:	04068263          	beqz	a3,448c <main+0x48c>
    444c:	00812703          	lw	a4,8(sp)
    4450:	018404b3          	add	s1,s0,s8
    4454:	00249493          	sll	s1,s1,0x2
    4458:	009704b3          	add	s1,a4,s1
    445c:	009b04b3          	add	s1,s6,s1
    4460:	8284d603          	lhu	a2,-2008(s1)
    4464:	03760463          	beq	a2,s7,448c <main+0x48c>
    4468:	00c12683          	lw	a3,12(sp)
    446c:	000097b7          	lui	a5,0x9
    4470:	02078513          	add	a0,a5,32 # 9020 <ee_printf+0x1530>
    4474:	000c0593          	mv	a1,s8
    4478:	678030ef          	jal	7af0 <ee_printf>
    447c:	82c4d683          	lhu	a3,-2004(s1)
    4480:	80c4a783          	lw	a5,-2036(s1)
    4484:	00168693          	add	a3,a3,1
    4488:	82d49623          	sh	a3,-2004(s1)
    448c:	0047f793          	and	a5,a5,4
    4490:	f20782e3          	beqz	a5,43b4 <main+0x3b4>
    4494:	00812783          	lw	a5,8(sp)
    4498:	01840433          	add	s0,s0,s8
    449c:	00241413          	sll	s0,s0,0x2
    44a0:	00878433          	add	s0,a5,s0
    44a4:	008b0433          	add	s0,s6,s0
    44a8:	82a45603          	lhu	a2,-2006(s0)
    44ac:	07361863          	bne	a2,s3,451c <main+0x51c>
    44b0:	82c45783          	lhu	a5,-2004(s0)
    44b4:	f19ff06f          	j	43cc <main+0x3cc>
    44b8:	04a11b23          	sh	a0,86(sp)
    44bc:	00100793          	li	a5,1
    44c0:	dcf902e3          	beq	s2,a5,4284 <main+0x284>
    44c4:	00100413          	li	s0,1
    44c8:	d7dff06f          	j	4244 <main+0x244>
    44cc:	00001737          	lui	a4,0x1
    44d0:	fffff7b7          	lui	a5,0xfffff
    44d4:	82070713          	add	a4,a4,-2016 # 820 <_entry+0x820>
    44d8:	00f70733          	add	a4,a4,a5
    44dc:	01010793          	add	a5,sp,16
    44e0:	00f707b3          	add	a5,a4,a5
    44e4:	00f12423          	sw	a5,8(sp)
    44e8:	00812703          	lw	a4,8(sp)
    44ec:	7ee79783          	lh	a5,2030(a5) # fffff7ee <start_time_val+0xffff6162>
    44f0:	03412503          	lw	a0,52(sp)
    44f4:	7ec71603          	lh	a2,2028(a4)
    44f8:	7fc72583          	lw	a1,2044(a4)
    44fc:	01079793          	sll	a5,a5,0x10
    4500:	00c7e633          	or	a2,a5,a2
    4504:	04410693          	add	a3,sp,68
    4508:	05d010ef          	jal	5d64 <core_init_matrix>
    450c:	03c12783          	lw	a5,60(sp)
    4510:	0047f793          	and	a5,a5,4
    4514:	ca0796e3          	bnez	a5,41c0 <main+0x1c0>
    4518:	cd5ff06f          	j	41ec <main+0x1ec>
    451c:	000097b7          	lui	a5,0x9
    4520:	05478513          	add	a0,a5,84 # 9054 <ee_printf+0x1564>
    4524:	00098693          	mv	a3,s3
    4528:	000c0593          	mv	a1,s8
    452c:	5c4030ef          	jal	7af0 <ee_printf>
    4530:	82c45783          	lhu	a5,-2004(s0)
    4534:	00178793          	add	a5,a5,1
    4538:	01079793          	sll	a5,a5,0x10
    453c:	0107d793          	srl	a5,a5,0x10
    4540:	82f41623          	sh	a5,-2004(s0)
    4544:	e89ff06f          	j	43cc <main+0x3cc>
    4548:	00178813          	add	a6,a5,1
    454c:	7d000593          	li	a1,2000
    4550:	0305d5b3          	divu	a1,a1,a6
    4554:	000018b7          	lui	a7,0x1
    4558:	fffff837          	lui	a6,0xfffff
    455c:	82088893          	add	a7,a7,-2016 # 820 <_entry+0x820>
    4560:	010888b3          	add	a7,a7,a6
    4564:	01010813          	add	a6,sp,16
    4568:	01088833          	add	a6,a7,a6
    456c:	01012423          	sw	a6,8(sp)
    4570:	02b12a23          	sw	a1,52(sp)
    4574:	40071863          	bnez	a4,4984 <main+0x984>
    4578:	4e069063          	bnez	a3,4a58 <main+0xa58>
    457c:	02b787b3          	mul	a5,a5,a1
    4580:	06010713          	add	a4,sp,96
    4584:	00f707b3          	add	a5,a4,a5
    4588:	02f12823          	sw	a5,48(sp)
    458c:	be1ff06f          	j	416c <main+0x16c>
    4590:	000099b7          	lui	s3,0x9
    4594:	a0298793          	add	a5,s3,-1534 # 8a02 <ee_printf+0xf12>
    4598:	42f50863          	beq	a0,a5,49c8 <main+0x9c8>
    459c:	0000f7b7          	lui	a5,0xf
    45a0:	9f578793          	add	a5,a5,-1547 # e9f5 <start_time_val+0x5369>
    45a4:	4ef51063          	bne	a0,a5,4a84 <main+0xa84>
    45a8:	00009537          	lui	a0,0x9
    45ac:	00002b37          	lui	s6,0x2
    45b0:	f9450513          	add	a0,a0,-108 # 8f94 <ee_printf+0x14a4>
    45b4:	fd7b0b93          	add	s7,s6,-41 # 1fd7 <_entry+0x1fd7>
    45b8:	0000eab7          	lui	s5,0xe
    45bc:	534030ef          	jal	7af0 <ee_printf>
    45c0:	e3a98993          	add	s3,s3,-454
    45c4:	01712623          	sw	s7,12(sp)
    45c8:	714a8a93          	add	s5,s5,1812 # e714 <start_time_val+0x5088>
    45cc:	dadff06f          	j	4378 <main+0x378>
    45d0:	00000493          	li	s1,0
    45d4:	73d020ef          	jal	7510 <check_data_types>
    45d8:	03412583          	lw	a1,52(sp)
    45dc:	009504b3          	add	s1,a0,s1
    45e0:	00009537          	lui	a0,0x9
    45e4:	08450513          	add	a0,a0,132 # 9084 <ee_printf+0x1594>
    45e8:	508030ef          	jal	7af0 <ee_printf>
    45ec:	00009537          	lui	a0,0x9
    45f0:	000a0593          	mv	a1,s4
    45f4:	09c50513          	add	a0,a0,156 # 909c <ee_printf+0x15ac>
    45f8:	4f8030ef          	jal	7af0 <ee_printf>
    45fc:	000a0513          	mv	a0,s4
    4600:	759020ef          	jal	7558 <time_in_secs>
    4604:	00050593          	mv	a1,a0
    4608:	00009537          	lui	a0,0x9
    460c:	0b450513          	add	a0,a0,180 # 90b4 <ee_printf+0x15c4>
    4610:	4e0030ef          	jal	7af0 <ee_printf>
    4614:	01049493          	sll	s1,s1,0x10
    4618:	000a0513          	mv	a0,s4
    461c:	0104d493          	srl	s1,s1,0x10
    4620:	739020ef          	jal	7558 <time_in_secs>
    4624:	32051063          	bnez	a0,4944 <main+0x944>
    4628:	000a0513          	mv	a0,s4
    462c:	72d020ef          	jal	7558 <time_in_secs>
    4630:	00900793          	li	a5,9
    4634:	2ea7fe63          	bgeu	a5,a0,4930 <main+0x930>
    4638:	670da783          	lw	a5,1648(s11)
    463c:	03812583          	lw	a1,56(sp)
    4640:	00009537          	lui	a0,0x9
    4644:	12450513          	add	a0,a0,292 # 9124 <ee_printf+0x1634>
    4648:	02f585b3          	mul	a1,a1,a5
    464c:	01049493          	sll	s1,s1,0x10
    4650:	4104d493          	sra	s1,s1,0x10
    4654:	49c030ef          	jal	7af0 <ee_printf>
    4658:	000095b7          	lui	a1,0x9
    465c:	00009537          	lui	a0,0x9
    4660:	13c58593          	add	a1,a1,316 # 913c <ee_printf+0x164c>
    4664:	14850513          	add	a0,a0,328 # 9148 <ee_printf+0x1658>
    4668:	488030ef          	jal	7af0 <ee_printf>
    466c:	000095b7          	lui	a1,0x9
    4670:	00009537          	lui	a0,0x9
    4674:	fc058593          	add	a1,a1,-64 # 8fc0 <ee_printf+0x14d0>
    4678:	16050513          	add	a0,a0,352 # 9160 <ee_printf+0x1670>
    467c:	474030ef          	jal	7af0 <ee_printf>
    4680:	000095b7          	lui	a1,0x9
    4684:	00009537          	lui	a0,0x9
    4688:	17858593          	add	a1,a1,376 # 9178 <ee_printf+0x1688>
    468c:	18050513          	add	a0,a0,384 # 9180 <ee_printf+0x1690>
    4690:	460030ef          	jal	7af0 <ee_printf>
    4694:	00009537          	lui	a0,0x9
    4698:	00090593          	mv	a1,s2
    469c:	19850513          	add	a0,a0,408 # 9198 <ee_printf+0x16a8>
    46a0:	450030ef          	jal	7af0 <ee_printf>
    46a4:	03c12783          	lw	a5,60(sp)
    46a8:	0017f713          	and	a4,a5,1
    46ac:	06070a63          	beqz	a4,4720 <main+0x720>
    46b0:	670da703          	lw	a4,1648(s11)
    46b4:	06070663          	beqz	a4,4720 <main+0x720>
    46b8:	00001737          	lui	a4,0x1
    46bc:	fffff7b7          	lui	a5,0xfffff
    46c0:	82070713          	add	a4,a4,-2016 # 820 <_entry+0x820>
    46c4:	00f70733          	add	a4,a4,a5
    46c8:	01010793          	add	a5,sp,16
    46cc:	00f707b3          	add	a5,a4,a5
    46d0:	00000413          	li	s0,0
    46d4:	000099b7          	lui	s3,0x9
    46d8:	00f12423          	sw	a5,8(sp)
    46dc:	00001937          	lui	s2,0x1
    46e0:	00812703          	lw	a4,8(sp)
    46e4:	00441793          	sll	a5,s0,0x4
    46e8:	008787b3          	add	a5,a5,s0
    46ec:	00279793          	sll	a5,a5,0x2
    46f0:	00f707b3          	add	a5,a4,a5
    46f4:	00f907b3          	add	a5,s2,a5
    46f8:	8267d603          	lhu	a2,-2010(a5) # ffffe826 <start_time_val+0xffff519a>
    46fc:	00040593          	mv	a1,s0
    4700:	1b498513          	add	a0,s3,436 # 91b4 <ee_printf+0x16c4>
    4704:	3ec030ef          	jal	7af0 <ee_printf>
    4708:	00140413          	add	s0,s0,1
    470c:	670da783          	lw	a5,1648(s11)
    4710:	01041413          	sll	s0,s0,0x10
    4714:	01045413          	srl	s0,s0,0x10
    4718:	fcf464e3          	bltu	s0,a5,46e0 <main+0x6e0>
    471c:	03c12783          	lw	a5,60(sp)
    4720:	0027f713          	and	a4,a5,2
    4724:	06070a63          	beqz	a4,4798 <main+0x798>
    4728:	670da703          	lw	a4,1648(s11)
    472c:	32070063          	beqz	a4,4a4c <main+0xa4c>
    4730:	00001737          	lui	a4,0x1
    4734:	fffff7b7          	lui	a5,0xfffff
    4738:	82070713          	add	a4,a4,-2016 # 820 <_entry+0x820>
    473c:	00f70733          	add	a4,a4,a5
    4740:	01010793          	add	a5,sp,16
    4744:	00f707b3          	add	a5,a4,a5
    4748:	00000413          	li	s0,0
    474c:	000099b7          	lui	s3,0x9
    4750:	00f12423          	sw	a5,8(sp)
    4754:	00001937          	lui	s2,0x1
    4758:	00812703          	lw	a4,8(sp)
    475c:	00441793          	sll	a5,s0,0x4
    4760:	008787b3          	add	a5,a5,s0
    4764:	00279793          	sll	a5,a5,0x2
    4768:	00f707b3          	add	a5,a4,a5
    476c:	00f907b3          	add	a5,s2,a5
    4770:	8287d603          	lhu	a2,-2008(a5) # ffffe828 <start_time_val+0xffff519c>
    4774:	00040593          	mv	a1,s0
    4778:	1d098513          	add	a0,s3,464 # 91d0 <ee_printf+0x16e0>
    477c:	374030ef          	jal	7af0 <ee_printf>
    4780:	00140413          	add	s0,s0,1
    4784:	670da783          	lw	a5,1648(s11)
    4788:	01041413          	sll	s0,s0,0x10
    478c:	01045413          	srl	s0,s0,0x10
    4790:	fcf464e3          	bltu	s0,a5,4758 <main+0x758>
    4794:	03c12783          	lw	a5,60(sp)
    4798:	0047f793          	and	a5,a5,4
    479c:	670da703          	lw	a4,1648(s11)
    47a0:	06078663          	beqz	a5,480c <main+0x80c>
    47a4:	0c070663          	beqz	a4,4870 <main+0x870>
    47a8:	00001737          	lui	a4,0x1
    47ac:	fffff7b7          	lui	a5,0xfffff
    47b0:	82070713          	add	a4,a4,-2016 # 820 <_entry+0x820>
    47b4:	00f70733          	add	a4,a4,a5
    47b8:	01010793          	add	a5,sp,16
    47bc:	00f707b3          	add	a5,a4,a5
    47c0:	00000413          	li	s0,0
    47c4:	000099b7          	lui	s3,0x9
    47c8:	00f12423          	sw	a5,8(sp)
    47cc:	00001937          	lui	s2,0x1
    47d0:	00812703          	lw	a4,8(sp)
    47d4:	00441793          	sll	a5,s0,0x4
    47d8:	008787b3          	add	a5,a5,s0
    47dc:	00279793          	sll	a5,a5,0x2
    47e0:	00f707b3          	add	a5,a4,a5
    47e4:	00f907b3          	add	a5,s2,a5
    47e8:	82a7d603          	lhu	a2,-2006(a5) # ffffe82a <start_time_val+0xffff519e>
    47ec:	00040593          	mv	a1,s0
    47f0:	1ec98513          	add	a0,s3,492 # 91ec <ee_printf+0x16fc>
    47f4:	2fc030ef          	jal	7af0 <ee_printf>
    47f8:	00140413          	add	s0,s0,1
    47fc:	670da783          	lw	a5,1648(s11)
    4800:	01041413          	sll	s0,s0,0x10
    4804:	01045413          	srl	s0,s0,0x10
    4808:	fcf464e3          	bltu	s0,a5,47d0 <main+0x7d0>
    480c:	00001737          	lui	a4,0x1
    4810:	670da783          	lw	a5,1648(s11)
    4814:	fffff937          	lui	s2,0xfffff
    4818:	82070713          	add	a4,a4,-2016 # 820 <_entry+0x820>
    481c:	01270733          	add	a4,a4,s2
    4820:	01010693          	add	a3,sp,16
    4824:	00000413          	li	s0,0
    4828:	00009a37          	lui	s4,0x9
    482c:	00d70933          	add	s2,a4,a3
    4830:	000019b7          	lui	s3,0x1
    4834:	02078e63          	beqz	a5,4870 <main+0x870>
    4838:	00441793          	sll	a5,s0,0x4
    483c:	008787b3          	add	a5,a5,s0
    4840:	00279793          	sll	a5,a5,0x2
    4844:	00f907b3          	add	a5,s2,a5
    4848:	00f987b3          	add	a5,s3,a5
    484c:	8247d603          	lhu	a2,-2012(a5)
    4850:	00040593          	mv	a1,s0
    4854:	208a0513          	add	a0,s4,520 # 9208 <ee_printf+0x1718>
    4858:	298030ef          	jal	7af0 <ee_printf>
    485c:	00140413          	add	s0,s0,1
    4860:	670da783          	lw	a5,1648(s11)
    4864:	01041413          	sll	s0,s0,0x10
    4868:	01045413          	srl	s0,s0,0x10
    486c:	fcf466e3          	bltu	s0,a5,4838 <main+0x838>
    4870:	0a048863          	beqz	s1,4920 <main+0x920>
    4874:	08904663          	bgtz	s1,4900 <main+0x900>
    4878:	00009537          	lui	a0,0x9
    487c:	27050513          	add	a0,a0,624 # 9270 <ee_printf+0x1780>
    4880:	270030ef          	jal	7af0 <ee_printf>
    4884:	05e10513          	add	a0,sp,94
    4888:	4ed020ef          	jal	7574 <portable_fini>
    488c:	08010113          	add	sp,sp,128
    4890:	7ec12083          	lw	ra,2028(sp)
    4894:	7e812403          	lw	s0,2024(sp)
    4898:	7e412483          	lw	s1,2020(sp)
    489c:	7e012903          	lw	s2,2016(sp)
    48a0:	7dc12983          	lw	s3,2012(sp)
    48a4:	7d812a03          	lw	s4,2008(sp)
    48a8:	7d412a83          	lw	s5,2004(sp)
    48ac:	7d012b03          	lw	s6,2000(sp)
    48b0:	7cc12b83          	lw	s7,1996(sp)
    48b4:	7c812c03          	lw	s8,1992(sp)
    48b8:	7c412c83          	lw	s9,1988(sp)
    48bc:	7c012d03          	lw	s10,1984(sp)
    48c0:	7bc12d83          	lw	s11,1980(sp)
    48c4:	00000513          	li	a0,0
    48c8:	7f010113          	add	sp,sp,2032
    48cc:	00008067          	ret
    48d0:	00100713          	li	a4,1
    48d4:	82e798e3          	bne	a5,a4,4104 <main+0x104>
    48d8:	00812783          	lw	a5,8(sp)
    48dc:	7f079783          	lh	a5,2032(a5)
    48e0:	820792e3          	bnez	a5,4104 <main+0x104>
    48e4:	00812703          	lw	a4,8(sp)
    48e8:	341537b7          	lui	a5,0x34153
    48ec:	41578793          	add	a5,a5,1045 # 34153415 <start_time_val+0x34149d89>
    48f0:	7ef72623          	sw	a5,2028(a4)
    48f4:	06600793          	li	a5,102
    48f8:	7ef71823          	sh	a5,2032(a4)
    48fc:	809ff06f          	j	4104 <main+0x104>
    4900:	00009537          	lui	a0,0x9
    4904:	2d450513          	add	a0,a0,724 # 92d4 <ee_printf+0x17e4>
    4908:	1e8030ef          	jal	7af0 <ee_printf>
    490c:	f79ff06f          	j	4884 <main+0x884>
    4910:	00812703          	lw	a4,8(sp)
    4914:	06600793          	li	a5,102
    4918:	7ef71823          	sh	a5,2032(a4)
    491c:	fe8ff06f          	j	4104 <main+0x104>
    4920:	00009537          	lui	a0,0x9
    4924:	22450513          	add	a0,a0,548 # 9224 <ee_printf+0x1734>
    4928:	1c8030ef          	jal	7af0 <ee_printf>
    492c:	f59ff06f          	j	4884 <main+0x884>
    4930:	00009537          	lui	a0,0x9
    4934:	0e450513          	add	a0,a0,228 # 90e4 <ee_printf+0x15f4>
    4938:	1b8030ef          	jal	7af0 <ee_printf>
    493c:	00148493          	add	s1,s1,1
    4940:	cf9ff06f          	j	4638 <main+0x638>
    4944:	670da783          	lw	a5,1648(s11)
    4948:	03812403          	lw	s0,56(sp)
    494c:	000a0513          	mv	a0,s4
    4950:	02f40433          	mul	s0,s0,a5
    4954:	405020ef          	jal	7558 <time_in_secs>
    4958:	00050593          	mv	a1,a0
    495c:	00009537          	lui	a0,0x9
    4960:	0cc50513          	add	a0,a0,204 # 90cc <ee_printf+0x15dc>
    4964:	02b455b3          	divu	a1,s0,a1
    4968:	188030ef          	jal	7af0 <ee_printf>
    496c:	cbdff06f          	j	4628 <main+0x628>
    4970:	02b707b3          	mul	a5,a4,a1
    4974:	06010713          	add	a4,sp,96
    4978:	00f707b3          	add	a5,a4,a5
    497c:	7ef82e23          	sw	a5,2044(a6) # fffff7fc <start_time_val+0xffff6170>
    4980:	fecff06f          	j	416c <main+0x16c>
    4984:	00080513          	mv	a0,a6
    4988:	06010813          	add	a6,sp,96
    498c:	7f052c23          	sw	a6,2040(a0)
    4990:	be0686e3          	beqz	a3,457c <main+0x57c>
    4994:	02b70733          	mul	a4,a4,a1
    4998:	06010513          	add	a0,sp,96
    499c:	fffff6b7          	lui	a3,0xfffff
    49a0:	00e50733          	add	a4,a0,a4
    49a4:	00001537          	lui	a0,0x1
    49a8:	82050513          	add	a0,a0,-2016 # 820 <_entry+0x820>
    49ac:	00d50533          	add	a0,a0,a3
    49b0:	01010693          	add	a3,sp,16
    49b4:	00d506b3          	add	a3,a0,a3
    49b8:	00d12423          	sw	a3,8(sp)
    49bc:	7ee6ae23          	sw	a4,2044(a3) # fffff7fc <start_time_val+0xffff6170>
    49c0:	fa060663          	beqz	a2,416c <main+0x16c>
    49c4:	bb9ff06f          	j	457c <main+0x57c>
    49c8:	00009537          	lui	a0,0x9
    49cc:	0000cb37          	lui	s6,0xc
    49d0:	f0450513          	add	a0,a0,-252 # 8f04 <ee_printf+0x1414>
    49d4:	e52b0b93          	add	s7,s6,-430 # be52 <start_time_val+0x27c6>
    49d8:	000069b7          	lui	s3,0x6
    49dc:	0000dab7          	lui	s5,0xd
    49e0:	110030ef          	jal	7af0 <ee_printf>
    49e4:	e4798993          	add	s3,s3,-441 # 5e47 <core_init_matrix+0xe3>
    49e8:	01712623          	sw	s7,12(sp)
    49ec:	4b0a8a93          	add	s5,s5,1200 # d4b0 <start_time_val+0x3e24>
    49f0:	989ff06f          	j	4378 <main+0x378>
    49f4:	00009537          	lui	a0,0x9
    49f8:	00001b37          	lui	s6,0x1
    49fc:	f3450513          	add	a0,a0,-204 # 8f34 <ee_printf+0x1444>
    4a00:	199b0b93          	add	s7,s6,409 # 1199 <_entry+0x1199>
    4a04:	000049b7          	lui	s3,0x4
    4a08:	00003ab7          	lui	s5,0x3
    4a0c:	0e4030ef          	jal	7af0 <ee_printf>
    4a10:	9bf98993          	add	s3,s3,-1601 # 39bf <_entry+0x39bf>
    4a14:	01712623          	sw	s7,12(sp)
    4a18:	340a8a93          	add	s5,s5,832 # 3340 <_entry+0x3340>
    4a1c:	95dff06f          	j	4378 <main+0x378>
    4a20:	00009537          	lui	a0,0x9
    4a24:	fc450513          	add	a0,a0,-60 # 8fc4 <ee_printf+0x14d4>
    4a28:	0c8030ef          	jal	7af0 <ee_printf>
    4a2c:	000099b7          	lui	s3,0x9
    4a30:	74700793          	li	a5,1863
    4a34:	0000eab7          	lui	s5,0xe
    4a38:	d8498993          	add	s3,s3,-636 # 8d84 <ee_printf+0x1294>
    4a3c:	00f12623          	sw	a5,12(sp)
    4a40:	74700b93          	li	s7,1863
    4a44:	3c1a8a93          	add	s5,s5,961 # e3c1 <start_time_val+0x4d35>
    4a48:	931ff06f          	j	4378 <main+0x378>
    4a4c:	0047f793          	and	a5,a5,4
    4a50:	da078ee3          	beqz	a5,480c <main+0x80c>
    4a54:	e1dff06f          	j	4870 <main+0x870>
    4a58:	02b70733          	mul	a4,a4,a1
    4a5c:	06010693          	add	a3,sp,96
    4a60:	00e68733          	add	a4,a3,a4
    4a64:	00812683          	lw	a3,8(sp)
    4a68:	7ee6ae23          	sw	a4,2044(a3)
    4a6c:	b11ff06f          	j	457c <main+0x57c>
    4a70:	00812503          	lw	a0,8(sp)
    4a74:	06010813          	add	a6,sp,96
    4a78:	7f052c23          	sw	a6,2040(a0)
    4a7c:	ee068863          	beqz	a3,416c <main+0x16c>
    4a80:	f15ff06f          	j	4994 <main+0x994>
    4a84:	00010437          	lui	s0,0x10
    4a88:	fff40493          	add	s1,s0,-1 # ffff <start_time_val+0x6973>
    4a8c:	00009db7          	lui	s11,0x9
    4a90:	b45ff06f          	j	45d4 <main+0x5d4>

00004a94 <calc_func>:
    4a94:	fe010113          	add	sp,sp,-32
    4a98:	00812c23          	sw	s0,24(sp)
    4a9c:	00051403          	lh	s0,0(a0)
    4aa0:	00112e23          	sw	ra,28(sp)
    4aa4:	00912a23          	sw	s1,20(sp)
    4aa8:	40745793          	sra	a5,s0,0x7
    4aac:	01212823          	sw	s2,16(sp)
    4ab0:	01312623          	sw	s3,12(sp)
    4ab4:	0017f793          	and	a5,a5,1
    4ab8:	02078263          	beqz	a5,4adc <calc_func+0x48>
    4abc:	01c12083          	lw	ra,28(sp)
    4ac0:	07f47513          	and	a0,s0,127
    4ac4:	01812403          	lw	s0,24(sp)
    4ac8:	01412483          	lw	s1,20(sp)
    4acc:	01012903          	lw	s2,16(sp)
    4ad0:	00c12983          	lw	s3,12(sp)
    4ad4:	02010113          	add	sp,sp,32
    4ad8:	00008067          	ret
    4adc:	40345713          	sra	a4,s0,0x3
    4ae0:	00f77713          	and	a4,a4,15
    4ae4:	00058493          	mv	s1,a1
    4ae8:	00747693          	and	a3,s0,7
    4aec:	00471593          	sll	a1,a4,0x4
    4af0:	0384d783          	lhu	a5,56(s1)
    4af4:	00050993          	mv	s3,a0
    4af8:	00e5e5b3          	or	a1,a1,a4
    4afc:	04068c63          	beqz	a3,4b54 <calc_func+0xc0>
    4b00:	00100713          	li	a4,1
    4b04:	08e68a63          	beq	a3,a4,4b98 <calc_func+0x104>
    4b08:	01041513          	sll	a0,s0,0x10
    4b0c:	01055513          	srl	a0,a0,0x10
    4b10:	00040913          	mv	s2,s0
    4b14:	00078593          	mv	a1,a5
    4b18:	7dd010ef          	jal	6af4 <crcu16>
    4b1c:	00050793          	mv	a5,a0
    4b20:	f0047413          	and	s0,s0,-256
    4b24:	07f97513          	and	a0,s2,127
    4b28:	00856433          	or	s0,a0,s0
    4b2c:	02f49c23          	sh	a5,56(s1)
    4b30:	08046413          	or	s0,s0,128
    4b34:	00899023          	sh	s0,0(s3)
    4b38:	01c12083          	lw	ra,28(sp)
    4b3c:	01812403          	lw	s0,24(sp)
    4b40:	01412483          	lw	s1,20(sp)
    4b44:	01012903          	lw	s2,16(sp)
    4b48:	00c12983          	lw	s3,12(sp)
    4b4c:	02010113          	add	sp,sp,32
    4b50:	00008067          	ret
    4b54:	02200693          	li	a3,34
    4b58:	00058713          	mv	a4,a1
    4b5c:	00d5d463          	bge	a1,a3,4b64 <calc_func+0xd0>
    4b60:	02200713          	li	a4,34
    4b64:	00249683          	lh	a3,2(s1)
    4b68:	00049603          	lh	a2,0(s1)
    4b6c:	0144a583          	lw	a1,20(s1)
    4b70:	0184a503          	lw	a0,24(s1)
    4b74:	0ff77713          	zext.b	a4,a4
    4b78:	3b5010ef          	jal	672c <core_bench_state>
    4b7c:	03e4d783          	lhu	a5,62(s1)
    4b80:	00079463          	bnez	a5,4b88 <calc_func+0xf4>
    4b84:	02a49f23          	sh	a0,62(s1)
    4b88:	01051913          	sll	s2,a0,0x10
    4b8c:	0384d783          	lhu	a5,56(s1)
    4b90:	41095913          	sra	s2,s2,0x10
    4b94:	f81ff06f          	j	4b14 <calc_func+0x80>
    4b98:	00078613          	mv	a2,a5
    4b9c:	02848513          	add	a0,s1,40
    4ba0:	188010ef          	jal	5d28 <core_bench_matrix>
    4ba4:	03c4d783          	lhu	a5,60(s1)
    4ba8:	fe0790e3          	bnez	a5,4b88 <calc_func+0xf4>
    4bac:	02a49e23          	sh	a0,60(s1)
    4bb0:	fd9ff06f          	j	4b88 <calc_func+0xf4>

00004bb4 <cmp_complex>:
    4bb4:	fe010113          	add	sp,sp,-32
    4bb8:	00912a23          	sw	s1,20(sp)
    4bbc:	00051483          	lh	s1,0(a0)
    4bc0:	00812c23          	sw	s0,24(sp)
    4bc4:	01212823          	sw	s2,16(sp)
    4bc8:	4074d793          	sra	a5,s1,0x7
    4bcc:	01412423          	sw	s4,8(sp)
    4bd0:	00112e23          	sw	ra,28(sp)
    4bd4:	01312623          	sw	s3,12(sp)
    4bd8:	0017f793          	and	a5,a5,1
    4bdc:	00058913          	mv	s2,a1
    4be0:	00060413          	mv	s0,a2
    4be4:	07f4fa13          	and	s4,s1,127
    4be8:	04079c63          	bnez	a5,4c40 <cmp_complex+0x8c>
    4bec:	4034d593          	sra	a1,s1,0x3
    4bf0:	00f5f593          	and	a1,a1,15
    4bf4:	00459693          	sll	a3,a1,0x4
    4bf8:	0074f713          	and	a4,s1,7
    4bfc:	03865783          	lhu	a5,56(a2)
    4c00:	00050993          	mv	s3,a0
    4c04:	00d5e5b3          	or	a1,a1,a3
    4c08:	12070063          	beqz	a4,4d28 <cmp_complex+0x174>
    4c0c:	00100693          	li	a3,1
    4c10:	14d70e63          	beq	a4,a3,4d6c <cmp_complex+0x1b8>
    4c14:	01049513          	sll	a0,s1,0x10
    4c18:	01055513          	srl	a0,a0,0x10
    4c1c:	00048a13          	mv	s4,s1
    4c20:	00078593          	mv	a1,a5
    4c24:	07fa7a13          	and	s4,s4,127
    4c28:	f004f493          	and	s1,s1,-256
    4c2c:	6c9010ef          	jal	6af4 <crcu16>
    4c30:	009a64b3          	or	s1,s4,s1
    4c34:	02a41c23          	sh	a0,56(s0)
    4c38:	0804e493          	or	s1,s1,128
    4c3c:	00999023          	sh	s1,0(s3)
    4c40:	00091483          	lh	s1,0(s2) # fffff000 <start_time_val+0xffff5974>
    4c44:	4074d793          	sra	a5,s1,0x7
    4c48:	0017f793          	and	a5,a5,1
    4c4c:	07f4f993          	and	s3,s1,127
    4c50:	06079663          	bnez	a5,4cbc <cmp_complex+0x108>
    4c54:	4034d593          	sra	a1,s1,0x3
    4c58:	00f5f593          	and	a1,a1,15
    4c5c:	00459693          	sll	a3,a1,0x4
    4c60:	0074f713          	and	a4,s1,7
    4c64:	03845783          	lhu	a5,56(s0)
    4c68:	00d5e5b3          	or	a1,a1,a3
    4c6c:	08070263          	beqz	a4,4cf0 <cmp_complex+0x13c>
    4c70:	00100693          	li	a3,1
    4c74:	06d71663          	bne	a4,a3,4ce0 <cmp_complex+0x12c>
    4c78:	00078613          	mv	a2,a5
    4c7c:	02840513          	add	a0,s0,40
    4c80:	0a8010ef          	jal	5d28 <core_bench_matrix>
    4c84:	03c45783          	lhu	a5,60(s0)
    4c88:	00079463          	bnez	a5,4c90 <cmp_complex+0xdc>
    4c8c:	02a41e23          	sh	a0,60(s0)
    4c90:	03845783          	lhu	a5,56(s0)
    4c94:	01051993          	sll	s3,a0,0x10
    4c98:	4109d993          	sra	s3,s3,0x10
    4c9c:	00078593          	mv	a1,a5
    4ca0:	07f9f993          	and	s3,s3,127
    4ca4:	f004f493          	and	s1,s1,-256
    4ca8:	64d010ef          	jal	6af4 <crcu16>
    4cac:	0099e4b3          	or	s1,s3,s1
    4cb0:	02a41c23          	sh	a0,56(s0)
    4cb4:	0804e493          	or	s1,s1,128
    4cb8:	00991023          	sh	s1,0(s2)
    4cbc:	01c12083          	lw	ra,28(sp)
    4cc0:	01812403          	lw	s0,24(sp)
    4cc4:	413a0533          	sub	a0,s4,s3
    4cc8:	01412483          	lw	s1,20(sp)
    4ccc:	01012903          	lw	s2,16(sp)
    4cd0:	00c12983          	lw	s3,12(sp)
    4cd4:	00812a03          	lw	s4,8(sp)
    4cd8:	02010113          	add	sp,sp,32
    4cdc:	00008067          	ret
    4ce0:	01049513          	sll	a0,s1,0x10
    4ce4:	01055513          	srl	a0,a0,0x10
    4ce8:	00048993          	mv	s3,s1
    4cec:	fb1ff06f          	j	4c9c <cmp_complex+0xe8>
    4cf0:	02200693          	li	a3,34
    4cf4:	00058713          	mv	a4,a1
    4cf8:	00d5d463          	bge	a1,a3,4d00 <cmp_complex+0x14c>
    4cfc:	02200713          	li	a4,34
    4d00:	00241683          	lh	a3,2(s0)
    4d04:	00041603          	lh	a2,0(s0)
    4d08:	01442583          	lw	a1,20(s0)
    4d0c:	01842503          	lw	a0,24(s0)
    4d10:	0ff77713          	zext.b	a4,a4
    4d14:	219010ef          	jal	672c <core_bench_state>
    4d18:	03e45783          	lhu	a5,62(s0)
    4d1c:	f6079ae3          	bnez	a5,4c90 <cmp_complex+0xdc>
    4d20:	02a41f23          	sh	a0,62(s0)
    4d24:	f6dff06f          	j	4c90 <cmp_complex+0xdc>
    4d28:	02200693          	li	a3,34
    4d2c:	00058713          	mv	a4,a1
    4d30:	00d5d463          	bge	a1,a3,4d38 <cmp_complex+0x184>
    4d34:	02200713          	li	a4,34
    4d38:	00241683          	lh	a3,2(s0)
    4d3c:	00041603          	lh	a2,0(s0)
    4d40:	01442583          	lw	a1,20(s0)
    4d44:	01842503          	lw	a0,24(s0)
    4d48:	0ff77713          	zext.b	a4,a4
    4d4c:	1e1010ef          	jal	672c <core_bench_state>
    4d50:	03e45783          	lhu	a5,62(s0)
    4d54:	00079463          	bnez	a5,4d5c <cmp_complex+0x1a8>
    4d58:	02a41f23          	sh	a0,62(s0)
    4d5c:	01051a13          	sll	s4,a0,0x10
    4d60:	03845783          	lhu	a5,56(s0)
    4d64:	410a5a13          	sra	s4,s4,0x10
    4d68:	eb9ff06f          	j	4c20 <cmp_complex+0x6c>
    4d6c:	00078613          	mv	a2,a5
    4d70:	02840513          	add	a0,s0,40
    4d74:	7b5000ef          	jal	5d28 <core_bench_matrix>
    4d78:	03c45783          	lhu	a5,60(s0)
    4d7c:	fe0790e3          	bnez	a5,4d5c <cmp_complex+0x1a8>
    4d80:	02a41e23          	sh	a0,60(s0)
    4d84:	fd9ff06f          	j	4d5c <cmp_complex+0x1a8>

00004d88 <cmp_idx>:
    4d88:	00060a63          	beqz	a2,4d9c <cmp_idx+0x14>
    4d8c:	00251503          	lh	a0,2(a0)
    4d90:	00259783          	lh	a5,2(a1)
    4d94:	40f50533          	sub	a0,a0,a5
    4d98:	00008067          	ret
    4d9c:	00051783          	lh	a5,0(a0)
    4da0:	01079713          	sll	a4,a5,0x10
    4da4:	01075713          	srl	a4,a4,0x10
    4da8:	00875713          	srl	a4,a4,0x8
    4dac:	f007f793          	and	a5,a5,-256
    4db0:	00e7e7b3          	or	a5,a5,a4
    4db4:	00f51023          	sh	a5,0(a0)
    4db8:	00059783          	lh	a5,0(a1)
    4dbc:	00251503          	lh	a0,2(a0)
    4dc0:	01079713          	sll	a4,a5,0x10
    4dc4:	01075713          	srl	a4,a4,0x10
    4dc8:	00875713          	srl	a4,a4,0x8
    4dcc:	f007f793          	and	a5,a5,-256
    4dd0:	00e7e7b3          	or	a5,a5,a4
    4dd4:	00f59023          	sh	a5,0(a1)
    4dd8:	00259783          	lh	a5,2(a1)
    4ddc:	40f50533          	sub	a0,a0,a5
    4de0:	00008067          	ret

00004de4 <copy_info>:
    4de4:	00059703          	lh	a4,0(a1)
    4de8:	00259783          	lh	a5,2(a1)
    4dec:	00e51023          	sh	a4,0(a0)
    4df0:	00f51123          	sh	a5,2(a0)
    4df4:	00008067          	ret

00004df8 <core_bench_list>:
    4df8:	00451883          	lh	a7,4(a0)
    4dfc:	fc010113          	add	sp,sp,-64
    4e00:	02812c23          	sw	s0,56(sp)
    4e04:	03612023          	sw	s6,32(sp)
    4e08:	01712e23          	sw	s7,28(sp)
    4e0c:	02112e23          	sw	ra,60(sp)
    4e10:	02912a23          	sw	s1,52(sp)
    4e14:	03212823          	sw	s2,48(sp)
    4e18:	03312623          	sw	s3,44(sp)
    4e1c:	03412423          	sw	s4,40(sp)
    4e20:	03512223          	sw	s5,36(sp)
    4e24:	01812c23          	sw	s8,24(sp)
    4e28:	01912a23          	sw	s9,20(sp)
    4e2c:	01a12823          	sw	s10,16(sp)
    4e30:	01b12623          	sw	s11,12(sp)
    4e34:	02452403          	lw	s0,36(a0)
    4e38:	00050b13          	mv	s6,a0
    4e3c:	00058b93          	mv	s7,a1
    4e40:	00058513          	mv	a0,a1
    4e44:	45105663          	blez	a7,5290 <core_bench_list+0x498>
    4e48:	00000613          	li	a2,0
    4e4c:	00000813          	li	a6,0
    4e50:	00000593          	li	a1,0
    4e54:	00000493          	li	s1,0
    4e58:	0ff67c93          	zext.b	s9,a2
    4e5c:	260bce63          	bltz	s7,50d8 <core_bench_list+0x2e0>
    4e60:	42040e63          	beqz	s0,529c <core_bench_list+0x4a4>
    4e64:	00040793          	mv	a5,s0
    4e68:	00c0006f          	j	4e74 <core_bench_list+0x7c>
    4e6c:	0007a783          	lw	a5,0(a5)
    4e70:	00078863          	beqz	a5,4e80 <core_bench_list+0x88>
    4e74:	0047a703          	lw	a4,4(a5)
    4e78:	00271703          	lh	a4,2(a4)
    4e7c:	ff7718e3          	bne	a4,s7,4e6c <core_bench_list+0x74>
    4e80:	00000693          	li	a3,0
    4e84:	0080006f          	j	4e8c <core_bench_list+0x94>
    4e88:	00070413          	mv	s0,a4
    4e8c:	00042703          	lw	a4,0(s0)
    4e90:	00d42023          	sw	a3,0(s0)
    4e94:	00040693          	mv	a3,s0
    4e98:	fe0718e3          	bnez	a4,4e88 <core_bench_list+0x90>
    4e9c:	26078063          	beqz	a5,50fc <core_bench_list+0x304>
    4ea0:	0047a703          	lw	a4,4(a5)
    4ea4:	00071703          	lh	a4,0(a4)
    4ea8:	00177693          	and	a3,a4,1
    4eac:	00068c63          	beqz	a3,4ec4 <core_bench_list+0xcc>
    4eb0:	40975713          	sra	a4,a4,0x9
    4eb4:	00177713          	and	a4,a4,1
    4eb8:	00e48733          	add	a4,s1,a4
    4ebc:	01071493          	sll	s1,a4,0x10
    4ec0:	0104d493          	srl	s1,s1,0x10
    4ec4:	0007a703          	lw	a4,0(a5)
    4ec8:	00070c63          	beqz	a4,4ee0 <core_bench_list+0xe8>
    4ecc:	00072683          	lw	a3,0(a4)
    4ed0:	00d7a023          	sw	a3,0(a5)
    4ed4:	00042783          	lw	a5,0(s0)
    4ed8:	00f72023          	sw	a5,0(a4)
    4edc:	00e42023          	sw	a4,0(s0)
    4ee0:	00158793          	add	a5,a1,1
    4ee4:	01079593          	sll	a1,a5,0x10
    4ee8:	0105d593          	srl	a1,a1,0x10
    4eec:	000bc863          	bltz	s7,4efc <core_bench_list+0x104>
    4ef0:	001b8b93          	add	s7,s7,1
    4ef4:	010b9b93          	sll	s7,s7,0x10
    4ef8:	410bdb93          	sra	s7,s7,0x10
    4efc:	00160613          	add	a2,a2,1
    4f00:	01061613          	sll	a2,a2,0x10
    4f04:	41065613          	sra	a2,a2,0x10
    4f08:	f4c898e3          	bne	a7,a2,4e58 <core_bench_list+0x60>
    4f0c:	00259793          	sll	a5,a1,0x2
    4f10:	410787b3          	sub	a5,a5,a6
    4f14:	00f484b3          	add	s1,s1,a5
    4f18:	01049493          	sll	s1,s1,0x10
    4f1c:	0104d493          	srl	s1,s1,0x10
    4f20:	26a04a63          	bgtz	a0,5194 <core_bench_list+0x39c>
    4f24:	00042783          	lw	a5,0(s0)
    4f28:	00040913          	mv	s2,s0
    4f2c:	0007a983          	lw	s3,0(a5)
    4f30:	0047a703          	lw	a4,4(a5)
    4f34:	0049a603          	lw	a2,4(s3)
    4f38:	0009a683          	lw	a3,0(s3)
    4f3c:	00c7a223          	sw	a2,4(a5)
    4f40:	00e9a223          	sw	a4,4(s3)
    4f44:	00d7a023          	sw	a3,0(a5)
    4f48:	0009a023          	sw	zero,0(s3)
    4f4c:	0e0bc463          	bltz	s7,5034 <core_bench_list+0x23c>
    4f50:	00492783          	lw	a5,4(s2)
    4f54:	00279783          	lh	a5,2(a5)
    4f58:	01778c63          	beq	a5,s7,4f70 <core_bench_list+0x178>
    4f5c:	00092903          	lw	s2,0(s2)
    4f60:	30090063          	beqz	s2,5260 <core_bench_list+0x468>
    4f64:	00492783          	lw	a5,4(s2)
    4f68:	00279783          	lh	a5,2(a5)
    4f6c:	ff7798e3          	bne	a5,s7,4f5c <core_bench_list+0x164>
    4f70:	00442783          	lw	a5,4(s0)
    4f74:	00048593          	mv	a1,s1
    4f78:	00079503          	lh	a0,0(a5)
    4f7c:	30c020ef          	jal	7288 <crc16>
    4f80:	00092903          	lw	s2,0(s2)
    4f84:	00050493          	mv	s1,a0
    4f88:	fe0914e3          	bnez	s2,4f70 <core_bench_list+0x178>
    4f8c:	00042903          	lw	s2,0(s0)
    4f90:	0049a703          	lw	a4,4(s3)
    4f94:	00492683          	lw	a3,4(s2)
    4f98:	00092783          	lw	a5,0(s2)
    4f9c:	00100e93          	li	t4,1
    4fa0:	00d9a223          	sw	a3,4(s3)
    4fa4:	00e92223          	sw	a4,4(s2)
    4fa8:	00f9a023          	sw	a5,0(s3)
    4fac:	01392023          	sw	s3,0(s2)
    4fb0:	00000613          	li	a2,0
    4fb4:	00000913          	li	s2,0
    4fb8:	00000f13          	li	t5,0
    4fbc:	00100f93          	li	t6,1
    4fc0:	001f0f13          	add	t5,t5,1
    4fc4:	00040713          	mv	a4,s0
    4fc8:	00000793          	li	a5,0
    4fcc:	00072703          	lw	a4,0(a4)
    4fd0:	00178793          	add	a5,a5,1
    4fd4:	00070463          	beqz	a4,4fdc <core_bench_list+0x1e4>
    4fd8:	ffd79ae3          	bne	a5,t4,4fcc <core_bench_list+0x1d4>
    4fdc:	000e8593          	mv	a1,t4
    4fe0:	02f05263          	blez	a5,5004 <core_bench_list+0x20c>
    4fe4:	06059063          	bnez	a1,5044 <core_bench_list+0x24c>
    4fe8:	00040693          	mv	a3,s0
    4fec:	00042403          	lw	s0,0(s0)
    4ff0:	fff78793          	add	a5,a5,-1
    4ff4:	02060663          	beqz	a2,5020 <core_bench_list+0x228>
    4ff8:	00d62023          	sw	a3,0(a2)
    4ffc:	00068613          	mv	a2,a3
    5000:	fef042e3          	bgtz	a5,4fe4 <core_bench_list+0x1ec>
    5004:	0ab05063          	blez	a1,50a4 <core_bench_list+0x2ac>
    5008:	0a070463          	beqz	a4,50b0 <core_bench_list+0x2b8>
    500c:	02079e63          	bnez	a5,5048 <core_bench_list+0x250>
    5010:	00070693          	mv	a3,a4
    5014:	fff58593          	add	a1,a1,-1
    5018:	00072703          	lw	a4,0(a4)
    501c:	fc061ee3          	bnez	a2,4ff8 <core_bench_list+0x200>
    5020:	00068913          	mv	s2,a3
    5024:	00068613          	mv	a2,a3
    5028:	fd9ff06f          	j	5000 <core_bench_list+0x208>
    502c:	00092903          	lw	s2,0(s2)
    5030:	22090863          	beqz	s2,5260 <core_bench_list+0x468>
    5034:	00492783          	lw	a5,4(s2)
    5038:	0007c783          	lbu	a5,0(a5)
    503c:	fefc98e3          	bne	s9,a5,502c <core_bench_list+0x234>
    5040:	f31ff06f          	j	4f70 <core_bench_list+0x178>
    5044:	fa0702e3          	beqz	a4,4fe8 <core_bench_list+0x1f0>
    5048:	00442803          	lw	a6,4(s0)
    504c:	00472503          	lw	a0,4(a4)
    5050:	00081683          	lh	a3,0(a6)
    5054:	00251303          	lh	t1,2(a0)
    5058:	00281e03          	lh	t3,2(a6)
    505c:	01069893          	sll	a7,a3,0x10
    5060:	0108d893          	srl	a7,a7,0x10
    5064:	f006f693          	and	a3,a3,-256
    5068:	0088d893          	srl	a7,a7,0x8
    506c:	0116e6b3          	or	a3,a3,a7
    5070:	00d81023          	sh	a3,0(a6)
    5074:	00051683          	lh	a3,0(a0)
    5078:	01069813          	sll	a6,a3,0x10
    507c:	01085813          	srl	a6,a6,0x10
    5080:	f006f693          	and	a3,a3,-256
    5084:	00885813          	srl	a6,a6,0x8
    5088:	0106e6b3          	or	a3,a3,a6
    508c:	00d51023          	sh	a3,0(a0)
    5090:	f5c35ce3          	bge	t1,t3,4fe8 <core_bench_list+0x1f0>
    5094:	00070693          	mv	a3,a4
    5098:	fff58593          	add	a1,a1,-1
    509c:	00072703          	lw	a4,0(a4)
    50a0:	f55ff06f          	j	4ff4 <core_bench_list+0x1fc>
    50a4:	00070663          	beqz	a4,50b0 <core_bench_list+0x2b8>
    50a8:	00070413          	mv	s0,a4
    50ac:	f15ff06f          	j	4fc0 <core_bench_list+0x1c8>
    50b0:	00062023          	sw	zero,0(a2)
    50b4:	07ff0e63          	beq	t5,t6,5130 <core_bench_list+0x338>
    50b8:	001e9e93          	sll	t4,t4,0x1
    50bc:	06090663          	beqz	s2,5128 <core_bench_list+0x330>
    50c0:	00090713          	mv	a4,s2
    50c4:	00000613          	li	a2,0
    50c8:	00000913          	li	s2,0
    50cc:	00000f13          	li	t5,0
    50d0:	00070413          	mv	s0,a4
    50d4:	eedff06f          	j	4fc0 <core_bench_list+0x1c8>
    50d8:	1c040263          	beqz	s0,529c <core_bench_list+0x4a4>
    50dc:	00040793          	mv	a5,s0
    50e0:	00c0006f          	j	50ec <core_bench_list+0x2f4>
    50e4:	0007a783          	lw	a5,0(a5)
    50e8:	d8078ce3          	beqz	a5,4e80 <core_bench_list+0x88>
    50ec:	0047a703          	lw	a4,4(a5)
    50f0:	00074703          	lbu	a4,0(a4)
    50f4:	feec98e3          	bne	s9,a4,50e4 <core_bench_list+0x2ec>
    50f8:	d89ff06f          	j	4e80 <core_bench_list+0x88>
    50fc:	00042783          	lw	a5,0(s0)
    5100:	00180813          	add	a6,a6,1
    5104:	01081813          	sll	a6,a6,0x10
    5108:	0047a783          	lw	a5,4(a5)
    510c:	01085813          	srl	a6,a6,0x10
    5110:	00178783          	lb	a5,1(a5)
    5114:	0017f793          	and	a5,a5,1
    5118:	00f487b3          	add	a5,s1,a5
    511c:	01079493          	sll	s1,a5,0x10
    5120:	0104d493          	srl	s1,s1,0x10
    5124:	dc9ff06f          	j	4eec <core_bench_list+0xf4>
    5128:	00002023          	sw	zero,0(zero) # 0 <_entry>
    512c:	00100073          	ebreak
    5130:	00092403          	lw	s0,0(s2)
    5134:	02040063          	beqz	s0,5154 <core_bench_list+0x35c>
    5138:	00492783          	lw	a5,4(s2)
    513c:	00048593          	mv	a1,s1
    5140:	00079503          	lh	a0,0(a5)
    5144:	144020ef          	jal	7288 <crc16>
    5148:	00042403          	lw	s0,0(s0)
    514c:	00050493          	mv	s1,a0
    5150:	fe0414e3          	bnez	s0,5138 <core_bench_list+0x340>
    5154:	03c12083          	lw	ra,60(sp)
    5158:	03812403          	lw	s0,56(sp)
    515c:	03012903          	lw	s2,48(sp)
    5160:	02c12983          	lw	s3,44(sp)
    5164:	02812a03          	lw	s4,40(sp)
    5168:	02412a83          	lw	s5,36(sp)
    516c:	02012b03          	lw	s6,32(sp)
    5170:	01c12b83          	lw	s7,28(sp)
    5174:	01812c03          	lw	s8,24(sp)
    5178:	01412c83          	lw	s9,20(sp)
    517c:	01012d03          	lw	s10,16(sp)
    5180:	00c12d83          	lw	s11,12(sp)
    5184:	00048513          	mv	a0,s1
    5188:	03412483          	lw	s1,52(sp)
    518c:	04010113          	add	sp,sp,64
    5190:	00008067          	ret
    5194:	00100a13          	li	s4,1
    5198:	f80408e3          	beqz	s0,5128 <core_bench_list+0x330>
    519c:	00000993          	li	s3,0
    51a0:	00000a93          	li	s5,0
    51a4:	00000c13          	li	s8,0
    51a8:	001c0c13          	add	s8,s8,1
    51ac:	00040793          	mv	a5,s0
    51b0:	00000913          	li	s2,0
    51b4:	0007a783          	lw	a5,0(a5)
    51b8:	00190913          	add	s2,s2,1
    51bc:	00078463          	beqz	a5,51c4 <core_bench_list+0x3cc>
    51c0:	ff491ae3          	bne	s2,s4,51b4 <core_bench_list+0x3bc>
    51c4:	00040d93          	mv	s11,s0
    51c8:	000a0d13          	mv	s10,s4
    51cc:	00078413          	mv	s0,a5
    51d0:	03205263          	blez	s2,51f4 <core_bench_list+0x3fc>
    51d4:	040d1463          	bnez	s10,521c <core_bench_list+0x424>
    51d8:	000d8793          	mv	a5,s11
    51dc:	000dad83          	lw	s11,0(s11) # 9000 <ee_printf+0x1510>
    51e0:	fff90913          	add	s2,s2,-1
    51e4:	02098663          	beqz	s3,5210 <core_bench_list+0x418>
    51e8:	00f9a023          	sw	a5,0(s3)
    51ec:	00078993          	mv	s3,a5
    51f0:	ff2042e3          	bgtz	s2,51d4 <core_bench_list+0x3dc>
    51f4:	05a05863          	blez	s10,5244 <core_bench_list+0x44c>
    51f8:	04040863          	beqz	s0,5248 <core_bench_list+0x450>
    51fc:	02091263          	bnez	s2,5220 <core_bench_list+0x428>
    5200:	00040793          	mv	a5,s0
    5204:	fffd0d13          	add	s10,s10,-1
    5208:	00042403          	lw	s0,0(s0)
    520c:	fc099ee3          	bnez	s3,51e8 <core_bench_list+0x3f0>
    5210:	00078a93          	mv	s5,a5
    5214:	00078993          	mv	s3,a5
    5218:	fd9ff06f          	j	51f0 <core_bench_list+0x3f8>
    521c:	fa040ee3          	beqz	s0,51d8 <core_bench_list+0x3e0>
    5220:	00442583          	lw	a1,4(s0)
    5224:	004da503          	lw	a0,4(s11)
    5228:	000b0613          	mv	a2,s6
    522c:	989ff0ef          	jal	4bb4 <cmp_complex>
    5230:	faa054e3          	blez	a0,51d8 <core_bench_list+0x3e0>
    5234:	00040793          	mv	a5,s0
    5238:	fffd0d13          	add	s10,s10,-1
    523c:	00042403          	lw	s0,0(s0)
    5240:	fa5ff06f          	j	51e4 <core_bench_list+0x3ec>
    5244:	f60412e3          	bnez	s0,51a8 <core_bench_list+0x3b0>
    5248:	0009a023          	sw	zero,0(s3)
    524c:	00100793          	li	a5,1
    5250:	02fc0c63          	beq	s8,a5,5288 <core_bench_list+0x490>
    5254:	001a1a13          	sll	s4,s4,0x1
    5258:	000a8413          	mv	s0,s5
    525c:	f3dff06f          	j	5198 <core_bench_list+0x3a0>
    5260:	00042903          	lw	s2,0(s0)
    5264:	d20908e3          	beqz	s2,4f94 <core_bench_list+0x19c>
    5268:	00442783          	lw	a5,4(s0)
    526c:	00048593          	mv	a1,s1
    5270:	00079503          	lh	a0,0(a5)
    5274:	014020ef          	jal	7288 <crc16>
    5278:	00092903          	lw	s2,0(s2)
    527c:	00050493          	mv	s1,a0
    5280:	ce0918e3          	bnez	s2,4f70 <core_bench_list+0x178>
    5284:	d09ff06f          	j	4f8c <core_bench_list+0x194>
    5288:	000a8413          	mv	s0,s5
    528c:	c99ff06f          	j	4f24 <core_bench_list+0x12c>
    5290:	00000493          	li	s1,0
    5294:	00000c93          	li	s9,0
    5298:	c89ff06f          	j	4f20 <core_bench_list+0x128>
    529c:	00002783          	lw	a5,0(zero) # 0 <_entry>
    52a0:	00100073          	ebreak

000052a4 <core_list_init>:
    52a4:	01400793          	li	a5,20
    52a8:	02f55333          	divu	t1,a0,a5
    52ac:	00058713          	mv	a4,a1
    52b0:	0005a023          	sw	zero,0(a1)
    52b4:	ffff87b7          	lui	a5,0xffff8
    52b8:	08078593          	add	a1,a5,128 # ffff8080 <start_time_val+0xfffee9f4>
    52bc:	01070513          	add	a0,a4,16
    52c0:	00060f13          	mv	t5,a2
    52c4:	00870693          	add	a3,a4,8
    52c8:	ffe30313          	add	t1,t1,-2
    52cc:	00331813          	sll	a6,t1,0x3
    52d0:	01070833          	add	a6,a4,a6
    52d4:	01072223          	sw	a6,4(a4)
    52d8:	00231f93          	sll	t6,t1,0x2
    52dc:	00081123          	sh	zero,2(a6)
    52e0:	00b81023          	sh	a1,0(a6)
    52e4:	01f80fb3          	add	t6,a6,t6
    52e8:	00480613          	add	a2,a6,4
    52ec:	25057463          	bgeu	a0,a6,5534 <core_list_init+0x290>
    52f0:	00880893          	add	a7,a6,8
    52f4:	25f8f063          	bgeu	a7,t6,5534 <core_list_init+0x290>
    52f8:	00d72023          	sw	a3,0(a4)
    52fc:	00c72623          	sw	a2,12(a4)
    5300:	00072423          	sw	zero,8(a4)
    5304:	fff7c793          	not	a5,a5
    5308:	00068593          	mv	a1,a3
    530c:	fff00693          	li	a3,-1
    5310:	00d81223          	sh	a3,4(a6)
    5314:	00f81323          	sh	a5,6(a6)
    5318:	00088613          	mv	a2,a7
    531c:	00050693          	mv	a3,a0
    5320:	06030a63          	beqz	t1,5394 <core_list_init+0xf0>
    5324:	010f1393          	sll	t2,t5,0x10
    5328:	ffff82b7          	lui	t0,0xffff8
    532c:	0103d393          	srl	t2,t2,0x10
    5330:	00000513          	li	a0,0
    5334:	fff2c293          	not	t0,t0
    5338:	00868e13          	add	t3,a3,8
    533c:	050e7c63          	bgeu	t3,a6,5394 <core_list_init+0xf0>
    5340:	00460e93          	add	t4,a2,4
    5344:	05fef463          	bgeu	t4,t6,538c <core_list_init+0xe8>
    5348:	01051893          	sll	a7,a0,0x10
    534c:	0108d893          	srl	a7,a7,0x10
    5350:	0078c7b3          	xor	a5,a7,t2
    5354:	00379793          	sll	a5,a5,0x3
    5358:	0787f793          	and	a5,a5,120
    535c:	0078f893          	and	a7,a7,7
    5360:	00b6a023          	sw	a1,0(a3)
    5364:	0117e7b3          	or	a5,a5,a7
    5368:	00d72023          	sw	a3,0(a4)
    536c:	00879593          	sll	a1,a5,0x8
    5370:	00c6a223          	sw	a2,4(a3)
    5374:	00f5e7b3          	or	a5,a1,a5
    5378:	00f61023          	sh	a5,0(a2)
    537c:	00561123          	sh	t0,2(a2)
    5380:	00068593          	mv	a1,a3
    5384:	000e8613          	mv	a2,t4
    5388:	000e0693          	mv	a3,t3
    538c:	00150513          	add	a0,a0,1
    5390:	faa314e3          	bne	t1,a0,5338 <core_list_init+0x94>
    5394:	0005a603          	lw	a2,0(a1)
    5398:	06060c63          	beqz	a2,5410 <core_list_init+0x16c>
    539c:	00500893          	li	a7,5
    53a0:	031358b3          	divu	a7,t1,a7
    53a4:	00004337          	lui	t1,0x4
    53a8:	20000793          	li	a5,512
    53ac:	00100693          	li	a3,1
    53b0:	fff30313          	add	t1,t1,-1 # 3fff <_entry+0x3fff>
    53b4:	0280006f          	j	53dc <core_list_init+0x138>
    53b8:	00062503          	lw	a0,0(a2)
    53bc:	10078793          	add	a5,a5,256
    53c0:	00d81123          	sh	a3,2(a6)
    53c4:	01079793          	sll	a5,a5,0x10
    53c8:	00168693          	add	a3,a3,1
    53cc:	0107d793          	srl	a5,a5,0x10
    53d0:	04050063          	beqz	a0,5410 <core_list_init+0x16c>
    53d4:	00060593          	mv	a1,a2
    53d8:	00050613          	mv	a2,a0
    53dc:	0045a803          	lw	a6,4(a1)
    53e0:	fd16ece3          	bltu	a3,a7,53b8 <core_list_init+0x114>
    53e4:	7007f513          	and	a0,a5,1792
    53e8:	00df45b3          	xor	a1,t5,a3
    53ec:	00a5e5b3          	or	a1,a1,a0
    53f0:	00062503          	lw	a0,0(a2)
    53f4:	0065f5b3          	and	a1,a1,t1
    53f8:	10078793          	add	a5,a5,256
    53fc:	01079793          	sll	a5,a5,0x10
    5400:	00b81123          	sh	a1,2(a6)
    5404:	00168693          	add	a3,a3,1
    5408:	0107d793          	srl	a5,a5,0x10
    540c:	fc0514e3          	bnez	a0,53d4 <core_list_init+0x130>
    5410:	00100f93          	li	t6,1
    5414:	00000813          	li	a6,0
    5418:	00000513          	li	a0,0
    541c:	00000293          	li	t0,0
    5420:	00100393          	li	t2,1
    5424:	00128293          	add	t0,t0,1 # ffff8001 <start_time_val+0xfffee975>
    5428:	00070793          	mv	a5,a4
    542c:	00000693          	li	a3,0
    5430:	0007a783          	lw	a5,0(a5)
    5434:	00168693          	add	a3,a3,1
    5438:	00078463          	beqz	a5,5440 <core_list_init+0x19c>
    543c:	fff69ae3          	bne	a3,t6,5430 <core_list_init+0x18c>
    5440:	000f8593          	mv	a1,t6
    5444:	02d05263          	blez	a3,5468 <core_list_init+0x1c4>
    5448:	04059463          	bnez	a1,5490 <core_list_init+0x1ec>
    544c:	00072603          	lw	a2,0(a4)
    5450:	fff68693          	add	a3,a3,-1
    5454:	02080a63          	beqz	a6,5488 <core_list_init+0x1e4>
    5458:	00e82023          	sw	a4,0(a6)
    545c:	00070813          	mv	a6,a4
    5460:	00060713          	mv	a4,a2
    5464:	fed042e3          	bgtz	a3,5448 <core_list_init+0x1a4>
    5468:	08b05663          	blez	a1,54f4 <core_list_init+0x250>
    546c:	08078a63          	beqz	a5,5500 <core_list_init+0x25c>
    5470:	02069263          	bnez	a3,5494 <core_list_init+0x1f0>
    5474:	00070613          	mv	a2,a4
    5478:	fff58593          	add	a1,a1,-1
    547c:	00078713          	mv	a4,a5
    5480:	0007a783          	lw	a5,0(a5)
    5484:	fc081ae3          	bnez	a6,5458 <core_list_init+0x1b4>
    5488:	00070513          	mv	a0,a4
    548c:	fd1ff06f          	j	545c <core_list_init+0x1b8>
    5490:	fa078ee3          	beqz	a5,544c <core_list_init+0x1a8>
    5494:	00472303          	lw	t1,4(a4)
    5498:	0047a883          	lw	a7,4(a5)
    549c:	00031603          	lh	a2,0(t1)
    54a0:	00289e83          	lh	t4,2(a7)
    54a4:	00231f03          	lh	t5,2(t1)
    54a8:	01061e13          	sll	t3,a2,0x10
    54ac:	010e5e13          	srl	t3,t3,0x10
    54b0:	f0067613          	and	a2,a2,-256
    54b4:	008e5e13          	srl	t3,t3,0x8
    54b8:	01c66633          	or	a2,a2,t3
    54bc:	00c31023          	sh	a2,0(t1)
    54c0:	00089603          	lh	a2,0(a7)
    54c4:	01061313          	sll	t1,a2,0x10
    54c8:	01035313          	srl	t1,t1,0x10
    54cc:	f0067613          	and	a2,a2,-256
    54d0:	00835313          	srl	t1,t1,0x8
    54d4:	00666633          	or	a2,a2,t1
    54d8:	00c89023          	sh	a2,0(a7)
    54dc:	f7eed8e3          	bge	t4,t5,544c <core_list_init+0x1a8>
    54e0:	00070613          	mv	a2,a4
    54e4:	fff58593          	add	a1,a1,-1
    54e8:	00078713          	mv	a4,a5
    54ec:	0007a783          	lw	a5,0(a5)
    54f0:	f65ff06f          	j	5454 <core_list_init+0x1b0>
    54f4:	00078663          	beqz	a5,5500 <core_list_init+0x25c>
    54f8:	00078713          	mv	a4,a5
    54fc:	f29ff06f          	j	5424 <core_list_init+0x180>
    5500:	00082023          	sw	zero,0(a6)
    5504:	02728263          	beq	t0,t2,5528 <core_list_init+0x284>
    5508:	001f9f93          	sll	t6,t6,0x1
    550c:	02050063          	beqz	a0,552c <core_list_init+0x288>
    5510:	00050793          	mv	a5,a0
    5514:	00000813          	li	a6,0
    5518:	00000513          	li	a0,0
    551c:	00000293          	li	t0,0
    5520:	00078713          	mv	a4,a5
    5524:	f01ff06f          	j	5424 <core_list_init+0x180>
    5528:	00008067          	ret
    552c:	00002023          	sw	zero,0(zero) # 0 <_entry>
    5530:	00100073          	ebreak
    5534:	00000593          	li	a1,0
    5538:	de9ff06f          	j	5320 <core_list_init+0x7c>

0000553c <core_list_insert_new>:
    553c:	00062803          	lw	a6,0(a2)
    5540:	00880893          	add	a7,a6,8
    5544:	04e8f663          	bgeu	a7,a4,5590 <core_list_insert_new+0x54>
    5548:	0006a703          	lw	a4,0(a3)
    554c:	00470313          	add	t1,a4,4
    5550:	04f37063          	bgeu	t1,a5,5590 <core_list_insert_new+0x54>
    5554:	01162023          	sw	a7,0(a2)
    5558:	00052783          	lw	a5,0(a0)
    555c:	00059883          	lh	a7,0(a1)
    5560:	00259603          	lh	a2,2(a1)
    5564:	00f82023          	sw	a5,0(a6)
    5568:	01052023          	sw	a6,0(a0)
    556c:	00e82223          	sw	a4,4(a6)
    5570:	0006a783          	lw	a5,0(a3)
    5574:	00080513          	mv	a0,a6
    5578:	00478793          	add	a5,a5,4
    557c:	00f6a023          	sw	a5,0(a3)
    5580:	00482783          	lw	a5,4(a6)
    5584:	01179023          	sh	a7,0(a5)
    5588:	00c79123          	sh	a2,2(a5)
    558c:	00008067          	ret
    5590:	00000813          	li	a6,0
    5594:	00080513          	mv	a0,a6
    5598:	00008067          	ret

0000559c <core_list_remove>:
    559c:	00050793          	mv	a5,a0
    55a0:	00052503          	lw	a0,0(a0)
    55a4:	0047a683          	lw	a3,4(a5)
    55a8:	00452603          	lw	a2,4(a0)
    55ac:	00052703          	lw	a4,0(a0)
    55b0:	00c7a223          	sw	a2,4(a5)
    55b4:	00d52223          	sw	a3,4(a0)
    55b8:	00e7a023          	sw	a4,0(a5)
    55bc:	00052023          	sw	zero,0(a0)
    55c0:	00008067          	ret

000055c4 <core_list_undo_remove>:
    55c4:	0045a603          	lw	a2,4(a1)
    55c8:	00452683          	lw	a3,4(a0)
    55cc:	0005a703          	lw	a4,0(a1)
    55d0:	00c52223          	sw	a2,4(a0)
    55d4:	00d5a223          	sw	a3,4(a1)
    55d8:	00e52023          	sw	a4,0(a0)
    55dc:	00a5a023          	sw	a0,0(a1)
    55e0:	00008067          	ret

000055e4 <core_list_find>:
    55e4:	00259703          	lh	a4,2(a1)
    55e8:	02074263          	bltz	a4,560c <core_list_find+0x28>
    55ec:	00051863          	bnez	a0,55fc <core_list_find+0x18>
    55f0:	0480006f          	j	5638 <core_list_find+0x54>
    55f4:	00052503          	lw	a0,0(a0)
    55f8:	02050c63          	beqz	a0,5630 <core_list_find+0x4c>
    55fc:	00452783          	lw	a5,4(a0)
    5600:	00279783          	lh	a5,2(a5)
    5604:	fee798e3          	bne	a5,a4,55f4 <core_list_find+0x10>
    5608:	00008067          	ret
    560c:	02050263          	beqz	a0,5630 <core_list_find+0x4c>
    5610:	00059703          	lh	a4,0(a1)
    5614:	00c0006f          	j	5620 <core_list_find+0x3c>
    5618:	00052503          	lw	a0,0(a0)
    561c:	00050c63          	beqz	a0,5634 <core_list_find+0x50>
    5620:	00452783          	lw	a5,4(a0)
    5624:	0007c783          	lbu	a5,0(a5)
    5628:	fee798e3          	bne	a5,a4,5618 <core_list_find+0x34>
    562c:	00008067          	ret
    5630:	00000513          	li	a0,0
    5634:	00008067          	ret
    5638:	00008067          	ret

0000563c <core_list_reverse>:
    563c:	02050063          	beqz	a0,565c <core_list_reverse+0x20>
    5640:	00000713          	li	a4,0
    5644:	0080006f          	j	564c <core_list_reverse+0x10>
    5648:	00078513          	mv	a0,a5
    564c:	00052783          	lw	a5,0(a0)
    5650:	00e52023          	sw	a4,0(a0)
    5654:	00050713          	mv	a4,a0
    5658:	fe0798e3          	bnez	a5,5648 <core_list_reverse+0xc>
    565c:	00008067          	ret

00005660 <core_list_mergesort>:
    5660:	fd010113          	add	sp,sp,-48
    5664:	01312e23          	sw	s3,28(sp)
    5668:	01512a23          	sw	s5,20(sp)
    566c:	01712623          	sw	s7,12(sp)
    5670:	01812423          	sw	s8,8(sp)
    5674:	01a12023          	sw	s10,0(sp)
    5678:	02112623          	sw	ra,44(sp)
    567c:	02812423          	sw	s0,40(sp)
    5680:	02912223          	sw	s1,36(sp)
    5684:	03212023          	sw	s2,32(sp)
    5688:	01412c23          	sw	s4,24(sp)
    568c:	01612823          	sw	s6,16(sp)
    5690:	01912223          	sw	s9,4(sp)
    5694:	00050993          	mv	s3,a0
    5698:	00058c13          	mv	s8,a1
    569c:	00060b93          	mv	s7,a2
    56a0:	00100a93          	li	s5,1
    56a4:	00100d13          	li	s10,1
    56a8:	0c098263          	beqz	s3,576c <core_list_mergesort+0x10c>
    56ac:	00000c93          	li	s9,0
    56b0:	00000493          	li	s1,0
    56b4:	00000b13          	li	s6,0
    56b8:	001c8c93          	add	s9,s9,1
    56bc:	00098793          	mv	a5,s3
    56c0:	00000413          	li	s0,0
    56c4:	0007a783          	lw	a5,0(a5)
    56c8:	00140413          	add	s0,s0,1
    56cc:	00078463          	beqz	a5,56d4 <core_list_mergesort+0x74>
    56d0:	fe8a9ae3          	bne	s5,s0,56c4 <core_list_mergesort+0x64>
    56d4:	00098913          	mv	s2,s3
    56d8:	000a8a13          	mv	s4,s5
    56dc:	00078993          	mv	s3,a5
    56e0:	02805263          	blez	s0,5704 <core_list_mergesort+0xa4>
    56e4:	040a1463          	bnez	s4,572c <core_list_mergesort+0xcc>
    56e8:	00090793          	mv	a5,s2
    56ec:	00092903          	lw	s2,0(s2)
    56f0:	fff40413          	add	s0,s0,-1
    56f4:	02048663          	beqz	s1,5720 <core_list_mergesort+0xc0>
    56f8:	00f4a023          	sw	a5,0(s1)
    56fc:	00078493          	mv	s1,a5
    5700:	fe8042e3          	bgtz	s0,56e4 <core_list_mergesort+0x84>
    5704:	05405863          	blez	s4,5754 <core_list_mergesort+0xf4>
    5708:	04098863          	beqz	s3,5758 <core_list_mergesort+0xf8>
    570c:	02041263          	bnez	s0,5730 <core_list_mergesort+0xd0>
    5710:	00098793          	mv	a5,s3
    5714:	fffa0a13          	add	s4,s4,-1
    5718:	0009a983          	lw	s3,0(s3)
    571c:	fc049ee3          	bnez	s1,56f8 <core_list_mergesort+0x98>
    5720:	00078b13          	mv	s6,a5
    5724:	00078493          	mv	s1,a5
    5728:	fd9ff06f          	j	5700 <core_list_mergesort+0xa0>
    572c:	fa098ee3          	beqz	s3,56e8 <core_list_mergesort+0x88>
    5730:	0049a583          	lw	a1,4(s3)
    5734:	00492503          	lw	a0,4(s2)
    5738:	000b8613          	mv	a2,s7
    573c:	000c00e7          	jalr	s8
    5740:	faa054e3          	blez	a0,56e8 <core_list_mergesort+0x88>
    5744:	00098793          	mv	a5,s3
    5748:	fffa0a13          	add	s4,s4,-1
    574c:	0009a983          	lw	s3,0(s3)
    5750:	fa5ff06f          	j	56f4 <core_list_mergesort+0x94>
    5754:	f60992e3          	bnez	s3,56b8 <core_list_mergesort+0x58>
    5758:	0004a023          	sw	zero,0(s1)
    575c:	01ac8c63          	beq	s9,s10,5774 <core_list_mergesort+0x114>
    5760:	000b0993          	mv	s3,s6
    5764:	001a9a93          	sll	s5,s5,0x1
    5768:	f40992e3          	bnez	s3,56ac <core_list_mergesort+0x4c>
    576c:	00002023          	sw	zero,0(zero) # 0 <_entry>
    5770:	00100073          	ebreak
    5774:	02c12083          	lw	ra,44(sp)
    5778:	02812403          	lw	s0,40(sp)
    577c:	02412483          	lw	s1,36(sp)
    5780:	02012903          	lw	s2,32(sp)
    5784:	01c12983          	lw	s3,28(sp)
    5788:	01812a03          	lw	s4,24(sp)
    578c:	01412a83          	lw	s5,20(sp)
    5790:	00c12b83          	lw	s7,12(sp)
    5794:	00812c03          	lw	s8,8(sp)
    5798:	00412c83          	lw	s9,4(sp)
    579c:	00012d03          	lw	s10,0(sp)
    57a0:	000b0513          	mv	a0,s6
    57a4:	01012b03          	lw	s6,16(sp)
    57a8:	03010113          	add	sp,sp,48
    57ac:	00008067          	ret

000057b0 <iterate>:
    57b0:	ff010113          	add	sp,sp,-16
    57b4:	01212023          	sw	s2,0(sp)
    57b8:	01c52903          	lw	s2,28(a0)
    57bc:	00112623          	sw	ra,12(sp)
    57c0:	00812423          	sw	s0,8(sp)
    57c4:	00912223          	sw	s1,4(sp)
    57c8:	02052c23          	sw	zero,56(a0)
    57cc:	02052e23          	sw	zero,60(a0)
    57d0:	04090463          	beqz	s2,5818 <iterate+0x68>
    57d4:	00050413          	mv	s0,a0
    57d8:	00000493          	li	s1,0
    57dc:	00100593          	li	a1,1
    57e0:	00040513          	mv	a0,s0
    57e4:	e14ff0ef          	jal	4df8 <core_bench_list>
    57e8:	03845583          	lhu	a1,56(s0)
    57ec:	308010ef          	jal	6af4 <crcu16>
    57f0:	02a41c23          	sh	a0,56(s0)
    57f4:	fff00593          	li	a1,-1
    57f8:	00040513          	mv	a0,s0
    57fc:	dfcff0ef          	jal	4df8 <core_bench_list>
    5800:	03845583          	lhu	a1,56(s0)
    5804:	2f0010ef          	jal	6af4 <crcu16>
    5808:	02a41c23          	sh	a0,56(s0)
    580c:	02048463          	beqz	s1,5834 <iterate+0x84>
    5810:	00148493          	add	s1,s1,1
    5814:	fc9914e3          	bne	s2,s1,57dc <iterate+0x2c>
    5818:	00c12083          	lw	ra,12(sp)
    581c:	00812403          	lw	s0,8(sp)
    5820:	00412483          	lw	s1,4(sp)
    5824:	00012903          	lw	s2,0(sp)
    5828:	00000513          	li	a0,0
    582c:	01010113          	add	sp,sp,16
    5830:	00008067          	ret
    5834:	02a41d23          	sh	a0,58(s0)
    5838:	00100793          	li	a5,1
    583c:	fcf90ee3          	beq	s2,a5,5818 <iterate+0x68>
    5840:	00100493          	li	s1,1
    5844:	f99ff06f          	j	57dc <iterate+0x2c>

00005848 <matrix_test>:
    5848:	fd010113          	add	sp,sp,-48
    584c:	02112623          	sw	ra,44(sp)
    5850:	02812423          	sw	s0,40(sp)
    5854:	02912223          	sw	s1,36(sp)
    5858:	03212023          	sw	s2,32(sp)
    585c:	01312e23          	sw	s3,28(sp)
    5860:	01412c23          	sw	s4,24(sp)
    5864:	01512a23          	sw	s5,20(sp)
    5868:	01612823          	sw	s6,16(sp)
    586c:	01712623          	sw	s7,12(sp)
    5870:	01812423          	sw	s8,8(sp)
    5874:	48050263          	beqz	a0,5cf8 <matrix_test+0x4b0>
    5878:	00151493          	sll	s1,a0,0x1
    587c:	00060b93          	mv	s7,a2
    5880:	40a00a33          	neg	s4,a0
    5884:	00960633          	add	a2,a2,s1
    5888:	01071993          	sll	s3,a4,0x10
    588c:	00068b13          	mv	s6,a3
    5890:	00050893          	mv	a7,a0
    5894:	00058a93          	mv	s5,a1
    5898:	00070913          	mv	s2,a4
    589c:	0109d993          	srl	s3,s3,0x10
    58a0:	00060693          	mv	a3,a2
    58a4:	00000813          	li	a6,0
    58a8:	002a1a13          	sll	s4,s4,0x2
    58ac:	409685b3          	sub	a1,a3,s1
    58b0:	00058793          	mv	a5,a1
    58b4:	0007d703          	lhu	a4,0(a5)
    58b8:	00278793          	add	a5,a5,2
    58bc:	00e98733          	add	a4,s3,a4
    58c0:	fee79f23          	sh	a4,-2(a5)
    58c4:	fed798e3          	bne	a5,a3,58b4 <matrix_test+0x6c>
    58c8:	00180413          	add	s0,a6,1
    58cc:	414586b3          	sub	a3,a1,s4
    58d0:	00888663          	beq	a7,s0,58dc <matrix_test+0x94>
    58d4:	00040813          	mv	a6,s0
    58d8:	fd5ff06f          	j	58ac <matrix_test+0x64>
    58dc:	00000593          	li	a1,0
    58e0:	00000893          	li	a7,0
    58e4:	40960533          	sub	a0,a2,s1
    58e8:	00259693          	sll	a3,a1,0x2
    58ec:	015686b3          	add	a3,a3,s5
    58f0:	00050793          	mv	a5,a0
    58f4:	00079703          	lh	a4,0(a5)
    58f8:	00468693          	add	a3,a3,4
    58fc:	00278793          	add	a5,a5,2
    5900:	03270733          	mul	a4,a4,s2
    5904:	fee6ae23          	sw	a4,-4(a3)
    5908:	fec796e3          	bne	a5,a2,58f4 <matrix_test+0xac>
    590c:	00188793          	add	a5,a7,1
    5910:	008585b3          	add	a1,a1,s0
    5914:	41450633          	sub	a2,a0,s4
    5918:	01088663          	beq	a7,a6,5924 <matrix_test+0xdc>
    591c:	00078893          	mv	a7,a5
    5920:	fc5ff06f          	j	58e4 <matrix_test+0x9c>
    5924:	414a8c33          	sub	s8,s5,s4
    5928:	40800eb3          	neg	t4,s0
    592c:	fffff7b7          	lui	a5,0xfffff
    5930:	00f96933          	or	s2,s2,a5
    5934:	000c0893          	mv	a7,s8
    5938:	00000513          	li	a0,0
    593c:	00000713          	li	a4,0
    5940:	00000613          	li	a2,0
    5944:	00000e13          	li	t3,0
    5948:	003e9e93          	sll	t4,t4,0x3
    594c:	01488333          	add	t1,a7,s4
    5950:	00030793          	mv	a5,t1
    5954:	0140006f          	j	5968 <matrix_test+0x120>
    5958:	01051513          	sll	a0,a0,0x10
    595c:	00478793          	add	a5,a5,4 # fffff004 <start_time_val+0xffff5978>
    5960:	41055513          	sra	a0,a0,0x10
    5964:	03178e63          	beq	a5,a7,59a0 <matrix_test+0x158>
    5968:	00070693          	mv	a3,a4
    596c:	0007a703          	lw	a4,0(a5)
    5970:	01051513          	sll	a0,a0,0x10
    5974:	01055513          	srl	a0,a0,0x10
    5978:	00e6a6b3          	slt	a3,a3,a4
    597c:	00e60633          	add	a2,a2,a4
    5980:	00a50593          	add	a1,a0,10
    5984:	00d50533          	add	a0,a0,a3
    5988:	fcc958e3          	bge	s2,a2,5958 <matrix_test+0x110>
    598c:	01059513          	sll	a0,a1,0x10
    5990:	00478793          	add	a5,a5,4
    5994:	41055513          	sra	a0,a0,0x10
    5998:	00000613          	li	a2,0
    599c:	fd1796e3          	bne	a5,a7,5968 <matrix_test+0x120>
    59a0:	001e0793          	add	a5,t3,1
    59a4:	41d308b3          	sub	a7,t1,t4
    59a8:	01c80663          	beq	a6,t3,59b4 <matrix_test+0x16c>
    59ac:	00078e13          	mv	t3,a5
    59b0:	f9dff06f          	j	594c <matrix_test+0x104>
    59b4:	00000593          	li	a1,0
    59b8:	0d1010ef          	jal	7288 <crc16>
    59bc:	00050593          	mv	a1,a0
    59c0:	009b0833          	add	a6,s6,s1
    59c4:	000a8893          	mv	a7,s5
    59c8:	00000313          	li	t1,0
    59cc:	00131693          	sll	a3,t1,0x1
    59d0:	00db86b3          	add	a3,s7,a3
    59d4:	000b0793          	mv	a5,s6
    59d8:	00000613          	li	a2,0
    59dc:	00069703          	lh	a4,0(a3)
    59e0:	00079503          	lh	a0,0(a5)
    59e4:	00278793          	add	a5,a5,2
    59e8:	00268693          	add	a3,a3,2
    59ec:	02a70733          	mul	a4,a4,a0
    59f0:	00e60633          	add	a2,a2,a4
    59f4:	ff0794e3          	bne	a5,a6,59dc <matrix_test+0x194>
    59f8:	00c8a023          	sw	a2,0(a7)
    59fc:	00488893          	add	a7,a7,4
    5a00:	00830333          	add	t1,t1,s0
    5a04:	fd8894e3          	bne	a7,s8,59cc <matrix_test+0x184>
    5a08:	00000313          	li	t1,0
    5a0c:	00000513          	li	a0,0
    5a10:	00000793          	li	a5,0
    5a14:	00000693          	li	a3,0
    5a18:	00000e13          	li	t3,0
    5a1c:	00231613          	sll	a2,t1,0x2
    5a20:	00ca8633          	add	a2,s5,a2
    5a24:	00000813          	li	a6,0
    5a28:	0180006f          	j	5a40 <matrix_test+0x1f8>
    5a2c:	01051513          	sll	a0,a0,0x10
    5a30:	00180813          	add	a6,a6,1
    5a34:	41055513          	sra	a0,a0,0x10
    5a38:	00460613          	add	a2,a2,4
    5a3c:	04887063          	bgeu	a6,s0,5a7c <matrix_test+0x234>
    5a40:	00078713          	mv	a4,a5
    5a44:	00062783          	lw	a5,0(a2)
    5a48:	01051513          	sll	a0,a0,0x10
    5a4c:	01055513          	srl	a0,a0,0x10
    5a50:	00f72733          	slt	a4,a4,a5
    5a54:	00f686b3          	add	a3,a3,a5
    5a58:	00a50893          	add	a7,a0,10
    5a5c:	00e50533          	add	a0,a0,a4
    5a60:	fcd956e3          	bge	s2,a3,5a2c <matrix_test+0x1e4>
    5a64:	01089513          	sll	a0,a7,0x10
    5a68:	00180813          	add	a6,a6,1
    5a6c:	41055513          	sra	a0,a0,0x10
    5a70:	00000693          	li	a3,0
    5a74:	00460613          	add	a2,a2,4
    5a78:	fc8864e3          	bltu	a6,s0,5a40 <matrix_test+0x1f8>
    5a7c:	001e0e13          	add	t3,t3,1
    5a80:	00830333          	add	t1,t1,s0
    5a84:	f88e6ce3          	bltu	t3,s0,5a1c <matrix_test+0x1d4>
    5a88:	001010ef          	jal	7288 <crc16>
    5a8c:	00050593          	mv	a1,a0
    5a90:	000a8f13          	mv	t5,s5
    5a94:	000b8e93          	mv	t4,s7
    5a98:	00000f93          	li	t6,0
    5a9c:	000b0893          	mv	a7,s6
    5aa0:	000f0e13          	mv	t3,t5
    5aa4:	00000313          	li	t1,0
    5aa8:	00088613          	mv	a2,a7
    5aac:	000e8693          	mv	a3,t4
    5ab0:	00000513          	li	a0,0
    5ab4:	00000713          	li	a4,0
    5ab8:	00069783          	lh	a5,0(a3)
    5abc:	00061803          	lh	a6,0(a2)
    5ac0:	00170713          	add	a4,a4,1
    5ac4:	00268693          	add	a3,a3,2
    5ac8:	030787b3          	mul	a5,a5,a6
    5acc:	00960633          	add	a2,a2,s1
    5ad0:	00f50533          	add	a0,a0,a5
    5ad4:	fe8762e3          	bltu	a4,s0,5ab8 <matrix_test+0x270>
    5ad8:	00ae2023          	sw	a0,0(t3)
    5adc:	00130313          	add	t1,t1,1
    5ae0:	004e0e13          	add	t3,t3,4
    5ae4:	00288893          	add	a7,a7,2
    5ae8:	fc8360e3          	bltu	t1,s0,5aa8 <matrix_test+0x260>
    5aec:	001f8f93          	add	t6,t6,1
    5af0:	009e8eb3          	add	t4,t4,s1
    5af4:	414f0f33          	sub	t5,t5,s4
    5af8:	fa8fe2e3          	bltu	t6,s0,5a9c <matrix_test+0x254>
    5afc:	00000313          	li	t1,0
    5b00:	00000513          	li	a0,0
    5b04:	00000793          	li	a5,0
    5b08:	00000693          	li	a3,0
    5b0c:	00000e13          	li	t3,0
    5b10:	00231613          	sll	a2,t1,0x2
    5b14:	00ca8633          	add	a2,s5,a2
    5b18:	00000813          	li	a6,0
    5b1c:	0180006f          	j	5b34 <matrix_test+0x2ec>
    5b20:	01051513          	sll	a0,a0,0x10
    5b24:	00180813          	add	a6,a6,1
    5b28:	41055513          	sra	a0,a0,0x10
    5b2c:	00460613          	add	a2,a2,4
    5b30:	04887063          	bgeu	a6,s0,5b70 <matrix_test+0x328>
    5b34:	00078713          	mv	a4,a5
    5b38:	00062783          	lw	a5,0(a2)
    5b3c:	01051513          	sll	a0,a0,0x10
    5b40:	01055513          	srl	a0,a0,0x10
    5b44:	00f72733          	slt	a4,a4,a5
    5b48:	00f686b3          	add	a3,a3,a5
    5b4c:	00a50893          	add	a7,a0,10
    5b50:	00e50533          	add	a0,a0,a4
    5b54:	fcd956e3          	bge	s2,a3,5b20 <matrix_test+0x2d8>
    5b58:	01089513          	sll	a0,a7,0x10
    5b5c:	00180813          	add	a6,a6,1
    5b60:	41055513          	sra	a0,a0,0x10
    5b64:	00000693          	li	a3,0
    5b68:	00460613          	add	a2,a2,4
    5b6c:	fc8864e3          	bltu	a6,s0,5b34 <matrix_test+0x2ec>
    5b70:	001e0e13          	add	t3,t3,1
    5b74:	00830333          	add	t1,t1,s0
    5b78:	f88e6ce3          	bltu	t3,s0,5b10 <matrix_test+0x2c8>
    5b7c:	70c010ef          	jal	7288 <crc16>
    5b80:	00050593          	mv	a1,a0
    5b84:	000a8f13          	mv	t5,s5
    5b88:	000b8e93          	mv	t4,s7
    5b8c:	00000f93          	li	t6,0
    5b90:	000b0893          	mv	a7,s6
    5b94:	000f0e13          	mv	t3,t5
    5b98:	00000313          	li	t1,0
    5b9c:	00088513          	mv	a0,a7
    5ba0:	000e8613          	mv	a2,t4
    5ba4:	00000813          	li	a6,0
    5ba8:	00000693          	li	a3,0
    5bac:	00051703          	lh	a4,0(a0)
    5bb0:	00061783          	lh	a5,0(a2)
    5bb4:	00168693          	add	a3,a3,1
    5bb8:	00260613          	add	a2,a2,2
    5bbc:	02e787b3          	mul	a5,a5,a4
    5bc0:	00950533          	add	a0,a0,s1
    5bc4:	4027d713          	sra	a4,a5,0x2
    5bc8:	4057d793          	sra	a5,a5,0x5
    5bcc:	00f77713          	and	a4,a4,15
    5bd0:	07f7f793          	and	a5,a5,127
    5bd4:	02f707b3          	mul	a5,a4,a5
    5bd8:	00f80833          	add	a6,a6,a5
    5bdc:	fc86e8e3          	bltu	a3,s0,5bac <matrix_test+0x364>
    5be0:	010e2023          	sw	a6,0(t3)
    5be4:	00130313          	add	t1,t1,1
    5be8:	004e0e13          	add	t3,t3,4
    5bec:	00288893          	add	a7,a7,2
    5bf0:	fa8366e3          	bltu	t1,s0,5b9c <matrix_test+0x354>
    5bf4:	001f8f93          	add	t6,t6,1
    5bf8:	009e8eb3          	add	t4,t4,s1
    5bfc:	414f0f33          	sub	t5,t5,s4
    5c00:	f88fe8e3          	bltu	t6,s0,5b90 <matrix_test+0x348>
    5c04:	00000313          	li	t1,0
    5c08:	00000513          	li	a0,0
    5c0c:	00000793          	li	a5,0
    5c10:	00000693          	li	a3,0
    5c14:	00000e13          	li	t3,0
    5c18:	00231613          	sll	a2,t1,0x2
    5c1c:	00ca8633          	add	a2,s5,a2
    5c20:	00000813          	li	a6,0
    5c24:	0180006f          	j	5c3c <matrix_test+0x3f4>
    5c28:	01051513          	sll	a0,a0,0x10
    5c2c:	00180813          	add	a6,a6,1
    5c30:	41055513          	sra	a0,a0,0x10
    5c34:	00460613          	add	a2,a2,4
    5c38:	04887063          	bgeu	a6,s0,5c78 <matrix_test+0x430>
    5c3c:	00078713          	mv	a4,a5
    5c40:	00062783          	lw	a5,0(a2)
    5c44:	01051513          	sll	a0,a0,0x10
    5c48:	01055513          	srl	a0,a0,0x10
    5c4c:	00f72733          	slt	a4,a4,a5
    5c50:	00f686b3          	add	a3,a3,a5
    5c54:	00a50893          	add	a7,a0,10
    5c58:	00e50533          	add	a0,a0,a4
    5c5c:	fcd956e3          	bge	s2,a3,5c28 <matrix_test+0x3e0>
    5c60:	01089513          	sll	a0,a7,0x10
    5c64:	00180813          	add	a6,a6,1
    5c68:	41055513          	sra	a0,a0,0x10
    5c6c:	00000693          	li	a3,0
    5c70:	00460613          	add	a2,a2,4
    5c74:	fc8864e3          	bltu	a6,s0,5c3c <matrix_test+0x3f4>
    5c78:	001e0e13          	add	t3,t3,1
    5c7c:	00830333          	add	t1,t1,s0
    5c80:	f88e6ce3          	bltu	t3,s0,5c18 <matrix_test+0x3d0>
    5c84:	604010ef          	jal	7288 <crc16>
    5c88:	00000613          	li	a2,0
    5c8c:	00000593          	li	a1,0
    5c90:	00161793          	sll	a5,a2,0x1
    5c94:	00fb87b3          	add	a5,s7,a5
    5c98:	00000693          	li	a3,0
    5c9c:	0007d703          	lhu	a4,0(a5)
    5ca0:	00278793          	add	a5,a5,2
    5ca4:	00168693          	add	a3,a3,1
    5ca8:	41370733          	sub	a4,a4,s3
    5cac:	fee79f23          	sh	a4,-2(a5)
    5cb0:	fe86e6e3          	bltu	a3,s0,5c9c <matrix_test+0x454>
    5cb4:	00158593          	add	a1,a1,1
    5cb8:	00860633          	add	a2,a2,s0
    5cbc:	fc85eae3          	bltu	a1,s0,5c90 <matrix_test+0x448>
    5cc0:	02c12083          	lw	ra,44(sp)
    5cc4:	02812403          	lw	s0,40(sp)
    5cc8:	01051513          	sll	a0,a0,0x10
    5ccc:	02412483          	lw	s1,36(sp)
    5cd0:	02012903          	lw	s2,32(sp)
    5cd4:	01c12983          	lw	s3,28(sp)
    5cd8:	01812a03          	lw	s4,24(sp)
    5cdc:	01412a83          	lw	s5,20(sp)
    5ce0:	01012b03          	lw	s6,16(sp)
    5ce4:	00c12b83          	lw	s7,12(sp)
    5ce8:	00812c03          	lw	s8,8(sp)
    5cec:	41055513          	sra	a0,a0,0x10
    5cf0:	03010113          	add	sp,sp,48
    5cf4:	00008067          	ret
    5cf8:	00000593          	li	a1,0
    5cfc:	58c010ef          	jal	7288 <crc16>
    5d00:	00050593          	mv	a1,a0
    5d04:	00000513          	li	a0,0
    5d08:	580010ef          	jal	7288 <crc16>
    5d0c:	00050593          	mv	a1,a0
    5d10:	00000513          	li	a0,0
    5d14:	574010ef          	jal	7288 <crc16>
    5d18:	00050593          	mv	a1,a0
    5d1c:	00000513          	li	a0,0
    5d20:	568010ef          	jal	7288 <crc16>
    5d24:	f9dff06f          	j	5cc0 <matrix_test+0x478>

00005d28 <core_bench_matrix>:
    5d28:	ff010113          	add	sp,sp,-16
    5d2c:	00812423          	sw	s0,8(sp)
    5d30:	00852683          	lw	a3,8(a0)
    5d34:	00060413          	mv	s0,a2
    5d38:	00058713          	mv	a4,a1
    5d3c:	00452603          	lw	a2,4(a0)
    5d40:	00c52583          	lw	a1,12(a0)
    5d44:	00052503          	lw	a0,0(a0)
    5d48:	00112623          	sw	ra,12(sp)
    5d4c:	afdff0ef          	jal	5848 <matrix_test>
    5d50:	00040593          	mv	a1,s0
    5d54:	00812403          	lw	s0,8(sp)
    5d58:	00c12083          	lw	ra,12(sp)
    5d5c:	01010113          	add	sp,sp,16
    5d60:	5280106f          	j	7288 <crc16>

00005d64 <core_init_matrix>:
    5d64:	ff010113          	add	sp,sp,-16
    5d68:	00812623          	sw	s0,12(sp)
    5d6c:	00912423          	sw	s1,8(sp)
    5d70:	01212223          	sw	s2,4(sp)
    5d74:	01312023          	sw	s3,0(sp)
    5d78:	00050813          	mv	a6,a0
    5d7c:	00061463          	bnez	a2,5d84 <core_init_matrix+0x20>
    5d80:	00100613          	li	a2,1
    5d84:	00000793          	li	a5,0
    5d88:	0e080e63          	beqz	a6,5e84 <core_init_matrix+0x120>
    5d8c:	00078513          	mv	a0,a5
    5d90:	00178793          	add	a5,a5,1
    5d94:	02f78733          	mul	a4,a5,a5
    5d98:	00371713          	sll	a4,a4,0x3
    5d9c:	ff0768e3          	bltu	a4,a6,5d8c <core_init_matrix+0x28>
    5da0:	02a502b3          	mul	t0,a0,a0
    5da4:	fff58593          	add	a1,a1,-1
    5da8:	ffc5f793          	and	a5,a1,-4
    5dac:	00478493          	add	s1,a5,4
    5db0:	00050913          	mv	s2,a0
    5db4:	00048e13          	mv	t3,s1
    5db8:	00129293          	sll	t0,t0,0x1
    5dbc:	005483b3          	add	t2,s1,t0
    5dc0:	08050663          	beqz	a0,5e4c <core_init_matrix+0xe8>
    5dc4:	00010eb7          	lui	t4,0x10
    5dc8:	00150313          	add	t1,a0,1
    5dcc:	00151413          	sll	s0,a0,0x1
    5dd0:	00038f13          	mv	t5,t2
    5dd4:	00000f93          	li	t6,0
    5dd8:	00100713          	li	a4,1
    5ddc:	407e0e33          	sub	t3,t3,t2
    5de0:	fffe8e93          	add	t4,t4,-1 # ffff <start_time_val+0x6973>
    5de4:	00070993          	mv	s3,a4
    5de8:	000f0813          	mv	a6,t5
    5dec:	02e60633          	mul	a2,a2,a4
    5df0:	01071793          	sll	a5,a4,0x10
    5df4:	0107d793          	srl	a5,a5,0x10
    5df8:	010e08b3          	add	a7,t3,a6
    5dfc:	00280813          	add	a6,a6,2
    5e00:	00170713          	add	a4,a4,1
    5e04:	41f65593          	sra	a1,a2,0x1f
    5e08:	0105d593          	srl	a1,a1,0x10
    5e0c:	00b60633          	add	a2,a2,a1
    5e10:	01d67633          	and	a2,a2,t4
    5e14:	40b60633          	sub	a2,a2,a1
    5e18:	00c785b3          	add	a1,a5,a2
    5e1c:	01059593          	sll	a1,a1,0x10
    5e20:	0105d593          	srl	a1,a1,0x10
    5e24:	00f587b3          	add	a5,a1,a5
    5e28:	feb81f23          	sh	a1,-2(a6)
    5e2c:	0ff7f793          	zext.b	a5,a5
    5e30:	00f89023          	sh	a5,0(a7)
    5e34:	fa671ce3          	bne	a4,t1,5dec <core_init_matrix+0x88>
    5e38:	001f8f93          	add	t6,t6,1
    5e3c:	01350733          	add	a4,a0,s3
    5e40:	00a30333          	add	t1,t1,a0
    5e44:	008f0f33          	add	t5,t5,s0
    5e48:	f8af9ee3          	bne	t6,a0,5de4 <core_init_matrix+0x80>
    5e4c:	005387b3          	add	a5,t2,t0
    5e50:	fff78793          	add	a5,a5,-1
    5e54:	00c12403          	lw	s0,12(sp)
    5e58:	ffc7f793          	and	a5,a5,-4
    5e5c:	00478793          	add	a5,a5,4
    5e60:	0096a223          	sw	s1,4(a3)
    5e64:	0126a023          	sw	s2,0(a3)
    5e68:	0076a423          	sw	t2,8(a3)
    5e6c:	00f6a623          	sw	a5,12(a3)
    5e70:	00812483          	lw	s1,8(sp)
    5e74:	00412903          	lw	s2,4(sp)
    5e78:	00012983          	lw	s3,0(sp)
    5e7c:	01010113          	add	sp,sp,16
    5e80:	00008067          	ret
    5e84:	fff58593          	add	a1,a1,-1
    5e88:	ffc5f393          	and	t2,a1,-4
    5e8c:	00438e13          	add	t3,t2,4
    5e90:	000e0493          	mv	s1,t3
    5e94:	00638393          	add	t2,t2,6
    5e98:	fff00913          	li	s2,-1
    5e9c:	00200293          	li	t0,2
    5ea0:	fff00513          	li	a0,-1
    5ea4:	f21ff06f          	j	5dc4 <core_init_matrix+0x60>

00005ea8 <matrix_sum>:
    5ea8:	00050e93          	mv	t4,a0
    5eac:	08050463          	beqz	a0,5f34 <matrix_sum+0x8c>
    5eb0:	00251f93          	sll	t6,a0,0x2
    5eb4:	40a00f33          	neg	t5,a0
    5eb8:	01f588b3          	add	a7,a1,t6
    5ebc:	00000e13          	li	t3,0
    5ec0:	00000513          	li	a0,0
    5ec4:	00000713          	li	a4,0
    5ec8:	00000593          	li	a1,0
    5ecc:	003f1f13          	sll	t5,t5,0x3
    5ed0:	41f88333          	sub	t1,a7,t6
    5ed4:	00030793          	mv	a5,t1
    5ed8:	0140006f          	j	5eec <matrix_sum+0x44>
    5edc:	01051513          	sll	a0,a0,0x10
    5ee0:	00478793          	add	a5,a5,4
    5ee4:	41055513          	sra	a0,a0,0x10
    5ee8:	02f88e63          	beq	a7,a5,5f24 <matrix_sum+0x7c>
    5eec:	00070693          	mv	a3,a4
    5ef0:	0007a703          	lw	a4,0(a5)
    5ef4:	01051513          	sll	a0,a0,0x10
    5ef8:	01055513          	srl	a0,a0,0x10
    5efc:	00e6a6b3          	slt	a3,a3,a4
    5f00:	00e585b3          	add	a1,a1,a4
    5f04:	00a50813          	add	a6,a0,10
    5f08:	00d50533          	add	a0,a0,a3
    5f0c:	fcb658e3          	bge	a2,a1,5edc <matrix_sum+0x34>
    5f10:	01081513          	sll	a0,a6,0x10
    5f14:	00478793          	add	a5,a5,4
    5f18:	41055513          	sra	a0,a0,0x10
    5f1c:	00000593          	li	a1,0
    5f20:	fcf896e3          	bne	a7,a5,5eec <matrix_sum+0x44>
    5f24:	001e0e13          	add	t3,t3,1
    5f28:	41e308b3          	sub	a7,t1,t5
    5f2c:	fbce92e3          	bne	t4,t3,5ed0 <matrix_sum+0x28>
    5f30:	00008067          	ret
    5f34:	00000513          	li	a0,0
    5f38:	00008067          	ret

00005f3c <matrix_mul_const>:
    5f3c:	04050a63          	beqz	a0,5f90 <matrix_mul_const+0x54>
    5f40:	00151f13          	sll	t5,a0,0x1
    5f44:	40a00eb3          	neg	t4,a0
    5f48:	01e60833          	add	a6,a2,t5
    5f4c:	00000313          	li	t1,0
    5f50:	00000e13          	li	t3,0
    5f54:	002e9e93          	sll	t4,t4,0x2
    5f58:	41e808b3          	sub	a7,a6,t5
    5f5c:	00231613          	sll	a2,t1,0x2
    5f60:	00c58633          	add	a2,a1,a2
    5f64:	00088793          	mv	a5,a7
    5f68:	00079703          	lh	a4,0(a5)
    5f6c:	00460613          	add	a2,a2,4
    5f70:	00278793          	add	a5,a5,2
    5f74:	02d70733          	mul	a4,a4,a3
    5f78:	fee62e23          	sw	a4,-4(a2)
    5f7c:	fef816e3          	bne	a6,a5,5f68 <matrix_mul_const+0x2c>
    5f80:	001e0e13          	add	t3,t3,1
    5f84:	00a30333          	add	t1,t1,a0
    5f88:	41d88833          	sub	a6,a7,t4
    5f8c:	fdc516e3          	bne	a0,t3,5f58 <matrix_mul_const+0x1c>
    5f90:	00008067          	ret

00005f94 <matrix_add_const>:
    5f94:	04050463          	beqz	a0,5fdc <matrix_add_const+0x48>
    5f98:	00151313          	sll	t1,a0,0x1
    5f9c:	40a008b3          	neg	a7,a0
    5fa0:	01061613          	sll	a2,a2,0x10
    5fa4:	01065613          	srl	a2,a2,0x10
    5fa8:	006586b3          	add	a3,a1,t1
    5fac:	00000813          	li	a6,0
    5fb0:	00289893          	sll	a7,a7,0x2
    5fb4:	406685b3          	sub	a1,a3,t1
    5fb8:	00058793          	mv	a5,a1
    5fbc:	0007d703          	lhu	a4,0(a5)
    5fc0:	00278793          	add	a5,a5,2
    5fc4:	00e60733          	add	a4,a2,a4
    5fc8:	fee79f23          	sh	a4,-2(a5)
    5fcc:	fef698e3          	bne	a3,a5,5fbc <matrix_add_const+0x28>
    5fd0:	00180813          	add	a6,a6,1
    5fd4:	411586b3          	sub	a3,a1,a7
    5fd8:	fd051ee3          	bne	a0,a6,5fb4 <matrix_add_const+0x20>
    5fdc:	00008067          	ret

00005fe0 <matrix_mul_vect>:
    5fe0:	04050a63          	beqz	a0,6034 <matrix_mul_vect+0x54>
    5fe4:	00251f13          	sll	t5,a0,0x2
    5fe8:	00151e13          	sll	t3,a0,0x1
    5fec:	01e58f33          	add	t5,a1,t5
    5ff0:	01c68e33          	add	t3,a3,t3
    5ff4:	00000e93          	li	t4,0
    5ff8:	001e9813          	sll	a6,t4,0x1
    5ffc:	01060833          	add	a6,a2,a6
    6000:	00068793          	mv	a5,a3
    6004:	00000893          	li	a7,0
    6008:	00081703          	lh	a4,0(a6)
    600c:	00079303          	lh	t1,0(a5)
    6010:	00278793          	add	a5,a5,2
    6014:	00280813          	add	a6,a6,2
    6018:	02670733          	mul	a4,a4,t1
    601c:	00e888b3          	add	a7,a7,a4
    6020:	fefe14e3          	bne	t3,a5,6008 <matrix_mul_vect+0x28>
    6024:	0115a023          	sw	a7,0(a1)
    6028:	00458593          	add	a1,a1,4
    602c:	00ae8eb3          	add	t4,t4,a0
    6030:	fcbf14e3          	bne	t5,a1,5ff8 <matrix_mul_vect+0x18>
    6034:	00008067          	ret

00006038 <matrix_mul_matrix>:
    6038:	0a050463          	beqz	a0,60e0 <matrix_mul_matrix+0xa8>
    603c:	ff010113          	add	sp,sp,-16
    6040:	00050f13          	mv	t5,a0
    6044:	00151513          	sll	a0,a0,0x1
    6048:	00812623          	sw	s0,12(sp)
    604c:	00058393          	mv	t2,a1
    6050:	00068413          	mv	s0,a3
    6054:	00060e93          	mv	t4,a2
    6058:	00a60833          	add	a6,a2,a0
    605c:	00000f93          	li	t6,0
    6060:	00000293          	li	t0,0
    6064:	002f9893          	sll	a7,t6,0x2
    6068:	011388b3          	add	a7,t2,a7
    606c:	00040313          	mv	t1,s0
    6070:	00000e13          	li	t3,0
    6074:	00030693          	mv	a3,t1
    6078:	000e8793          	mv	a5,t4
    607c:	00000613          	li	a2,0
    6080:	00079703          	lh	a4,0(a5)
    6084:	00069583          	lh	a1,0(a3)
    6088:	00278793          	add	a5,a5,2
    608c:	00a686b3          	add	a3,a3,a0
    6090:	02b70733          	mul	a4,a4,a1
    6094:	00e60633          	add	a2,a2,a4
    6098:	fef814e3          	bne	a6,a5,6080 <matrix_mul_matrix+0x48>
    609c:	00c8a023          	sw	a2,0(a7)
    60a0:	001e0793          	add	a5,t3,1
    60a4:	00488893          	add	a7,a7,4
    60a8:	00230313          	add	t1,t1,2
    60ac:	00ff0663          	beq	t5,a5,60b8 <matrix_mul_matrix+0x80>
    60b0:	00078e13          	mv	t3,a5
    60b4:	fc1ff06f          	j	6074 <matrix_mul_matrix+0x3c>
    60b8:	00128793          	add	a5,t0,1
    60bc:	00ae8eb3          	add	t4,t4,a0
    60c0:	01ef8fb3          	add	t6,t6,t5
    60c4:	00a80833          	add	a6,a6,a0
    60c8:	01c28663          	beq	t0,t3,60d4 <matrix_mul_matrix+0x9c>
    60cc:	00078293          	mv	t0,a5
    60d0:	f95ff06f          	j	6064 <matrix_mul_matrix+0x2c>
    60d4:	00c12403          	lw	s0,12(sp)
    60d8:	01010113          	add	sp,sp,16
    60dc:	00008067          	ret
    60e0:	00008067          	ret

000060e4 <matrix_mul_matrix_bitextract>:
    60e4:	0a050e63          	beqz	a0,61a0 <matrix_mul_matrix_bitextract+0xbc>
    60e8:	ff010113          	add	sp,sp,-16
    60ec:	00050f13          	mv	t5,a0
    60f0:	00151513          	sll	a0,a0,0x1
    60f4:	00812623          	sw	s0,12(sp)
    60f8:	00058393          	mv	t2,a1
    60fc:	00068413          	mv	s0,a3
    6100:	00060e93          	mv	t4,a2
    6104:	00a60833          	add	a6,a2,a0
    6108:	00000f93          	li	t6,0
    610c:	00000293          	li	t0,0
    6110:	002f9893          	sll	a7,t6,0x2
    6114:	011388b3          	add	a7,t2,a7
    6118:	00040313          	mv	t1,s0
    611c:	00000e13          	li	t3,0
    6120:	00030613          	mv	a2,t1
    6124:	000e8693          	mv	a3,t4
    6128:	00000593          	li	a1,0
    612c:	00061703          	lh	a4,0(a2)
    6130:	00069783          	lh	a5,0(a3)
    6134:	00268693          	add	a3,a3,2
    6138:	00a60633          	add	a2,a2,a0
    613c:	02e787b3          	mul	a5,a5,a4
    6140:	4027d713          	sra	a4,a5,0x2
    6144:	4057d793          	sra	a5,a5,0x5
    6148:	00f77713          	and	a4,a4,15
    614c:	07f7f793          	and	a5,a5,127
    6150:	02f707b3          	mul	a5,a4,a5
    6154:	00f585b3          	add	a1,a1,a5
    6158:	fcd81ae3          	bne	a6,a3,612c <matrix_mul_matrix_bitextract+0x48>
    615c:	00b8a023          	sw	a1,0(a7)
    6160:	001e0793          	add	a5,t3,1
    6164:	00488893          	add	a7,a7,4
    6168:	00230313          	add	t1,t1,2
    616c:	00ff0663          	beq	t5,a5,6178 <matrix_mul_matrix_bitextract+0x94>
    6170:	00078e13          	mv	t3,a5
    6174:	fadff06f          	j	6120 <matrix_mul_matrix_bitextract+0x3c>
    6178:	00128793          	add	a5,t0,1
    617c:	00ae8eb3          	add	t4,t4,a0
    6180:	01ef8fb3          	add	t6,t6,t5
    6184:	00a80833          	add	a6,a6,a0
    6188:	01c28663          	beq	t0,t3,6194 <matrix_mul_matrix_bitextract+0xb0>
    618c:	00078293          	mv	t0,a5
    6190:	f81ff06f          	j	6110 <matrix_mul_matrix_bitextract+0x2c>
    6194:	00c12403          	lw	s0,12(sp)
    6198:	01010113          	add	sp,sp,16
    619c:	00008067          	ret
    61a0:	00008067          	ret

000061a4 <core_init_state>:
    61a4:	fff50e13          	add	t3,a0,-1
    61a8:	00100793          	li	a5,1
    61ac:	27c7fe63          	bgeu	a5,t3,6428 <core_init_state+0x284>
    61b0:	00158593          	add	a1,a1,1
    61b4:	01059693          	sll	a3,a1,0x10
    61b8:	0106d693          	srl	a3,a3,0x10
    61bc:	000098b7          	lui	a7,0x9
    61c0:	0036d793          	srl	a5,a3,0x3
    61c4:	00700f13          	li	t5,7
    61c8:	0076f713          	and	a4,a3,7
    61cc:	00000593          	li	a1,0
    61d0:	40888893          	add	a7,a7,1032 # 9408 <intpat>
    61d4:	00400313          	li	t1,4
    61d8:	00100e93          	li	t4,1
    61dc:	02c00f93          	li	t6,44
    61e0:	0037f793          	and	a5,a5,3
    61e4:	09e70463          	beq	a4,t5,626c <core_init_state+0xc8>
    61e8:	20e36c63          	bltu	t1,a4,6400 <core_init_state+0x25c>
    61ec:	ffd70713          	add	a4,a4,-3
    61f0:	01071713          	sll	a4,a4,0x10
    61f4:	00279793          	sll	a5,a5,0x2
    61f8:	01075713          	srl	a4,a4,0x10
    61fc:	00f887b3          	add	a5,a7,a5
    6200:	1ceeec63          	bltu	t4,a4,63d8 <core_init_state+0x234>
    6204:	0107a703          	lw	a4,16(a5)
    6208:	00168693          	add	a3,a3,1
    620c:	01069693          	sll	a3,a3,0x10
    6210:	00958293          	add	t0,a1,9
    6214:	0106d693          	srl	a3,a3,0x10
    6218:	07c2fa63          	bgeu	t0,t3,628c <core_init_state+0xe8>
    621c:	00b607b3          	add	a5,a2,a1
    6220:	00e7e833          	or	a6,a5,a4
    6224:	00387813          	and	a6,a6,3
    6228:	14081c63          	bnez	a6,6380 <core_init_state+0x1dc>
    622c:	00170813          	add	a6,a4,1
    6230:	41078833          	sub	a6,a5,a6
    6234:	00383813          	sltiu	a6,a6,3
    6238:	14081463          	bnez	a6,6380 <core_init_state+0x1dc>
    623c:	00072583          	lw	a1,0(a4)
    6240:	00800813          	li	a6,8
    6244:	00b7a023          	sw	a1,0(a5)
    6248:	00472703          	lw	a4,4(a4)
    624c:	00e7a223          	sw	a4,4(a5)
    6250:	01078833          	add	a6,a5,a6
    6254:	01f80023          	sb	t6,0(a6)
    6258:	0036d793          	srl	a5,a3,0x3
    625c:	0076f713          	and	a4,a3,7
    6260:	00028593          	mv	a1,t0
    6264:	0037f793          	and	a5,a5,3
    6268:	f9e710e3          	bne	a4,t5,61e8 <core_init_state+0x44>
    626c:	00279793          	sll	a5,a5,0x2
    6270:	00168693          	add	a3,a3,1
    6274:	00f887b3          	add	a5,a7,a5
    6278:	01069693          	sll	a3,a3,0x10
    627c:	00958293          	add	t0,a1,9
    6280:	0307a703          	lw	a4,48(a5)
    6284:	0106d693          	srl	a3,a3,0x10
    6288:	f9c2eae3          	bltu	t0,t3,621c <core_init_state+0x78>
    628c:	18a5fc63          	bgeu	a1,a0,6424 <core_init_state+0x280>
    6290:	00158693          	add	a3,a1,1
    6294:	00068e13          	mv	t3,a3
    6298:	40b50733          	sub	a4,a0,a1
    629c:	00100813          	li	a6,1
    62a0:	16d57a63          	bgeu	a0,a3,6414 <core_init_state+0x270>
    62a4:	fff70713          	add	a4,a4,-1
    62a8:	00b607b3          	add	a5,a2,a1
    62ac:	40f00333          	neg	t1,a5
    62b0:	00673893          	sltiu	a7,a4,6
    62b4:	00337713          	and	a4,t1,3
    62b8:	06089a63          	bnez	a7,632c <core_init_state+0x188>
    62bc:	06d56863          	bltu	a0,a3,632c <core_init_state+0x188>
    62c0:	14070e63          	beqz	a4,641c <core_init_state+0x278>
    62c4:	00078023          	sb	zero,0(a5)
    62c8:	00237313          	and	t1,t1,2
    62cc:	02030463          	beqz	t1,62f4 <core_init_state+0x150>
    62d0:	00d606b3          	add	a3,a2,a3
    62d4:	fff78793          	add	a5,a5,-1
    62d8:	00068023          	sb	zero,0(a3)
    62dc:	0037f793          	and	a5,a5,3
    62e0:	00258e13          	add	t3,a1,2
    62e4:	00079863          	bnez	a5,62f4 <core_init_state+0x150>
    62e8:	01c60e33          	add	t3,a2,t3
    62ec:	000e0023          	sb	zero,0(t3)
    62f0:	00358e13          	add	t3,a1,3
    62f4:	00e587b3          	add	a5,a1,a4
    62f8:	40e806b3          	sub	a3,a6,a4
    62fc:	00f607b3          	add	a5,a2,a5
    6300:	ffc6f713          	and	a4,a3,-4
    6304:	00f70733          	add	a4,a4,a5
    6308:	0007a023          	sw	zero,0(a5)
    630c:	00478793          	add	a5,a5,4
    6310:	fee79ce3          	bne	a5,a4,6308 <core_init_state+0x164>
    6314:	ffc6f593          	and	a1,a3,-4
    6318:	0036f693          	and	a3,a3,3
    631c:	01c585b3          	add	a1,a1,t3
    6320:	0e068863          	beqz	a3,6410 <core_init_state+0x26c>
    6324:	00b607b3          	add	a5,a2,a1
    6328:	00158693          	add	a3,a1,1
    632c:	00078023          	sb	zero,0(a5)
    6330:	0ea6f063          	bgeu	a3,a0,6410 <core_init_state+0x26c>
    6334:	00d606b3          	add	a3,a2,a3
    6338:	00068023          	sb	zero,0(a3)
    633c:	00258793          	add	a5,a1,2
    6340:	0ca7f863          	bgeu	a5,a0,6410 <core_init_state+0x26c>
    6344:	00f607b3          	add	a5,a2,a5
    6348:	00078023          	sb	zero,0(a5)
    634c:	00358793          	add	a5,a1,3
    6350:	0ca7f063          	bgeu	a5,a0,6410 <core_init_state+0x26c>
    6354:	00f607b3          	add	a5,a2,a5
    6358:	00078023          	sb	zero,0(a5)
    635c:	00458793          	add	a5,a1,4
    6360:	0aa7f863          	bgeu	a5,a0,6410 <core_init_state+0x26c>
    6364:	00f607b3          	add	a5,a2,a5
    6368:	00078023          	sb	zero,0(a5)
    636c:	00558593          	add	a1,a1,5
    6370:	0aa5f063          	bgeu	a1,a0,6410 <core_init_state+0x26c>
    6374:	00b605b3          	add	a1,a2,a1
    6378:	00058023          	sb	zero,0(a1)
    637c:	00008067          	ret
    6380:	00158393          	add	t2,a1,1
    6384:	00800813          	li	a6,8
    6388:	00074583          	lbu	a1,0(a4)
    638c:	007603b3          	add	t2,a2,t2
    6390:	00b78023          	sb	a1,0(a5)
    6394:	00174583          	lbu	a1,1(a4)
    6398:	00b38023          	sb	a1,0(t2)
    639c:	00274583          	lbu	a1,2(a4)
    63a0:	00b78123          	sb	a1,2(a5)
    63a4:	00374583          	lbu	a1,3(a4)
    63a8:	00b781a3          	sb	a1,3(a5)
    63ac:	ea6802e3          	beq	a6,t1,6250 <core_init_state+0xac>
    63b0:	00474583          	lbu	a1,4(a4)
    63b4:	00800813          	li	a6,8
    63b8:	00b78223          	sb	a1,4(a5)
    63bc:	00574583          	lbu	a1,5(a4)
    63c0:	00b782a3          	sb	a1,5(a5)
    63c4:	00674583          	lbu	a1,6(a4)
    63c8:	00b78323          	sb	a1,6(a5)
    63cc:	00774703          	lbu	a4,7(a4)
    63d0:	00e783a3          	sb	a4,7(a5)
    63d4:	e7dff06f          	j	6250 <core_init_state+0xac>
    63d8:	00168693          	add	a3,a3,1
    63dc:	01069693          	sll	a3,a3,0x10
    63e0:	00558293          	add	t0,a1,5
    63e4:	0007a703          	lw	a4,0(a5)
    63e8:	00158393          	add	t2,a1,1
    63ec:	0106d693          	srl	a3,a3,0x10
    63f0:	e9c2fee3          	bgeu	t0,t3,628c <core_init_state+0xe8>
    63f4:	00400813          	li	a6,4
    63f8:	00b607b3          	add	a5,a2,a1
    63fc:	f8dff06f          	j	6388 <core_init_state+0x1e4>
    6400:	00279793          	sll	a5,a5,0x2
    6404:	00f887b3          	add	a5,a7,a5
    6408:	0207a703          	lw	a4,32(a5)
    640c:	dfdff06f          	j	6208 <core_init_state+0x64>
    6410:	00008067          	ret
    6414:	00070813          	mv	a6,a4
    6418:	e8dff06f          	j	62a4 <core_init_state+0x100>
    641c:	00058e13          	mv	t3,a1
    6420:	ed5ff06f          	j	62f4 <core_init_state+0x150>
    6424:	00008067          	ret
    6428:	00000593          	li	a1,0
    642c:	e65ff06f          	j	6290 <core_init_state+0xec>

00006430 <core_state_transition>:
    6430:	00052703          	lw	a4,0(a0)
    6434:	00050613          	mv	a2,a0
    6438:	00074683          	lbu	a3,0(a4)
    643c:	28068063          	beqz	a3,66bc <core_state_transition+0x28c>
    6440:	02c00793          	li	a5,44
    6444:	00000513          	li	a0,0
    6448:	1ef68063          	beq	a3,a5,6628 <core_state_transition+0x1f8>
    644c:	fd068513          	add	a0,a3,-48
    6450:	0ff57513          	zext.b	a0,a0
    6454:	00900813          	li	a6,9
    6458:	04a87263          	bgeu	a6,a0,649c <core_state_transition+0x6c>
    645c:	02d00513          	li	a0,45
    6460:	1ea68463          	beq	a3,a0,6648 <core_state_transition+0x218>
    6464:	02e00513          	li	a0,46
    6468:	08a68c63          	beq	a3,a0,6500 <core_state_transition+0xd0>
    646c:	02b00513          	li	a0,43
    6470:	1ca68c63          	beq	a3,a0,6648 <core_state_transition+0x218>
    6474:	0045a683          	lw	a3,4(a1)
    6478:	0005a783          	lw	a5,0(a1)
    647c:	00170713          	add	a4,a4,1
    6480:	00168693          	add	a3,a3,1
    6484:	00178793          	add	a5,a5,1
    6488:	00d5a223          	sw	a3,4(a1)
    648c:	00f5a023          	sw	a5,0(a1)
    6490:	00100513          	li	a0,1
    6494:	00e62023          	sw	a4,0(a2)
    6498:	00008067          	ret
    649c:	0005a503          	lw	a0,0(a1)
    64a0:	00170693          	add	a3,a4,1
    64a4:	00150513          	add	a0,a0,1
    64a8:	00a5a023          	sw	a0,0(a1)
    64ac:	00174703          	lbu	a4,1(a4)
    64b0:	1e070a63          	beqz	a4,66a4 <core_state_transition+0x274>
    64b4:	16f70663          	beq	a4,a5,6620 <core_state_transition+0x1f0>
    64b8:	02e00793          	li	a5,46
    64bc:	14f70a63          	beq	a4,a5,6610 <core_state_transition+0x1e0>
    64c0:	fd070713          	add	a4,a4,-48
    64c4:	0ff77713          	zext.b	a4,a4
    64c8:	00900793          	li	a5,9
    64cc:	00e7ec63          	bltu	a5,a4,64e4 <core_state_transition+0xb4>
    64d0:	0016c703          	lbu	a4,1(a3)
    64d4:	00168693          	add	a3,a3,1
    64d8:	1c070663          	beqz	a4,66a4 <core_state_transition+0x274>
    64dc:	02c00793          	li	a5,44
    64e0:	fd5ff06f          	j	64b4 <core_state_transition+0x84>
    64e4:	0105a783          	lw	a5,16(a1)
    64e8:	00168713          	add	a4,a3,1
    64ec:	00100513          	li	a0,1
    64f0:	00178793          	add	a5,a5,1
    64f4:	00f5a823          	sw	a5,16(a1)
    64f8:	00e62023          	sw	a4,0(a2)
    64fc:	00008067          	ret
    6500:	0005a503          	lw	a0,0(a1)
    6504:	00170693          	add	a3,a4,1
    6508:	00150513          	add	a0,a0,1
    650c:	00a5a023          	sw	a0,0(a1)
    6510:	00174703          	lbu	a4,1(a4)
    6514:	18070e63          	beqz	a4,66b0 <core_state_transition+0x280>
    6518:	1ef70463          	beq	a4,a5,6700 <core_state_transition+0x2d0>
    651c:	0df77793          	and	a5,a4,223
    6520:	04500513          	li	a0,69
    6524:	02a78463          	beq	a5,a0,654c <core_state_transition+0x11c>
    6528:	fd070713          	add	a4,a4,-48
    652c:	0ff77713          	zext.b	a4,a4
    6530:	00900793          	li	a5,9
    6534:	0ee7ee63          	bltu	a5,a4,6630 <core_state_transition+0x200>
    6538:	0016c703          	lbu	a4,1(a3)
    653c:	00168693          	add	a3,a3,1
    6540:	16070863          	beqz	a4,66b0 <core_state_transition+0x280>
    6544:	02c00793          	li	a5,44
    6548:	fd1ff06f          	j	6518 <core_state_transition+0xe8>
    654c:	0145a783          	lw	a5,20(a1)
    6550:	00168713          	add	a4,a3,1
    6554:	00178793          	add	a5,a5,1
    6558:	00f5aa23          	sw	a5,20(a1)
    655c:	0016c783          	lbu	a5,1(a3)
    6560:	16078663          	beqz	a5,66cc <core_state_transition+0x29c>
    6564:	02c00513          	li	a0,44
    6568:	16a78663          	beq	a5,a0,66d4 <core_state_transition+0x2a4>
    656c:	00c5a703          	lw	a4,12(a1)
    6570:	fd578793          	add	a5,a5,-43
    6574:	0fd7f793          	and	a5,a5,253
    6578:	00170713          	add	a4,a4,1
    657c:	00e5a623          	sw	a4,12(a1)
    6580:	00078a63          	beqz	a5,6594 <core_state_transition+0x164>
    6584:	00268713          	add	a4,a3,2
    6588:	00100513          	li	a0,1
    658c:	00e62023          	sw	a4,0(a2)
    6590:	00008067          	ret
    6594:	0026c783          	lbu	a5,2(a3)
    6598:	00268713          	add	a4,a3,2
    659c:	12078463          	beqz	a5,66c4 <core_state_transition+0x294>
    65a0:	14a78063          	beq	a5,a0,66e0 <core_state_transition+0x2b0>
    65a4:	0185a503          	lw	a0,24(a1)
    65a8:	fd078793          	add	a5,a5,-48
    65ac:	0ff7f793          	zext.b	a5,a5
    65b0:	00150513          	add	a0,a0,1
    65b4:	00900813          	li	a6,9
    65b8:	00a5ac23          	sw	a0,24(a1)
    65bc:	00f87a63          	bgeu	a6,a5,65d0 <core_state_transition+0x1a0>
    65c0:	00368713          	add	a4,a3,3
    65c4:	00100513          	li	a0,1
    65c8:	00e62023          	sw	a4,0(a2)
    65cc:	00008067          	ret
    65d0:	00900513          	li	a0,9
    65d4:	00174683          	lbu	a3,1(a4)
    65d8:	00070813          	mv	a6,a4
    65dc:	02c00893          	li	a7,44
    65e0:	fd068793          	add	a5,a3,-48
    65e4:	00170713          	add	a4,a4,1
    65e8:	0ff7f793          	zext.b	a5,a5
    65ec:	10068663          	beqz	a3,66f8 <core_state_transition+0x2c8>
    65f0:	0f168e63          	beq	a3,a7,66ec <core_state_transition+0x2bc>
    65f4:	fef570e3          	bgeu	a0,a5,65d4 <core_state_transition+0x1a4>
    65f8:	0045a783          	lw	a5,4(a1)
    65fc:	00280713          	add	a4,a6,2
    6600:	00100513          	li	a0,1
    6604:	00178793          	add	a5,a5,1
    6608:	00f5a223          	sw	a5,4(a1)
    660c:	eedff06f          	j	64f8 <core_state_transition+0xc8>
    6610:	0105a783          	lw	a5,16(a1)
    6614:	00178793          	add	a5,a5,1
    6618:	00f5a823          	sw	a5,16(a1)
    661c:	f1dff06f          	j	6538 <core_state_transition+0x108>
    6620:	00068713          	mv	a4,a3
    6624:	00400513          	li	a0,4
    6628:	00170713          	add	a4,a4,1
    662c:	ecdff06f          	j	64f8 <core_state_transition+0xc8>
    6630:	0145a783          	lw	a5,20(a1)
    6634:	00168713          	add	a4,a3,1
    6638:	00100513          	li	a0,1
    663c:	00178793          	add	a5,a5,1
    6640:	00f5aa23          	sw	a5,20(a1)
    6644:	eb5ff06f          	j	64f8 <core_state_transition+0xc8>
    6648:	0005a503          	lw	a0,0(a1)
    664c:	00170693          	add	a3,a4,1
    6650:	00150513          	add	a0,a0,1
    6654:	00a5a023          	sw	a0,0(a1)
    6658:	00174803          	lbu	a6,1(a4)
    665c:	0c080263          	beqz	a6,6720 <core_state_transition+0x2f0>
    6660:	0af80863          	beq	a6,a5,6710 <core_state_transition+0x2e0>
    6664:	0085a703          	lw	a4,8(a1)
    6668:	fd080793          	add	a5,a6,-48
    666c:	0ff7f793          	zext.b	a5,a5
    6670:	00900513          	li	a0,9
    6674:	00170713          	add	a4,a4,1
    6678:	00f57e63          	bgeu	a0,a5,6694 <core_state_transition+0x264>
    667c:	02e00793          	li	a5,46
    6680:	00f80e63          	beq	a6,a5,669c <core_state_transition+0x26c>
    6684:	00e5a423          	sw	a4,8(a1)
    6688:	00100513          	li	a0,1
    668c:	00168713          	add	a4,a3,1
    6690:	e69ff06f          	j	64f8 <core_state_transition+0xc8>
    6694:	00e5a423          	sw	a4,8(a1)
    6698:	e39ff06f          	j	64d0 <core_state_transition+0xa0>
    669c:	00e5a423          	sw	a4,8(a1)
    66a0:	e99ff06f          	j	6538 <core_state_transition+0x108>
    66a4:	00068713          	mv	a4,a3
    66a8:	00400513          	li	a0,4
    66ac:	e4dff06f          	j	64f8 <core_state_transition+0xc8>
    66b0:	00068713          	mv	a4,a3
    66b4:	00500513          	li	a0,5
    66b8:	e41ff06f          	j	64f8 <core_state_transition+0xc8>
    66bc:	00000513          	li	a0,0
    66c0:	e39ff06f          	j	64f8 <core_state_transition+0xc8>
    66c4:	00600513          	li	a0,6
    66c8:	e31ff06f          	j	64f8 <core_state_transition+0xc8>
    66cc:	00300513          	li	a0,3
    66d0:	e29ff06f          	j	64f8 <core_state_transition+0xc8>
    66d4:	00300513          	li	a0,3
    66d8:	00170713          	add	a4,a4,1
    66dc:	e1dff06f          	j	64f8 <core_state_transition+0xc8>
    66e0:	00600513          	li	a0,6
    66e4:	00170713          	add	a4,a4,1
    66e8:	e11ff06f          	j	64f8 <core_state_transition+0xc8>
    66ec:	00700513          	li	a0,7
    66f0:	00170713          	add	a4,a4,1
    66f4:	e05ff06f          	j	64f8 <core_state_transition+0xc8>
    66f8:	00700513          	li	a0,7
    66fc:	dfdff06f          	j	64f8 <core_state_transition+0xc8>
    6700:	00068713          	mv	a4,a3
    6704:	00500513          	li	a0,5
    6708:	00170713          	add	a4,a4,1
    670c:	dedff06f          	j	64f8 <core_state_transition+0xc8>
    6710:	00068713          	mv	a4,a3
    6714:	00200513          	li	a0,2
    6718:	00170713          	add	a4,a4,1
    671c:	dddff06f          	j	64f8 <core_state_transition+0xc8>
    6720:	00068713          	mv	a4,a3
    6724:	00200513          	li	a0,2
    6728:	dd1ff06f          	j	64f8 <core_state_transition+0xc8>

0000672c <core_bench_state>:
    672c:	f8010113          	add	sp,sp,-128
    6730:	06812c23          	sw	s0,120(sp)
    6734:	06912a23          	sw	s1,116(sp)
    6738:	07212823          	sw	s2,112(sp)
    673c:	07312623          	sw	s3,108(sp)
    6740:	07412423          	sw	s4,104(sp)
    6744:	07512223          	sw	s5,100(sp)
    6748:	07612023          	sw	s6,96(sp)
    674c:	05712e23          	sw	s7,92(sp)
    6750:	06112e23          	sw	ra,124(sp)
    6754:	00058413          	mv	s0,a1
    6758:	0005c583          	lbu	a1,0(a1)
    675c:	00812623          	sw	s0,12(sp)
    6760:	02012823          	sw	zero,48(sp)
    6764:	00012823          	sw	zero,16(sp)
    6768:	02012a23          	sw	zero,52(sp)
    676c:	00012a23          	sw	zero,20(sp)
    6770:	02012c23          	sw	zero,56(sp)
    6774:	00012c23          	sw	zero,24(sp)
    6778:	02012e23          	sw	zero,60(sp)
    677c:	00012e23          	sw	zero,28(sp)
    6780:	04012023          	sw	zero,64(sp)
    6784:	02012023          	sw	zero,32(sp)
    6788:	04012223          	sw	zero,68(sp)
    678c:	02012223          	sw	zero,36(sp)
    6790:	04012423          	sw	zero,72(sp)
    6794:	02012423          	sw	zero,40(sp)
    6798:	04012623          	sw	zero,76(sp)
    679c:	02012623          	sw	zero,44(sp)
    67a0:	00050b13          	mv	s6,a0
    67a4:	00060b93          	mv	s7,a2
    67a8:	00068a13          	mv	s4,a3
    67ac:	00070a93          	mv	s5,a4
    67b0:	00078493          	mv	s1,a5
    67b4:	03010913          	add	s2,sp,48
    67b8:	00c10993          	add	s3,sp,12
    67bc:	18058663          	beqz	a1,6948 <core_bench_state+0x21c>
    67c0:	00090593          	mv	a1,s2
    67c4:	00098513          	mv	a0,s3
    67c8:	c69ff0ef          	jal	6430 <core_state_transition>
    67cc:	00251813          	sll	a6,a0,0x2
    67d0:	05080793          	add	a5,a6,80
    67d4:	00278833          	add	a6,a5,sp
    67d8:	00c12703          	lw	a4,12(sp)
    67dc:	fc082783          	lw	a5,-64(a6)
    67e0:	00074703          	lbu	a4,0(a4)
    67e4:	00178793          	add	a5,a5,1
    67e8:	fcf82023          	sw	a5,-64(a6)
    67ec:	fc071ae3          	bnez	a4,67c0 <core_bench_state+0x94>
    67f0:	00812623          	sw	s0,12(sp)
    67f4:	01640b33          	add	s6,s0,s6
    67f8:	03647c63          	bgeu	s0,s6,6830 <core_bench_state+0x104>
    67fc:	00100713          	li	a4,1
    6800:	00040793          	mv	a5,s0
    6804:	02c00613          	li	a2,44
    6808:	0eea9263          	bne	s5,a4,68ec <core_bench_state+0x1c0>
    680c:	0007c703          	lbu	a4,0(a5)
    6810:	017746b3          	xor	a3,a4,s7
    6814:	00c70463          	beq	a4,a2,681c <core_bench_state+0xf0>
    6818:	00d78023          	sb	a3,0(a5)
    681c:	00178793          	add	a5,a5,1
    6820:	ff67e6e3          	bltu	a5,s6,680c <core_bench_state+0xe0>
    6824:	00044783          	lbu	a5,0(s0)
    6828:	00c10993          	add	s3,sp,12
    682c:	10078863          	beqz	a5,693c <core_bench_state+0x210>
    6830:	00090593          	mv	a1,s2
    6834:	00098513          	mv	a0,s3
    6838:	bf9ff0ef          	jal	6430 <core_state_transition>
    683c:	00251613          	sll	a2,a0,0x2
    6840:	05060793          	add	a5,a2,80
    6844:	00278633          	add	a2,a5,sp
    6848:	00c12703          	lw	a4,12(sp)
    684c:	fc062783          	lw	a5,-64(a2)
    6850:	00074703          	lbu	a4,0(a4)
    6854:	00178793          	add	a5,a5,1
    6858:	fcf62023          	sw	a5,-64(a2)
    685c:	fc071ae3          	bnez	a4,6830 <core_bench_state+0x104>
    6860:	00812623          	sw	s0,12(sp)
    6864:	03647663          	bgeu	s0,s6,6890 <core_bench_state+0x164>
    6868:	00100793          	li	a5,1
    686c:	0afa9663          	bne	s5,a5,6918 <core_bench_state+0x1ec>
    6870:	00040713          	mv	a4,s0
    6874:	02c00613          	li	a2,44
    6878:	00074783          	lbu	a5,0(a4)
    687c:	0147c6b3          	xor	a3,a5,s4
    6880:	00c78463          	beq	a5,a2,6888 <core_bench_state+0x15c>
    6884:	00d70023          	sb	a3,0(a4)
    6888:	00170713          	add	a4,a4,1
    688c:	ff6766e3          	bltu	a4,s6,6878 <core_bench_state+0x14c>
    6890:	01010413          	add	s0,sp,16
    6894:	00090993          	mv	s3,s2
    6898:	00042503          	lw	a0,0(s0)
    689c:	00048593          	mv	a1,s1
    68a0:	00440413          	add	s0,s0,4
    68a4:	4d0000ef          	jal	6d74 <crcu32>
    68a8:	00050593          	mv	a1,a0
    68ac:	0009a503          	lw	a0,0(s3)
    68b0:	00498993          	add	s3,s3,4
    68b4:	4c0000ef          	jal	6d74 <crcu32>
    68b8:	00050493          	mv	s1,a0
    68bc:	fd241ee3          	bne	s0,s2,6898 <core_bench_state+0x16c>
    68c0:	07c12083          	lw	ra,124(sp)
    68c4:	07812403          	lw	s0,120(sp)
    68c8:	07412483          	lw	s1,116(sp)
    68cc:	07012903          	lw	s2,112(sp)
    68d0:	06c12983          	lw	s3,108(sp)
    68d4:	06812a03          	lw	s4,104(sp)
    68d8:	06412a83          	lw	s5,100(sp)
    68dc:	06012b03          	lw	s6,96(sp)
    68e0:	05c12b83          	lw	s7,92(sp)
    68e4:	08010113          	add	sp,sp,128
    68e8:	00008067          	ret
    68ec:	0007c703          	lbu	a4,0(a5)
    68f0:	017746b3          	xor	a3,a4,s7
    68f4:	00c70463          	beq	a4,a2,68fc <core_bench_state+0x1d0>
    68f8:	00d78023          	sb	a3,0(a5)
    68fc:	015787b3          	add	a5,a5,s5
    6900:	ff67e6e3          	bltu	a5,s6,68ec <core_bench_state+0x1c0>
    6904:	00044783          	lbu	a5,0(s0)
    6908:	00c10993          	add	s3,sp,12
    690c:	f20792e3          	bnez	a5,6830 <core_bench_state+0x104>
    6910:	00812623          	sw	s0,12(sp)
    6914:	f7647ee3          	bgeu	s0,s6,6890 <core_bench_state+0x164>
    6918:	00040713          	mv	a4,s0
    691c:	02c00613          	li	a2,44
    6920:	00074783          	lbu	a5,0(a4)
    6924:	0147c6b3          	xor	a3,a5,s4
    6928:	00c78463          	beq	a5,a2,6930 <core_bench_state+0x204>
    692c:	00d70023          	sb	a3,0(a4)
    6930:	01570733          	add	a4,a4,s5
    6934:	ff6766e3          	bltu	a4,s6,6920 <core_bench_state+0x1f4>
    6938:	f59ff06f          	j	6890 <core_bench_state+0x164>
    693c:	00812623          	sw	s0,12(sp)
    6940:	f36468e3          	bltu	s0,s6,6870 <core_bench_state+0x144>
    6944:	f4dff06f          	j	6890 <core_bench_state+0x164>
    6948:	00a40b33          	add	s6,s0,a0
    694c:	eb6468e3          	bltu	s0,s6,67fc <core_bench_state+0xd0>
    6950:	f41ff06f          	j	6890 <core_bench_state+0x164>

00006954 <get_seed_32>:
    6954:	00500793          	li	a5,5
    6958:	04a7ec63          	bltu	a5,a0,69b0 <get_seed_32+0x5c>
    695c:	000097b7          	lui	a5,0x9
    6960:	44878793          	add	a5,a5,1096 # 9448 <errpat+0x10>
    6964:	00251513          	sll	a0,a0,0x2
    6968:	00f50533          	add	a0,a0,a5
    696c:	00052783          	lw	a5,0(a0)
    6970:	00078067          	jr	a5
    6974:	000097b7          	lui	a5,0x9
    6978:	6747a503          	lw	a0,1652(a5) # 9674 <seed5_volatile>
    697c:	00008067          	ret
    6980:	000097b7          	lui	a5,0x9
    6984:	6847a503          	lw	a0,1668(a5) # 9684 <seed1_volatile>
    6988:	00008067          	ret
    698c:	000097b7          	lui	a5,0x9
    6990:	6807a503          	lw	a0,1664(a5) # 9680 <seed2_volatile>
    6994:	00008067          	ret
    6998:	000097b7          	lui	a5,0x9
    699c:	67c7a503          	lw	a0,1660(a5) # 967c <seed3_volatile>
    69a0:	00008067          	ret
    69a4:	000097b7          	lui	a5,0x9
    69a8:	6787a503          	lw	a0,1656(a5) # 9678 <seed4_volatile>
    69ac:	00008067          	ret
    69b0:	00000513          	li	a0,0
    69b4:	00008067          	ret

000069b8 <crcu8>:
    69b8:	00b546b3          	xor	a3,a0,a1
    69bc:	0016f693          	and	a3,a3,1
    69c0:	00155713          	srl	a4,a0,0x1
    69c4:	0015d793          	srl	a5,a1,0x1
    69c8:	00068c63          	beqz	a3,69e0 <crcu8+0x28>
    69cc:	ffffa6b7          	lui	a3,0xffffa
    69d0:	00168693          	add	a3,a3,1 # ffffa001 <start_time_val+0xffff0975>
    69d4:	00d7c7b3          	xor	a5,a5,a3
    69d8:	01079793          	sll	a5,a5,0x10
    69dc:	0107d793          	srl	a5,a5,0x10
    69e0:	00f74733          	xor	a4,a4,a5
    69e4:	00177713          	and	a4,a4,1
    69e8:	00255693          	srl	a3,a0,0x2
    69ec:	0017d793          	srl	a5,a5,0x1
    69f0:	00070c63          	beqz	a4,6a08 <crcu8+0x50>
    69f4:	ffffa737          	lui	a4,0xffffa
    69f8:	00170713          	add	a4,a4,1 # ffffa001 <start_time_val+0xffff0975>
    69fc:	00e7c7b3          	xor	a5,a5,a4
    6a00:	01079793          	sll	a5,a5,0x10
    6a04:	0107d793          	srl	a5,a5,0x10
    6a08:	00f6c6b3          	xor	a3,a3,a5
    6a0c:	0016f693          	and	a3,a3,1
    6a10:	00355713          	srl	a4,a0,0x3
    6a14:	0017d793          	srl	a5,a5,0x1
    6a18:	00068c63          	beqz	a3,6a30 <crcu8+0x78>
    6a1c:	ffffa6b7          	lui	a3,0xffffa
    6a20:	00168693          	add	a3,a3,1 # ffffa001 <start_time_val+0xffff0975>
    6a24:	00d7c7b3          	xor	a5,a5,a3
    6a28:	01079793          	sll	a5,a5,0x10
    6a2c:	0107d793          	srl	a5,a5,0x10
    6a30:	00f74733          	xor	a4,a4,a5
    6a34:	00177713          	and	a4,a4,1
    6a38:	00455693          	srl	a3,a0,0x4
    6a3c:	0017d793          	srl	a5,a5,0x1
    6a40:	00070c63          	beqz	a4,6a58 <crcu8+0xa0>
    6a44:	ffffa737          	lui	a4,0xffffa
    6a48:	00170713          	add	a4,a4,1 # ffffa001 <start_time_val+0xffff0975>
    6a4c:	00e7c7b3          	xor	a5,a5,a4
    6a50:	01079793          	sll	a5,a5,0x10
    6a54:	0107d793          	srl	a5,a5,0x10
    6a58:	00f6c6b3          	xor	a3,a3,a5
    6a5c:	0016f693          	and	a3,a3,1
    6a60:	00555713          	srl	a4,a0,0x5
    6a64:	0017d793          	srl	a5,a5,0x1
    6a68:	00068c63          	beqz	a3,6a80 <crcu8+0xc8>
    6a6c:	ffffa6b7          	lui	a3,0xffffa
    6a70:	00168693          	add	a3,a3,1 # ffffa001 <start_time_val+0xffff0975>
    6a74:	00d7c7b3          	xor	a5,a5,a3
    6a78:	01079793          	sll	a5,a5,0x10
    6a7c:	0107d793          	srl	a5,a5,0x10
    6a80:	00f74733          	xor	a4,a4,a5
    6a84:	00177713          	and	a4,a4,1
    6a88:	00655693          	srl	a3,a0,0x6
    6a8c:	0017d793          	srl	a5,a5,0x1
    6a90:	00070c63          	beqz	a4,6aa8 <crcu8+0xf0>
    6a94:	ffffa737          	lui	a4,0xffffa
    6a98:	00170713          	add	a4,a4,1 # ffffa001 <start_time_val+0xffff0975>
    6a9c:	00e7c7b3          	xor	a5,a5,a4
    6aa0:	01079793          	sll	a5,a5,0x10
    6aa4:	0107d793          	srl	a5,a5,0x10
    6aa8:	00f6c6b3          	xor	a3,a3,a5
    6aac:	0016f693          	and	a3,a3,1
    6ab0:	00755713          	srl	a4,a0,0x7
    6ab4:	0017d793          	srl	a5,a5,0x1
    6ab8:	00068c63          	beqz	a3,6ad0 <crcu8+0x118>
    6abc:	ffffa6b7          	lui	a3,0xffffa
    6ac0:	00168693          	add	a3,a3,1 # ffffa001 <start_time_val+0xffff0975>
    6ac4:	00d7c7b3          	xor	a5,a5,a3
    6ac8:	01079793          	sll	a5,a5,0x10
    6acc:	0107d793          	srl	a5,a5,0x10
    6ad0:	0017f693          	and	a3,a5,1
    6ad4:	0017d513          	srl	a0,a5,0x1
    6ad8:	00e68c63          	beq	a3,a4,6af0 <crcu8+0x138>
    6adc:	ffffa7b7          	lui	a5,0xffffa
    6ae0:	00178793          	add	a5,a5,1 # ffffa001 <start_time_val+0xffff0975>
    6ae4:	00f54533          	xor	a0,a0,a5
    6ae8:	01051513          	sll	a0,a0,0x10
    6aec:	01055513          	srl	a0,a0,0x10
    6af0:	00008067          	ret

00006af4 <crcu16>:
    6af4:	0ff57713          	zext.b	a4,a0
    6af8:	00b746b3          	xor	a3,a4,a1
    6afc:	0016f693          	and	a3,a3,1
    6b00:	00050793          	mv	a5,a0
    6b04:	00175613          	srl	a2,a4,0x1
    6b08:	0015d513          	srl	a0,a1,0x1
    6b0c:	00068c63          	beqz	a3,6b24 <crcu16+0x30>
    6b10:	ffffa6b7          	lui	a3,0xffffa
    6b14:	00168693          	add	a3,a3,1 # ffffa001 <start_time_val+0xffff0975>
    6b18:	00d54533          	xor	a0,a0,a3
    6b1c:	01051513          	sll	a0,a0,0x10
    6b20:	01055513          	srl	a0,a0,0x10
    6b24:	00a64633          	xor	a2,a2,a0
    6b28:	00167613          	and	a2,a2,1
    6b2c:	00275693          	srl	a3,a4,0x2
    6b30:	00155513          	srl	a0,a0,0x1
    6b34:	00060c63          	beqz	a2,6b4c <crcu16+0x58>
    6b38:	ffffa637          	lui	a2,0xffffa
    6b3c:	00160613          	add	a2,a2,1 # ffffa001 <start_time_val+0xffff0975>
    6b40:	00c54533          	xor	a0,a0,a2
    6b44:	01051513          	sll	a0,a0,0x10
    6b48:	01055513          	srl	a0,a0,0x10
    6b4c:	00a6c6b3          	xor	a3,a3,a0
    6b50:	0016f693          	and	a3,a3,1
    6b54:	00375613          	srl	a2,a4,0x3
    6b58:	00155513          	srl	a0,a0,0x1
    6b5c:	00068c63          	beqz	a3,6b74 <crcu16+0x80>
    6b60:	ffffa6b7          	lui	a3,0xffffa
    6b64:	00168693          	add	a3,a3,1 # ffffa001 <start_time_val+0xffff0975>
    6b68:	00d54533          	xor	a0,a0,a3
    6b6c:	01051513          	sll	a0,a0,0x10
    6b70:	01055513          	srl	a0,a0,0x10
    6b74:	00a64633          	xor	a2,a2,a0
    6b78:	00167613          	and	a2,a2,1
    6b7c:	00475693          	srl	a3,a4,0x4
    6b80:	00155513          	srl	a0,a0,0x1
    6b84:	00060c63          	beqz	a2,6b9c <crcu16+0xa8>
    6b88:	ffffa637          	lui	a2,0xffffa
    6b8c:	00160613          	add	a2,a2,1 # ffffa001 <start_time_val+0xffff0975>
    6b90:	00c54533          	xor	a0,a0,a2
    6b94:	01051513          	sll	a0,a0,0x10
    6b98:	01055513          	srl	a0,a0,0x10
    6b9c:	00a6c6b3          	xor	a3,a3,a0
    6ba0:	0016f693          	and	a3,a3,1
    6ba4:	00575613          	srl	a2,a4,0x5
    6ba8:	00155513          	srl	a0,a0,0x1
    6bac:	00068c63          	beqz	a3,6bc4 <crcu16+0xd0>
    6bb0:	ffffa6b7          	lui	a3,0xffffa
    6bb4:	00168693          	add	a3,a3,1 # ffffa001 <start_time_val+0xffff0975>
    6bb8:	00d54533          	xor	a0,a0,a3
    6bbc:	01051513          	sll	a0,a0,0x10
    6bc0:	01055513          	srl	a0,a0,0x10
    6bc4:	00a64633          	xor	a2,a2,a0
    6bc8:	00167613          	and	a2,a2,1
    6bcc:	00675693          	srl	a3,a4,0x6
    6bd0:	00155513          	srl	a0,a0,0x1
    6bd4:	00060c63          	beqz	a2,6bec <crcu16+0xf8>
    6bd8:	ffffa637          	lui	a2,0xffffa
    6bdc:	00160613          	add	a2,a2,1 # ffffa001 <start_time_val+0xffff0975>
    6be0:	00c54533          	xor	a0,a0,a2
    6be4:	01051513          	sll	a0,a0,0x10
    6be8:	01055513          	srl	a0,a0,0x10
    6bec:	00a6c6b3          	xor	a3,a3,a0
    6bf0:	0016f693          	and	a3,a3,1
    6bf4:	00775713          	srl	a4,a4,0x7
    6bf8:	00155513          	srl	a0,a0,0x1
    6bfc:	00068c63          	beqz	a3,6c14 <crcu16+0x120>
    6c00:	ffffa6b7          	lui	a3,0xffffa
    6c04:	00168693          	add	a3,a3,1 # ffffa001 <start_time_val+0xffff0975>
    6c08:	00d54533          	xor	a0,a0,a3
    6c0c:	01051513          	sll	a0,a0,0x10
    6c10:	01055513          	srl	a0,a0,0x10
    6c14:	00157693          	and	a3,a0,1
    6c18:	00155513          	srl	a0,a0,0x1
    6c1c:	00e68c63          	beq	a3,a4,6c34 <crcu16+0x140>
    6c20:	ffffa737          	lui	a4,0xffffa
    6c24:	00170713          	add	a4,a4,1 # ffffa001 <start_time_val+0xffff0975>
    6c28:	00e54533          	xor	a0,a0,a4
    6c2c:	01051513          	sll	a0,a0,0x10
    6c30:	01055513          	srl	a0,a0,0x10
    6c34:	0087d693          	srl	a3,a5,0x8
    6c38:	00a6c633          	xor	a2,a3,a0
    6c3c:	00167613          	and	a2,a2,1
    6c40:	0097d713          	srl	a4,a5,0x9
    6c44:	00155513          	srl	a0,a0,0x1
    6c48:	00060c63          	beqz	a2,6c60 <crcu16+0x16c>
    6c4c:	ffffa7b7          	lui	a5,0xffffa
    6c50:	00178793          	add	a5,a5,1 # ffffa001 <start_time_val+0xffff0975>
    6c54:	00f54533          	xor	a0,a0,a5
    6c58:	01051513          	sll	a0,a0,0x10
    6c5c:	01055513          	srl	a0,a0,0x10
    6c60:	00a74733          	xor	a4,a4,a0
    6c64:	00177713          	and	a4,a4,1
    6c68:	0026d793          	srl	a5,a3,0x2
    6c6c:	00155513          	srl	a0,a0,0x1
    6c70:	00070c63          	beqz	a4,6c88 <crcu16+0x194>
    6c74:	ffffa737          	lui	a4,0xffffa
    6c78:	00170713          	add	a4,a4,1 # ffffa001 <start_time_val+0xffff0975>
    6c7c:	00e54533          	xor	a0,a0,a4
    6c80:	01051513          	sll	a0,a0,0x10
    6c84:	01055513          	srl	a0,a0,0x10
    6c88:	00a7c733          	xor	a4,a5,a0
    6c8c:	00177713          	and	a4,a4,1
    6c90:	0036d793          	srl	a5,a3,0x3
    6c94:	00155513          	srl	a0,a0,0x1
    6c98:	00070c63          	beqz	a4,6cb0 <crcu16+0x1bc>
    6c9c:	ffffa737          	lui	a4,0xffffa
    6ca0:	00170713          	add	a4,a4,1 # ffffa001 <start_time_val+0xffff0975>
    6ca4:	00e54533          	xor	a0,a0,a4
    6ca8:	01051513          	sll	a0,a0,0x10
    6cac:	01055513          	srl	a0,a0,0x10
    6cb0:	00a7c7b3          	xor	a5,a5,a0
    6cb4:	0017f793          	and	a5,a5,1
    6cb8:	0046d713          	srl	a4,a3,0x4
    6cbc:	00155513          	srl	a0,a0,0x1
    6cc0:	00078c63          	beqz	a5,6cd8 <crcu16+0x1e4>
    6cc4:	ffffa7b7          	lui	a5,0xffffa
    6cc8:	00178793          	add	a5,a5,1 # ffffa001 <start_time_val+0xffff0975>
    6ccc:	00f54533          	xor	a0,a0,a5
    6cd0:	01051513          	sll	a0,a0,0x10
    6cd4:	01055513          	srl	a0,a0,0x10
    6cd8:	00a74733          	xor	a4,a4,a0
    6cdc:	00177713          	and	a4,a4,1
    6ce0:	0056d793          	srl	a5,a3,0x5
    6ce4:	00155513          	srl	a0,a0,0x1
    6ce8:	00070c63          	beqz	a4,6d00 <crcu16+0x20c>
    6cec:	ffffa737          	lui	a4,0xffffa
    6cf0:	00170713          	add	a4,a4,1 # ffffa001 <start_time_val+0xffff0975>
    6cf4:	00e54533          	xor	a0,a0,a4
    6cf8:	01051513          	sll	a0,a0,0x10
    6cfc:	01055513          	srl	a0,a0,0x10
    6d00:	00a7c7b3          	xor	a5,a5,a0
    6d04:	0017f793          	and	a5,a5,1
    6d08:	0066d713          	srl	a4,a3,0x6
    6d0c:	00155513          	srl	a0,a0,0x1
    6d10:	00078c63          	beqz	a5,6d28 <crcu16+0x234>
    6d14:	ffffa7b7          	lui	a5,0xffffa
    6d18:	00178793          	add	a5,a5,1 # ffffa001 <start_time_val+0xffff0975>
    6d1c:	00f54533          	xor	a0,a0,a5
    6d20:	01051513          	sll	a0,a0,0x10
    6d24:	01055513          	srl	a0,a0,0x10
    6d28:	00a74733          	xor	a4,a4,a0
    6d2c:	00177713          	and	a4,a4,1
    6d30:	0076d793          	srl	a5,a3,0x7
    6d34:	00155513          	srl	a0,a0,0x1
    6d38:	00070c63          	beqz	a4,6d50 <crcu16+0x25c>
    6d3c:	ffffa737          	lui	a4,0xffffa
    6d40:	00170713          	add	a4,a4,1 # ffffa001 <start_time_val+0xffff0975>
    6d44:	00e54533          	xor	a0,a0,a4
    6d48:	01051513          	sll	a0,a0,0x10
    6d4c:	01055513          	srl	a0,a0,0x10
    6d50:	00157713          	and	a4,a0,1
    6d54:	00155513          	srl	a0,a0,0x1
    6d58:	00f70c63          	beq	a4,a5,6d70 <crcu16+0x27c>
    6d5c:	ffffa7b7          	lui	a5,0xffffa
    6d60:	00178793          	add	a5,a5,1 # ffffa001 <start_time_val+0xffff0975>
    6d64:	00f54533          	xor	a0,a0,a5
    6d68:	01051513          	sll	a0,a0,0x10
    6d6c:	01055513          	srl	a0,a0,0x10
    6d70:	00008067          	ret

00006d74 <crcu32>:
    6d74:	0ff57713          	zext.b	a4,a0
    6d78:	00b74833          	xor	a6,a4,a1
    6d7c:	01051693          	sll	a3,a0,0x10
    6d80:	00187813          	and	a6,a6,1
    6d84:	00050793          	mv	a5,a0
    6d88:	0106d693          	srl	a3,a3,0x10
    6d8c:	00175613          	srl	a2,a4,0x1
    6d90:	0015d513          	srl	a0,a1,0x1
    6d94:	00080c63          	beqz	a6,6dac <crcu32+0x38>
    6d98:	ffffa5b7          	lui	a1,0xffffa
    6d9c:	00158593          	add	a1,a1,1 # ffffa001 <start_time_val+0xffff0975>
    6da0:	00b54533          	xor	a0,a0,a1
    6da4:	01051513          	sll	a0,a0,0x10
    6da8:	01055513          	srl	a0,a0,0x10
    6dac:	00a645b3          	xor	a1,a2,a0
    6db0:	0015f593          	and	a1,a1,1
    6db4:	00275613          	srl	a2,a4,0x2
    6db8:	00155513          	srl	a0,a0,0x1
    6dbc:	00058c63          	beqz	a1,6dd4 <crcu32+0x60>
    6dc0:	ffffa5b7          	lui	a1,0xffffa
    6dc4:	00158593          	add	a1,a1,1 # ffffa001 <start_time_val+0xffff0975>
    6dc8:	00b54533          	xor	a0,a0,a1
    6dcc:	01051513          	sll	a0,a0,0x10
    6dd0:	01055513          	srl	a0,a0,0x10
    6dd4:	00a64633          	xor	a2,a2,a0
    6dd8:	00167613          	and	a2,a2,1
    6ddc:	00375593          	srl	a1,a4,0x3
    6de0:	00155513          	srl	a0,a0,0x1
    6de4:	00060c63          	beqz	a2,6dfc <crcu32+0x88>
    6de8:	ffffa637          	lui	a2,0xffffa
    6dec:	00160613          	add	a2,a2,1 # ffffa001 <start_time_val+0xffff0975>
    6df0:	00c54533          	xor	a0,a0,a2
    6df4:	01051513          	sll	a0,a0,0x10
    6df8:	01055513          	srl	a0,a0,0x10
    6dfc:	00a5c5b3          	xor	a1,a1,a0
    6e00:	0015f593          	and	a1,a1,1
    6e04:	00475613          	srl	a2,a4,0x4
    6e08:	00155513          	srl	a0,a0,0x1
    6e0c:	00058c63          	beqz	a1,6e24 <crcu32+0xb0>
    6e10:	ffffa5b7          	lui	a1,0xffffa
    6e14:	00158593          	add	a1,a1,1 # ffffa001 <start_time_val+0xffff0975>
    6e18:	00b54533          	xor	a0,a0,a1
    6e1c:	01051513          	sll	a0,a0,0x10
    6e20:	01055513          	srl	a0,a0,0x10
    6e24:	00a64633          	xor	a2,a2,a0
    6e28:	00167613          	and	a2,a2,1
    6e2c:	00575593          	srl	a1,a4,0x5
    6e30:	00155513          	srl	a0,a0,0x1
    6e34:	00060c63          	beqz	a2,6e4c <crcu32+0xd8>
    6e38:	ffffa637          	lui	a2,0xffffa
    6e3c:	00160613          	add	a2,a2,1 # ffffa001 <start_time_val+0xffff0975>
    6e40:	00c54533          	xor	a0,a0,a2
    6e44:	01051513          	sll	a0,a0,0x10
    6e48:	01055513          	srl	a0,a0,0x10
    6e4c:	00a5c5b3          	xor	a1,a1,a0
    6e50:	0015f593          	and	a1,a1,1
    6e54:	00675613          	srl	a2,a4,0x6
    6e58:	00155513          	srl	a0,a0,0x1
    6e5c:	00058c63          	beqz	a1,6e74 <crcu32+0x100>
    6e60:	ffffa5b7          	lui	a1,0xffffa
    6e64:	00158593          	add	a1,a1,1 # ffffa001 <start_time_val+0xffff0975>
    6e68:	00b54533          	xor	a0,a0,a1
    6e6c:	01051513          	sll	a0,a0,0x10
    6e70:	01055513          	srl	a0,a0,0x10
    6e74:	00a64633          	xor	a2,a2,a0
    6e78:	00167613          	and	a2,a2,1
    6e7c:	00775713          	srl	a4,a4,0x7
    6e80:	00155513          	srl	a0,a0,0x1
    6e84:	00060c63          	beqz	a2,6e9c <crcu32+0x128>
    6e88:	ffffa637          	lui	a2,0xffffa
    6e8c:	00160613          	add	a2,a2,1 # ffffa001 <start_time_val+0xffff0975>
    6e90:	00c54533          	xor	a0,a0,a2
    6e94:	01051513          	sll	a0,a0,0x10
    6e98:	01055513          	srl	a0,a0,0x10
    6e9c:	00157613          	and	a2,a0,1
    6ea0:	00155513          	srl	a0,a0,0x1
    6ea4:	3ce61663          	bne	a2,a4,7270 <crcu32+0x4fc>
    6ea8:	0086d713          	srl	a4,a3,0x8
    6eac:	00a74633          	xor	a2,a4,a0
    6eb0:	00167613          	and	a2,a2,1
    6eb4:	0096d693          	srl	a3,a3,0x9
    6eb8:	00155513          	srl	a0,a0,0x1
    6ebc:	00060c63          	beqz	a2,6ed4 <crcu32+0x160>
    6ec0:	ffffa637          	lui	a2,0xffffa
    6ec4:	00160613          	add	a2,a2,1 # ffffa001 <start_time_val+0xffff0975>
    6ec8:	00c54533          	xor	a0,a0,a2
    6ecc:	01051513          	sll	a0,a0,0x10
    6ed0:	01055513          	srl	a0,a0,0x10
    6ed4:	00a6c6b3          	xor	a3,a3,a0
    6ed8:	0016f693          	and	a3,a3,1
    6edc:	00275613          	srl	a2,a4,0x2
    6ee0:	00155513          	srl	a0,a0,0x1
    6ee4:	00068c63          	beqz	a3,6efc <crcu32+0x188>
    6ee8:	ffffa6b7          	lui	a3,0xffffa
    6eec:	00168693          	add	a3,a3,1 # ffffa001 <start_time_val+0xffff0975>
    6ef0:	00d54533          	xor	a0,a0,a3
    6ef4:	01051513          	sll	a0,a0,0x10
    6ef8:	01055513          	srl	a0,a0,0x10
    6efc:	00a646b3          	xor	a3,a2,a0
    6f00:	0016f693          	and	a3,a3,1
    6f04:	00375613          	srl	a2,a4,0x3
    6f08:	00155513          	srl	a0,a0,0x1
    6f0c:	00068c63          	beqz	a3,6f24 <crcu32+0x1b0>
    6f10:	ffffa6b7          	lui	a3,0xffffa
    6f14:	00168693          	add	a3,a3,1 # ffffa001 <start_time_val+0xffff0975>
    6f18:	00d54533          	xor	a0,a0,a3
    6f1c:	01051513          	sll	a0,a0,0x10
    6f20:	01055513          	srl	a0,a0,0x10
    6f24:	00a64633          	xor	a2,a2,a0
    6f28:	00167613          	and	a2,a2,1
    6f2c:	00475693          	srl	a3,a4,0x4
    6f30:	00155513          	srl	a0,a0,0x1
    6f34:	00060c63          	beqz	a2,6f4c <crcu32+0x1d8>
    6f38:	ffffa637          	lui	a2,0xffffa
    6f3c:	00160613          	add	a2,a2,1 # ffffa001 <start_time_val+0xffff0975>
    6f40:	00c54533          	xor	a0,a0,a2
    6f44:	01051513          	sll	a0,a0,0x10
    6f48:	01055513          	srl	a0,a0,0x10
    6f4c:	00a6c6b3          	xor	a3,a3,a0
    6f50:	0016f693          	and	a3,a3,1
    6f54:	00575613          	srl	a2,a4,0x5
    6f58:	00155513          	srl	a0,a0,0x1
    6f5c:	00068c63          	beqz	a3,6f74 <crcu32+0x200>
    6f60:	ffffa6b7          	lui	a3,0xffffa
    6f64:	00168693          	add	a3,a3,1 # ffffa001 <start_time_val+0xffff0975>
    6f68:	00d54533          	xor	a0,a0,a3
    6f6c:	01051513          	sll	a0,a0,0x10
    6f70:	01055513          	srl	a0,a0,0x10
    6f74:	00a64633          	xor	a2,a2,a0
    6f78:	00167613          	and	a2,a2,1
    6f7c:	00675693          	srl	a3,a4,0x6
    6f80:	00155513          	srl	a0,a0,0x1
    6f84:	00060c63          	beqz	a2,6f9c <crcu32+0x228>
    6f88:	ffffa637          	lui	a2,0xffffa
    6f8c:	00160613          	add	a2,a2,1 # ffffa001 <start_time_val+0xffff0975>
    6f90:	00c54533          	xor	a0,a0,a2
    6f94:	01051513          	sll	a0,a0,0x10
    6f98:	01055513          	srl	a0,a0,0x10
    6f9c:	00a6c6b3          	xor	a3,a3,a0
    6fa0:	0016f693          	and	a3,a3,1
    6fa4:	00775713          	srl	a4,a4,0x7
    6fa8:	00155513          	srl	a0,a0,0x1
    6fac:	00068c63          	beqz	a3,6fc4 <crcu32+0x250>
    6fb0:	ffffa6b7          	lui	a3,0xffffa
    6fb4:	00168693          	add	a3,a3,1 # ffffa001 <start_time_val+0xffff0975>
    6fb8:	00d54533          	xor	a0,a0,a3
    6fbc:	01051513          	sll	a0,a0,0x10
    6fc0:	01055513          	srl	a0,a0,0x10
    6fc4:	00157693          	and	a3,a0,1
    6fc8:	00155513          	srl	a0,a0,0x1
    6fcc:	28e69663          	bne	a3,a4,7258 <crcu32+0x4e4>
    6fd0:	0107d713          	srl	a4,a5,0x10
    6fd4:	0ff77713          	zext.b	a4,a4
    6fd8:	00a746b3          	xor	a3,a4,a0
    6fdc:	0016f693          	and	a3,a3,1
    6fe0:	0107d793          	srl	a5,a5,0x10
    6fe4:	00175613          	srl	a2,a4,0x1
    6fe8:	00155513          	srl	a0,a0,0x1
    6fec:	00068c63          	beqz	a3,7004 <crcu32+0x290>
    6ff0:	ffffa6b7          	lui	a3,0xffffa
    6ff4:	00168693          	add	a3,a3,1 # ffffa001 <start_time_val+0xffff0975>
    6ff8:	00d54533          	xor	a0,a0,a3
    6ffc:	01051513          	sll	a0,a0,0x10
    7000:	01055513          	srl	a0,a0,0x10
    7004:	00a64633          	xor	a2,a2,a0
    7008:	00167613          	and	a2,a2,1
    700c:	00275693          	srl	a3,a4,0x2
    7010:	00155513          	srl	a0,a0,0x1
    7014:	00060c63          	beqz	a2,702c <crcu32+0x2b8>
    7018:	ffffa637          	lui	a2,0xffffa
    701c:	00160613          	add	a2,a2,1 # ffffa001 <start_time_val+0xffff0975>
    7020:	00c54533          	xor	a0,a0,a2
    7024:	01051513          	sll	a0,a0,0x10
    7028:	01055513          	srl	a0,a0,0x10
    702c:	00a6c6b3          	xor	a3,a3,a0
    7030:	0016f693          	and	a3,a3,1
    7034:	00375613          	srl	a2,a4,0x3
    7038:	00155513          	srl	a0,a0,0x1
    703c:	00068c63          	beqz	a3,7054 <crcu32+0x2e0>
    7040:	ffffa6b7          	lui	a3,0xffffa
    7044:	00168693          	add	a3,a3,1 # ffffa001 <start_time_val+0xffff0975>
    7048:	00d54533          	xor	a0,a0,a3
    704c:	01051513          	sll	a0,a0,0x10
    7050:	01055513          	srl	a0,a0,0x10
    7054:	00a64633          	xor	a2,a2,a0
    7058:	00167613          	and	a2,a2,1
    705c:	00475693          	srl	a3,a4,0x4
    7060:	00155513          	srl	a0,a0,0x1
    7064:	00060c63          	beqz	a2,707c <crcu32+0x308>
    7068:	ffffa637          	lui	a2,0xffffa
    706c:	00160613          	add	a2,a2,1 # ffffa001 <start_time_val+0xffff0975>
    7070:	00c54533          	xor	a0,a0,a2
    7074:	01051513          	sll	a0,a0,0x10
    7078:	01055513          	srl	a0,a0,0x10
    707c:	00a6c6b3          	xor	a3,a3,a0
    7080:	0016f693          	and	a3,a3,1
    7084:	00575613          	srl	a2,a4,0x5
    7088:	00155513          	srl	a0,a0,0x1
    708c:	00068c63          	beqz	a3,70a4 <crcu32+0x330>
    7090:	ffffa6b7          	lui	a3,0xffffa
    7094:	00168693          	add	a3,a3,1 # ffffa001 <start_time_val+0xffff0975>
    7098:	00d54533          	xor	a0,a0,a3
    709c:	01051513          	sll	a0,a0,0x10
    70a0:	01055513          	srl	a0,a0,0x10
    70a4:	00a64633          	xor	a2,a2,a0
    70a8:	00167613          	and	a2,a2,1
    70ac:	00675693          	srl	a3,a4,0x6
    70b0:	00155513          	srl	a0,a0,0x1
    70b4:	00060c63          	beqz	a2,70cc <crcu32+0x358>
    70b8:	ffffa637          	lui	a2,0xffffa
    70bc:	00160613          	add	a2,a2,1 # ffffa001 <start_time_val+0xffff0975>
    70c0:	00c54533          	xor	a0,a0,a2
    70c4:	01051513          	sll	a0,a0,0x10
    70c8:	01055513          	srl	a0,a0,0x10
    70cc:	00a6c6b3          	xor	a3,a3,a0
    70d0:	0016f693          	and	a3,a3,1
    70d4:	00775713          	srl	a4,a4,0x7
    70d8:	00155513          	srl	a0,a0,0x1
    70dc:	00068c63          	beqz	a3,70f4 <crcu32+0x380>
    70e0:	ffffa6b7          	lui	a3,0xffffa
    70e4:	00168693          	add	a3,a3,1 # ffffa001 <start_time_val+0xffff0975>
    70e8:	00d54533          	xor	a0,a0,a3
    70ec:	01051513          	sll	a0,a0,0x10
    70f0:	01055513          	srl	a0,a0,0x10
    70f4:	00157693          	and	a3,a0,1
    70f8:	00155513          	srl	a0,a0,0x1
    70fc:	14e69263          	bne	a3,a4,7240 <crcu32+0x4cc>
    7100:	0087d713          	srl	a4,a5,0x8
    7104:	00a746b3          	xor	a3,a4,a0
    7108:	0016f693          	and	a3,a3,1
    710c:	0097d793          	srl	a5,a5,0x9
    7110:	00155513          	srl	a0,a0,0x1
    7114:	00068c63          	beqz	a3,712c <crcu32+0x3b8>
    7118:	ffffa6b7          	lui	a3,0xffffa
    711c:	00168693          	add	a3,a3,1 # ffffa001 <start_time_val+0xffff0975>
    7120:	00d54533          	xor	a0,a0,a3
    7124:	01051513          	sll	a0,a0,0x10
    7128:	01055513          	srl	a0,a0,0x10
    712c:	00a7c7b3          	xor	a5,a5,a0
    7130:	0017f793          	and	a5,a5,1
    7134:	00275693          	srl	a3,a4,0x2
    7138:	00155513          	srl	a0,a0,0x1
    713c:	00078c63          	beqz	a5,7154 <crcu32+0x3e0>
    7140:	ffffa7b7          	lui	a5,0xffffa
    7144:	00178793          	add	a5,a5,1 # ffffa001 <start_time_val+0xffff0975>
    7148:	00f54533          	xor	a0,a0,a5
    714c:	01051513          	sll	a0,a0,0x10
    7150:	01055513          	srl	a0,a0,0x10
    7154:	00a6c7b3          	xor	a5,a3,a0
    7158:	0017f793          	and	a5,a5,1
    715c:	00375693          	srl	a3,a4,0x3
    7160:	00155513          	srl	a0,a0,0x1
    7164:	00078c63          	beqz	a5,717c <crcu32+0x408>
    7168:	ffffa7b7          	lui	a5,0xffffa
    716c:	00178793          	add	a5,a5,1 # ffffa001 <start_time_val+0xffff0975>
    7170:	00f54533          	xor	a0,a0,a5
    7174:	01051513          	sll	a0,a0,0x10
    7178:	01055513          	srl	a0,a0,0x10
    717c:	00a6c6b3          	xor	a3,a3,a0
    7180:	0016f693          	and	a3,a3,1
    7184:	00475793          	srl	a5,a4,0x4
    7188:	00155513          	srl	a0,a0,0x1
    718c:	00068c63          	beqz	a3,71a4 <crcu32+0x430>
    7190:	ffffa6b7          	lui	a3,0xffffa
    7194:	00168693          	add	a3,a3,1 # ffffa001 <start_time_val+0xffff0975>
    7198:	00d54533          	xor	a0,a0,a3
    719c:	01051513          	sll	a0,a0,0x10
    71a0:	01055513          	srl	a0,a0,0x10
    71a4:	00a7c7b3          	xor	a5,a5,a0
    71a8:	0017f793          	and	a5,a5,1
    71ac:	00575693          	srl	a3,a4,0x5
    71b0:	00155513          	srl	a0,a0,0x1
    71b4:	00078c63          	beqz	a5,71cc <crcu32+0x458>
    71b8:	ffffa7b7          	lui	a5,0xffffa
    71bc:	00178793          	add	a5,a5,1 # ffffa001 <start_time_val+0xffff0975>
    71c0:	00f54533          	xor	a0,a0,a5
    71c4:	01051513          	sll	a0,a0,0x10
    71c8:	01055513          	srl	a0,a0,0x10
    71cc:	00a6c6b3          	xor	a3,a3,a0
    71d0:	0016f693          	and	a3,a3,1
    71d4:	00675793          	srl	a5,a4,0x6
    71d8:	00155513          	srl	a0,a0,0x1
    71dc:	00068c63          	beqz	a3,71f4 <crcu32+0x480>
    71e0:	ffffa6b7          	lui	a3,0xffffa
    71e4:	00168693          	add	a3,a3,1 # ffffa001 <start_time_val+0xffff0975>
    71e8:	00d54533          	xor	a0,a0,a3
    71ec:	01051513          	sll	a0,a0,0x10
    71f0:	01055513          	srl	a0,a0,0x10
    71f4:	00a7c7b3          	xor	a5,a5,a0
    71f8:	0017f793          	and	a5,a5,1
    71fc:	00775713          	srl	a4,a4,0x7
    7200:	00155513          	srl	a0,a0,0x1
    7204:	00078c63          	beqz	a5,721c <crcu32+0x4a8>
    7208:	ffffa7b7          	lui	a5,0xffffa
    720c:	00178793          	add	a5,a5,1 # ffffa001 <start_time_val+0xffff0975>
    7210:	00f54533          	xor	a0,a0,a5
    7214:	01051513          	sll	a0,a0,0x10
    7218:	01055513          	srl	a0,a0,0x10
    721c:	00157793          	and	a5,a0,1
    7220:	00155513          	srl	a0,a0,0x1
    7224:	00e78c63          	beq	a5,a4,723c <crcu32+0x4c8>
    7228:	ffffa7b7          	lui	a5,0xffffa
    722c:	00178793          	add	a5,a5,1 # ffffa001 <start_time_val+0xffff0975>
    7230:	00f54533          	xor	a0,a0,a5
    7234:	01051513          	sll	a0,a0,0x10
    7238:	01055513          	srl	a0,a0,0x10
    723c:	00008067          	ret
    7240:	ffffa737          	lui	a4,0xffffa
    7244:	00170713          	add	a4,a4,1 # ffffa001 <start_time_val+0xffff0975>
    7248:	00e54533          	xor	a0,a0,a4
    724c:	01051513          	sll	a0,a0,0x10
    7250:	01055513          	srl	a0,a0,0x10
    7254:	eadff06f          	j	7100 <crcu32+0x38c>
    7258:	ffffa737          	lui	a4,0xffffa
    725c:	00170713          	add	a4,a4,1 # ffffa001 <start_time_val+0xffff0975>
    7260:	00e54533          	xor	a0,a0,a4
    7264:	01051513          	sll	a0,a0,0x10
    7268:	01055513          	srl	a0,a0,0x10
    726c:	d65ff06f          	j	6fd0 <crcu32+0x25c>
    7270:	ffffa737          	lui	a4,0xffffa
    7274:	00170713          	add	a4,a4,1 # ffffa001 <start_time_val+0xffff0975>
    7278:	00e54533          	xor	a0,a0,a4
    727c:	01051513          	sll	a0,a0,0x10
    7280:	01055513          	srl	a0,a0,0x10
    7284:	c25ff06f          	j	6ea8 <crcu32+0x134>

00007288 <crc16>:
    7288:	0ff57713          	zext.b	a4,a0
    728c:	00b746b3          	xor	a3,a4,a1
    7290:	01051793          	sll	a5,a0,0x10
    7294:	0016f693          	and	a3,a3,1
    7298:	0107d793          	srl	a5,a5,0x10
    729c:	00175613          	srl	a2,a4,0x1
    72a0:	0015d513          	srl	a0,a1,0x1
    72a4:	00068c63          	beqz	a3,72bc <crc16+0x34>
    72a8:	ffffa6b7          	lui	a3,0xffffa
    72ac:	00168693          	add	a3,a3,1 # ffffa001 <start_time_val+0xffff0975>
    72b0:	00d54533          	xor	a0,a0,a3
    72b4:	01051513          	sll	a0,a0,0x10
    72b8:	01055513          	srl	a0,a0,0x10
    72bc:	00a64633          	xor	a2,a2,a0
    72c0:	00167613          	and	a2,a2,1
    72c4:	00275693          	srl	a3,a4,0x2
    72c8:	00155513          	srl	a0,a0,0x1
    72cc:	00060c63          	beqz	a2,72e4 <crc16+0x5c>
    72d0:	ffffa637          	lui	a2,0xffffa
    72d4:	00160613          	add	a2,a2,1 # ffffa001 <start_time_val+0xffff0975>
    72d8:	00c54533          	xor	a0,a0,a2
    72dc:	01051513          	sll	a0,a0,0x10
    72e0:	01055513          	srl	a0,a0,0x10
    72e4:	00a6c6b3          	xor	a3,a3,a0
    72e8:	0016f693          	and	a3,a3,1
    72ec:	00375613          	srl	a2,a4,0x3
    72f0:	00155513          	srl	a0,a0,0x1
    72f4:	00068c63          	beqz	a3,730c <crc16+0x84>
    72f8:	ffffa6b7          	lui	a3,0xffffa
    72fc:	00168693          	add	a3,a3,1 # ffffa001 <start_time_val+0xffff0975>
    7300:	00d54533          	xor	a0,a0,a3
    7304:	01051513          	sll	a0,a0,0x10
    7308:	01055513          	srl	a0,a0,0x10
    730c:	00a64633          	xor	a2,a2,a0
    7310:	00167613          	and	a2,a2,1
    7314:	00475693          	srl	a3,a4,0x4
    7318:	00155513          	srl	a0,a0,0x1
    731c:	00060c63          	beqz	a2,7334 <crc16+0xac>
    7320:	ffffa637          	lui	a2,0xffffa
    7324:	00160613          	add	a2,a2,1 # ffffa001 <start_time_val+0xffff0975>
    7328:	00c54533          	xor	a0,a0,a2
    732c:	01051513          	sll	a0,a0,0x10
    7330:	01055513          	srl	a0,a0,0x10
    7334:	00a6c6b3          	xor	a3,a3,a0
    7338:	0016f693          	and	a3,a3,1
    733c:	00575613          	srl	a2,a4,0x5
    7340:	00155513          	srl	a0,a0,0x1
    7344:	00068c63          	beqz	a3,735c <crc16+0xd4>
    7348:	ffffa6b7          	lui	a3,0xffffa
    734c:	00168693          	add	a3,a3,1 # ffffa001 <start_time_val+0xffff0975>
    7350:	00d54533          	xor	a0,a0,a3
    7354:	01051513          	sll	a0,a0,0x10
    7358:	01055513          	srl	a0,a0,0x10
    735c:	00a64633          	xor	a2,a2,a0
    7360:	00167613          	and	a2,a2,1
    7364:	00675693          	srl	a3,a4,0x6
    7368:	00155513          	srl	a0,a0,0x1
    736c:	00060c63          	beqz	a2,7384 <crc16+0xfc>
    7370:	ffffa637          	lui	a2,0xffffa
    7374:	00160613          	add	a2,a2,1 # ffffa001 <start_time_val+0xffff0975>
    7378:	00c54533          	xor	a0,a0,a2
    737c:	01051513          	sll	a0,a0,0x10
    7380:	01055513          	srl	a0,a0,0x10
    7384:	00a6c6b3          	xor	a3,a3,a0
    7388:	0016f693          	and	a3,a3,1
    738c:	00775713          	srl	a4,a4,0x7
    7390:	00155513          	srl	a0,a0,0x1
    7394:	00068c63          	beqz	a3,73ac <crc16+0x124>
    7398:	ffffa6b7          	lui	a3,0xffffa
    739c:	00168693          	add	a3,a3,1 # ffffa001 <start_time_val+0xffff0975>
    73a0:	00d54533          	xor	a0,a0,a3
    73a4:	01051513          	sll	a0,a0,0x10
    73a8:	01055513          	srl	a0,a0,0x10
    73ac:	00157693          	and	a3,a0,1
    73b0:	00155513          	srl	a0,a0,0x1
    73b4:	14e69263          	bne	a3,a4,74f8 <crc16+0x270>
    73b8:	0087d693          	srl	a3,a5,0x8
    73bc:	00a6c633          	xor	a2,a3,a0
    73c0:	00167613          	and	a2,a2,1
    73c4:	0097d713          	srl	a4,a5,0x9
    73c8:	00155513          	srl	a0,a0,0x1
    73cc:	00060c63          	beqz	a2,73e4 <crc16+0x15c>
    73d0:	ffffa7b7          	lui	a5,0xffffa
    73d4:	00178793          	add	a5,a5,1 # ffffa001 <start_time_val+0xffff0975>
    73d8:	00f54533          	xor	a0,a0,a5
    73dc:	01051513          	sll	a0,a0,0x10
    73e0:	01055513          	srl	a0,a0,0x10
    73e4:	00a74733          	xor	a4,a4,a0
    73e8:	00177713          	and	a4,a4,1
    73ec:	0026d793          	srl	a5,a3,0x2
    73f0:	00155513          	srl	a0,a0,0x1
    73f4:	00070c63          	beqz	a4,740c <crc16+0x184>
    73f8:	ffffa737          	lui	a4,0xffffa
    73fc:	00170713          	add	a4,a4,1 # ffffa001 <start_time_val+0xffff0975>
    7400:	00e54533          	xor	a0,a0,a4
    7404:	01051513          	sll	a0,a0,0x10
    7408:	01055513          	srl	a0,a0,0x10
    740c:	00a7c733          	xor	a4,a5,a0
    7410:	00177713          	and	a4,a4,1
    7414:	0036d793          	srl	a5,a3,0x3
    7418:	00155513          	srl	a0,a0,0x1
    741c:	00070c63          	beqz	a4,7434 <crc16+0x1ac>
    7420:	ffffa737          	lui	a4,0xffffa
    7424:	00170713          	add	a4,a4,1 # ffffa001 <start_time_val+0xffff0975>
    7428:	00e54533          	xor	a0,a0,a4
    742c:	01051513          	sll	a0,a0,0x10
    7430:	01055513          	srl	a0,a0,0x10
    7434:	00a7c7b3          	xor	a5,a5,a0
    7438:	0017f793          	and	a5,a5,1
    743c:	0046d713          	srl	a4,a3,0x4
    7440:	00155513          	srl	a0,a0,0x1
    7444:	00078c63          	beqz	a5,745c <crc16+0x1d4>
    7448:	ffffa7b7          	lui	a5,0xffffa
    744c:	00178793          	add	a5,a5,1 # ffffa001 <start_time_val+0xffff0975>
    7450:	00f54533          	xor	a0,a0,a5
    7454:	01051513          	sll	a0,a0,0x10
    7458:	01055513          	srl	a0,a0,0x10
    745c:	00a74733          	xor	a4,a4,a0
    7460:	00177713          	and	a4,a4,1
    7464:	0056d793          	srl	a5,a3,0x5
    7468:	00155513          	srl	a0,a0,0x1
    746c:	00070c63          	beqz	a4,7484 <crc16+0x1fc>
    7470:	ffffa737          	lui	a4,0xffffa
    7474:	00170713          	add	a4,a4,1 # ffffa001 <start_time_val+0xffff0975>
    7478:	00e54533          	xor	a0,a0,a4
    747c:	01051513          	sll	a0,a0,0x10
    7480:	01055513          	srl	a0,a0,0x10
    7484:	00a7c7b3          	xor	a5,a5,a0
    7488:	0017f793          	and	a5,a5,1
    748c:	0066d713          	srl	a4,a3,0x6
    7490:	00155513          	srl	a0,a0,0x1
    7494:	00078c63          	beqz	a5,74ac <crc16+0x224>
    7498:	ffffa7b7          	lui	a5,0xffffa
    749c:	00178793          	add	a5,a5,1 # ffffa001 <start_time_val+0xffff0975>
    74a0:	00f54533          	xor	a0,a0,a5
    74a4:	01051513          	sll	a0,a0,0x10
    74a8:	01055513          	srl	a0,a0,0x10
    74ac:	00a74733          	xor	a4,a4,a0
    74b0:	00177713          	and	a4,a4,1
    74b4:	0076d793          	srl	a5,a3,0x7
    74b8:	00155513          	srl	a0,a0,0x1
    74bc:	00070c63          	beqz	a4,74d4 <crc16+0x24c>
    74c0:	ffffa737          	lui	a4,0xffffa
    74c4:	00170713          	add	a4,a4,1 # ffffa001 <start_time_val+0xffff0975>
    74c8:	00e54533          	xor	a0,a0,a4
    74cc:	01051513          	sll	a0,a0,0x10
    74d0:	01055513          	srl	a0,a0,0x10
    74d4:	00157713          	and	a4,a0,1
    74d8:	00155513          	srl	a0,a0,0x1
    74dc:	00f70c63          	beq	a4,a5,74f4 <crc16+0x26c>
    74e0:	ffffa7b7          	lui	a5,0xffffa
    74e4:	00178793          	add	a5,a5,1 # ffffa001 <start_time_val+0xffff0975>
    74e8:	00f54533          	xor	a0,a0,a5
    74ec:	01051513          	sll	a0,a0,0x10
    74f0:	01055513          	srl	a0,a0,0x10
    74f4:	00008067          	ret
    74f8:	ffffa737          	lui	a4,0xffffa
    74fc:	00170713          	add	a4,a4,1 # ffffa001 <start_time_val+0xffff0975>
    7500:	00e54533          	xor	a0,a0,a4
    7504:	01051513          	sll	a0,a0,0x10
    7508:	01055513          	srl	a0,a0,0x10
    750c:	eadff06f          	j	73b8 <crc16+0x130>

00007510 <check_data_types>:
    7510:	00000513          	li	a0,0
    7514:	00008067          	ret

00007518 <barebones_clock>:
    7518:	c0002573          	rdcycle	a0
    751c:	00008067          	ret

00007520 <start_time>:
    7520:	c0002773          	rdcycle	a4
    7524:	000097b7          	lui	a5,0x9
    7528:	68e7a623          	sw	a4,1676(a5) # 968c <start_time_val>
    752c:	00008067          	ret

00007530 <stop_time>:
    7530:	c0002773          	rdcycle	a4
    7534:	000097b7          	lui	a5,0x9
    7538:	68e7a423          	sw	a4,1672(a5) # 9688 <stop_time_val>
    753c:	00008067          	ret

00007540 <get_time>:
    7540:	000097b7          	lui	a5,0x9
    7544:	6887a503          	lw	a0,1672(a5) # 9688 <stop_time_val>
    7548:	000097b7          	lui	a5,0x9
    754c:	68c7a783          	lw	a5,1676(a5) # 968c <start_time_val>
    7550:	40f50533          	sub	a0,a0,a5
    7554:	00008067          	ret

00007558 <time_in_secs>:
    7558:	019c07b7          	lui	a5,0x19c0
    755c:	cc078793          	add	a5,a5,-832 # 19bfcc0 <start_time_val+0x19b6634>
    7560:	02f55533          	divu	a0,a0,a5
    7564:	00008067          	ret

00007568 <portable_init>:
    7568:	00100793          	li	a5,1
    756c:	00f50023          	sb	a5,0(a0)
    7570:	00008067          	ret

00007574 <portable_fini>:
    7574:	00050023          	sb	zero,0(a0)
    7578:	00008067          	ret

0000757c <number>:
    757c:	fa010113          	add	sp,sp,-96
    7580:	04812e23          	sw	s0,92(sp)
    7584:	04912c23          	sw	s1,88(sp)
    7588:	0407f893          	and	a7,a5,64
    758c:	00050813          	mv	a6,a0
    7590:	44088c63          	beqz	a7,79e8 <number+0x46c>
    7594:	00009f37          	lui	t5,0x9
    7598:	0107f293          	and	t0,a5,16
    759c:	3d8f0f13          	add	t5,t5,984 # 93d8 <ee_printf+0x18e8>
    75a0:	44029c63          	bnez	t0,79f8 <number+0x47c>
    75a4:	0017f513          	and	a0,a5,1
    75a8:	0117f493          	and	s1,a5,17
    75ac:	03000f93          	li	t6,48
    75b0:	44050863          	beqz	a0,7a00 <number+0x484>
    75b4:	0027f513          	and	a0,a5,2
    75b8:	0207f393          	and	t2,a5,32
    75bc:	44050a63          	beqz	a0,7a10 <number+0x494>
    75c0:	4405cc63          	bltz	a1,7a18 <number+0x49c>
    75c4:	0047f513          	and	a0,a5,4
    75c8:	48051c63          	bnez	a0,7a60 <number+0x4e4>
    75cc:	0087f793          	and	a5,a5,8
    75d0:	00000413          	li	s0,0
    75d4:	00078663          	beqz	a5,75e0 <number+0x64>
    75d8:	fff68693          	add	a3,a3,-1
    75dc:	02000413          	li	s0,32
    75e0:	00038c63          	beqz	t2,75f8 <number+0x7c>
    75e4:	01000793          	li	a5,16
    75e8:	4af60c63          	beq	a2,a5,7aa0 <number+0x524>
    75ec:	ff860793          	add	a5,a2,-8
    75f0:	0017b793          	seqz	a5,a5
    75f4:	40f686b3          	sub	a3,a3,a5
    75f8:	42059863          	bnez	a1,7a28 <number+0x4ac>
    75fc:	03000793          	li	a5,48
    7600:	00f10623          	sb	a5,12(sp)
    7604:	00100513          	li	a0,1
    7608:	00c10313          	add	t1,sp,12
    760c:	00050e13          	mv	t3,a0
    7610:	00e55463          	bge	a0,a4,7618 <number+0x9c>
    7614:	00070e13          	mv	t3,a4
    7618:	41c686b3          	sub	a3,a3,t3
    761c:	0e049063          	bnez	s1,76fc <number+0x180>
    7620:	fff68e93          	add	t4,a3,-1
    7624:	4ad05063          	blez	a3,7ac4 <number+0x548>
    7628:	41000733          	neg	a4,a6
    762c:	00500893          	li	a7,5
    7630:	00377793          	and	a5,a4,3
    7634:	4bd8f463          	bgeu	a7,t4,7adc <number+0x560>
    7638:	00080f13          	mv	t5,a6
    763c:	04078063          	beqz	a5,767c <number+0x100>
    7640:	02000893          	li	a7,32
    7644:	01180023          	sb	a7,0(a6)
    7648:	00277713          	and	a4,a4,2
    764c:	00180f13          	add	t5,a6,1
    7650:	ffe68e93          	add	t4,a3,-2
    7654:	02070463          	beqz	a4,767c <number+0x100>
    7658:	fff80713          	add	a4,a6,-1
    765c:	011800a3          	sb	a7,1(a6)
    7660:	00377713          	and	a4,a4,3
    7664:	00280f13          	add	t5,a6,2
    7668:	ffd68e93          	add	t4,a3,-3
    766c:	00071863          	bnez	a4,767c <number+0x100>
    7670:	00380f13          	add	t5,a6,3
    7674:	01180123          	sb	a7,2(a6)
    7678:	ffc68e93          	add	t4,a3,-4
    767c:	40f684b3          	sub	s1,a3,a5
    7680:	ffc4f893          	and	a7,s1,-4
    7684:	00f807b3          	add	a5,a6,a5
    7688:	20202737          	lui	a4,0x20202
    768c:	00f888b3          	add	a7,a7,a5
    7690:	02070713          	add	a4,a4,32 # 20202020 <start_time_val+0x201f8994>
    7694:	00e7a023          	sw	a4,0(a5)
    7698:	00478793          	add	a5,a5,4
    769c:	fef89ce3          	bne	a7,a5,7694 <number+0x118>
    76a0:	ffc4f713          	and	a4,s1,-4
    76a4:	0034f493          	and	s1,s1,3
    76a8:	00ef07b3          	add	a5,t5,a4
    76ac:	40ee8eb3          	sub	t4,t4,a4
    76b0:	04048263          	beqz	s1,76f4 <number+0x178>
    76b4:	02000713          	li	a4,32
    76b8:	00e78023          	sb	a4,0(a5)
    76bc:	03d05c63          	blez	t4,76f4 <number+0x178>
    76c0:	00e780a3          	sb	a4,1(a5)
    76c4:	00100893          	li	a7,1
    76c8:	031e8663          	beq	t4,a7,76f4 <number+0x178>
    76cc:	00e78123          	sb	a4,2(a5)
    76d0:	00200893          	li	a7,2
    76d4:	031e8063          	beq	t4,a7,76f4 <number+0x178>
    76d8:	00e781a3          	sb	a4,3(a5)
    76dc:	00300893          	li	a7,3
    76e0:	011e8a63          	beq	t4,a7,76f4 <number+0x178>
    76e4:	00e78223          	sb	a4,4(a5)
    76e8:	00400893          	li	a7,4
    76ec:	011e8463          	beq	t4,a7,76f4 <number+0x178>
    76f0:	00e782a3          	sb	a4,5(a5)
    76f4:	00d80833          	add	a6,a6,a3
    76f8:	fff00693          	li	a3,-1
    76fc:	00040663          	beqz	s0,7708 <number+0x18c>
    7700:	00880023          	sb	s0,0(a6)
    7704:	00180813          	add	a6,a6,1
    7708:	00038a63          	beqz	t2,771c <number+0x1a0>
    770c:	00800793          	li	a5,8
    7710:	38f60063          	beq	a2,a5,7a90 <number+0x514>
    7714:	01000793          	li	a5,16
    7718:	34f60a63          	beq	a2,a5,7a6c <number+0x4f0>
    771c:	0e029463          	bnez	t0,7804 <number+0x288>
    7720:	fff68893          	add	a7,a3,-1
    7724:	3ad05463          	blez	a3,7acc <number+0x550>
    7728:	41000733          	neg	a4,a6
    772c:	00500613          	li	a2,5
    7730:	00377793          	and	a5,a4,3
    7734:	3b167063          	bgeu	a2,a7,7ad4 <number+0x558>
    7738:	00080e93          	mv	t4,a6
    773c:	02078e63          	beqz	a5,7778 <number+0x1fc>
    7740:	01f80023          	sb	t6,0(a6)
    7744:	00277713          	and	a4,a4,2
    7748:	00180e93          	add	t4,a6,1
    774c:	ffe68893          	add	a7,a3,-2
    7750:	02070463          	beqz	a4,7778 <number+0x1fc>
    7754:	fff80713          	add	a4,a6,-1
    7758:	01f800a3          	sb	t6,1(a6)
    775c:	00377713          	and	a4,a4,3
    7760:	00280e93          	add	t4,a6,2
    7764:	ffd68893          	add	a7,a3,-3
    7768:	00071863          	bnez	a4,7778 <number+0x1fc>
    776c:	00380e93          	add	t4,a6,3
    7770:	01f80123          	sb	t6,2(a6)
    7774:	ffc68893          	add	a7,a3,-4
    7778:	008f9713          	sll	a4,t6,0x8
    777c:	40f68f33          	sub	t5,a3,a5
    7780:	010f9613          	sll	a2,t6,0x10
    7784:	00efe733          	or	a4,t6,a4
    7788:	00c76733          	or	a4,a4,a2
    778c:	018f9293          	sll	t0,t6,0x18
    7790:	00f807b3          	add	a5,a6,a5
    7794:	ffcf7613          	and	a2,t5,-4
    7798:	00576733          	or	a4,a4,t0
    779c:	00f60633          	add	a2,a2,a5
    77a0:	00e7a023          	sw	a4,0(a5)
    77a4:	00478793          	add	a5,a5,4
    77a8:	fec79ce3          	bne	a5,a2,77a0 <number+0x224>
    77ac:	ffcf7713          	and	a4,t5,-4
    77b0:	003f7f13          	and	t5,t5,3
    77b4:	00ee87b3          	add	a5,t4,a4
    77b8:	40e888b3          	sub	a7,a7,a4
    77bc:	040f0063          	beqz	t5,77fc <number+0x280>
    77c0:	01f78023          	sb	t6,0(a5)
    77c4:	03105c63          	blez	a7,77fc <number+0x280>
    77c8:	01f780a3          	sb	t6,1(a5)
    77cc:	00100713          	li	a4,1
    77d0:	02e88663          	beq	a7,a4,77fc <number+0x280>
    77d4:	01f78123          	sb	t6,2(a5)
    77d8:	00200713          	li	a4,2
    77dc:	02e88063          	beq	a7,a4,77fc <number+0x280>
    77e0:	01f781a3          	sb	t6,3(a5)
    77e4:	00300713          	li	a4,3
    77e8:	00e88a63          	beq	a7,a4,77fc <number+0x280>
    77ec:	01f78223          	sb	t6,4(a5)
    77f0:	00400713          	li	a4,4
    77f4:	00e88463          	beq	a7,a4,77fc <number+0x280>
    77f8:	01f782a3          	sb	t6,5(a5)
    77fc:	00d80833          	add	a6,a6,a3
    7800:	fff00693          	li	a3,-1
    7804:	fffe0893          	add	a7,t3,-1
    7808:	0dc55e63          	bge	a0,t3,78e4 <number+0x368>
    780c:	40ae0f33          	sub	t5,t3,a0
    7810:	41000733          	neg	a4,a6
    7814:	ffff0e93          	add	t4,t5,-1
    7818:	00500613          	li	a2,5
    781c:	00377793          	and	a5,a4,3
    7820:	29d67e63          	bgeu	a2,t4,7abc <number+0x540>
    7824:	00080e93          	mv	t4,a6
    7828:	04078063          	beqz	a5,7868 <number+0x2ec>
    782c:	03000613          	li	a2,48
    7830:	00c80023          	sb	a2,0(a6)
    7834:	00277713          	and	a4,a4,2
    7838:	00180e93          	add	t4,a6,1
    783c:	ffee0893          	add	a7,t3,-2
    7840:	02070463          	beqz	a4,7868 <number+0x2ec>
    7844:	fff80713          	add	a4,a6,-1
    7848:	00c800a3          	sb	a2,1(a6)
    784c:	00377713          	and	a4,a4,3
    7850:	00280e93          	add	t4,a6,2
    7854:	ffde0893          	add	a7,t3,-3
    7858:	00071863          	bnez	a4,7868 <number+0x2ec>
    785c:	00380e93          	add	t4,a6,3
    7860:	00c80123          	sb	a2,2(a6)
    7864:	ffce0893          	add	a7,t3,-4
    7868:	40ff0e33          	sub	t3,t5,a5
    786c:	ffce7613          	and	a2,t3,-4
    7870:	00f807b3          	add	a5,a6,a5
    7874:	30303737          	lui	a4,0x30303
    7878:	00f60633          	add	a2,a2,a5
    787c:	03070713          	add	a4,a4,48 # 30303030 <start_time_val+0x302f99a4>
    7880:	00e7a023          	sw	a4,0(a5)
    7884:	00478793          	add	a5,a5,4
    7888:	fef61ce3          	bne	a2,a5,7880 <number+0x304>
    788c:	003e7793          	and	a5,t3,3
    7890:	04078863          	beqz	a5,78e0 <number+0x364>
    7894:	ffce7e13          	and	t3,t3,-4
    7898:	01ce87b3          	add	a5,t4,t3
    789c:	41c888b3          	sub	a7,a7,t3
    78a0:	03000713          	li	a4,48
    78a4:	00e78023          	sb	a4,0(a5)
    78a8:	fff88613          	add	a2,a7,-1
    78ac:	03155a63          	bge	a0,a7,78e0 <number+0x364>
    78b0:	00e780a3          	sb	a4,1(a5)
    78b4:	ffe88e13          	add	t3,a7,-2
    78b8:	02c55463          	bge	a0,a2,78e0 <number+0x364>
    78bc:	00e78123          	sb	a4,2(a5)
    78c0:	ffd88613          	add	a2,a7,-3
    78c4:	01c55e63          	bge	a0,t3,78e0 <number+0x364>
    78c8:	00e781a3          	sb	a4,3(a5)
    78cc:	ffc88893          	add	a7,a7,-4
    78d0:	00c55863          	bge	a0,a2,78e0 <number+0x364>
    78d4:	00e78223          	sb	a4,4(a5)
    78d8:	01155463          	bge	a0,a7,78e0 <number+0x364>
    78dc:	00e782a3          	sb	a4,5(a5)
    78e0:	01e80833          	add	a6,a6,t5
    78e4:	00b307b3          	add	a5,t1,a1
    78e8:	00080713          	mv	a4,a6
    78ec:	0007c503          	lbu	a0,0(a5)
    78f0:	00078613          	mv	a2,a5
    78f4:	00170713          	add	a4,a4,1
    78f8:	fea70fa3          	sb	a0,-1(a4)
    78fc:	fff78793          	add	a5,a5,-1
    7900:	fec316e3          	bne	t1,a2,78ec <number+0x370>
    7904:	00158593          	add	a1,a1,1
    7908:	00b80533          	add	a0,a6,a1
    790c:	fff68613          	add	a2,a3,-1
    7910:	0cd05463          	blez	a3,79d8 <number+0x45c>
    7914:	40a00733          	neg	a4,a0
    7918:	00500893          	li	a7,5
    791c:	00377793          	and	a5,a4,3
    7920:	18c8fa63          	bgeu	a7,a2,7ab4 <number+0x538>
    7924:	00050893          	mv	a7,a0
    7928:	02078863          	beqz	a5,7958 <number+0x3dc>
    792c:	02000613          	li	a2,32
    7930:	00c50023          	sb	a2,0(a0)
    7934:	00277713          	and	a4,a4,2
    7938:	14070663          	beqz	a4,7a84 <number+0x508>
    793c:	fff50713          	add	a4,a0,-1
    7940:	00c500a3          	sb	a2,1(a0)
    7944:	00377713          	and	a4,a4,3
    7948:	16071063          	bnez	a4,7aa8 <number+0x52c>
    794c:	00c50123          	sb	a2,2(a0)
    7950:	00350893          	add	a7,a0,3
    7954:	ffc68613          	add	a2,a3,-4
    7958:	40f68333          	sub	t1,a3,a5
    795c:	00b787b3          	add	a5,a5,a1
    7960:	00f805b3          	add	a1,a6,a5
    7964:	ffc37713          	and	a4,t1,-4
    7968:	202027b7          	lui	a5,0x20202
    796c:	00b70733          	add	a4,a4,a1
    7970:	02078793          	add	a5,a5,32 # 20202020 <start_time_val+0x201f8994>
    7974:	00f5a023          	sw	a5,0(a1)
    7978:	00458593          	add	a1,a1,4
    797c:	fee59ce3          	bne	a1,a4,7974 <number+0x3f8>
    7980:	00337793          	and	a5,t1,3
    7984:	04078863          	beqz	a5,79d4 <number+0x458>
    7988:	ffc37313          	and	t1,t1,-4
    798c:	006887b3          	add	a5,a7,t1
    7990:	40660633          	sub	a2,a2,t1
    7994:	02000713          	li	a4,32
    7998:	00e78023          	sb	a4,0(a5)
    799c:	02c05c63          	blez	a2,79d4 <number+0x458>
    79a0:	00e780a3          	sb	a4,1(a5)
    79a4:	00100593          	li	a1,1
    79a8:	02b60663          	beq	a2,a1,79d4 <number+0x458>
    79ac:	00e78123          	sb	a4,2(a5)
    79b0:	00200593          	li	a1,2
    79b4:	02b60063          	beq	a2,a1,79d4 <number+0x458>
    79b8:	00e781a3          	sb	a4,3(a5)
    79bc:	00300593          	li	a1,3
    79c0:	00b60a63          	beq	a2,a1,79d4 <number+0x458>
    79c4:	00e78223          	sb	a4,4(a5)
    79c8:	00400593          	li	a1,4
    79cc:	00b60463          	beq	a2,a1,79d4 <number+0x458>
    79d0:	00e782a3          	sb	a4,5(a5)
    79d4:	00d50533          	add	a0,a0,a3
    79d8:	05c12403          	lw	s0,92(sp)
    79dc:	05812483          	lw	s1,88(sp)
    79e0:	06010113          	add	sp,sp,96
    79e4:	00008067          	ret
    79e8:	00009f37          	lui	t5,0x9
    79ec:	0107f293          	and	t0,a5,16
    79f0:	3b0f0f13          	add	t5,t5,944 # 93b0 <ee_printf+0x18c0>
    79f4:	ba0288e3          	beqz	t0,75a4 <number+0x28>
    79f8:	ffe7f793          	and	a5,a5,-2
    79fc:	00028493          	mv	s1,t0
    7a00:	0027f513          	and	a0,a5,2
    7a04:	02000f93          	li	t6,32
    7a08:	0207f393          	and	t2,a5,32
    7a0c:	ba051ae3          	bnez	a0,75c0 <number+0x44>
    7a10:	00000413          	li	s0,0
    7a14:	bcdff06f          	j	75e0 <number+0x64>
    7a18:	40b005b3          	neg	a1,a1
    7a1c:	fff68693          	add	a3,a3,-1
    7a20:	02d00413          	li	s0,45
    7a24:	bc0390e3          	bnez	t2,75e4 <number+0x68>
    7a28:	00058793          	mv	a5,a1
    7a2c:	00000513          	li	a0,0
    7a30:	00c10313          	add	t1,sp,12
    7a34:	02c7f8b3          	remu	a7,a5,a2
    7a38:	00050593          	mv	a1,a0
    7a3c:	00150513          	add	a0,a0,1
    7a40:	00a30eb3          	add	t4,t1,a0
    7a44:	00078e13          	mv	t3,a5
    7a48:	011f08b3          	add	a7,t5,a7
    7a4c:	0008c883          	lbu	a7,0(a7)
    7a50:	02c7d7b3          	divu	a5,a5,a2
    7a54:	ff1e8fa3          	sb	a7,-1(t4)
    7a58:	fcce7ee3          	bgeu	t3,a2,7a34 <number+0x4b8>
    7a5c:	bb1ff06f          	j	760c <number+0x90>
    7a60:	fff68693          	add	a3,a3,-1
    7a64:	02b00413          	li	s0,43
    7a68:	b79ff06f          	j	75e0 <number+0x64>
    7a6c:	03000793          	li	a5,48
    7a70:	00f80023          	sb	a5,0(a6)
    7a74:	07800793          	li	a5,120
    7a78:	00f800a3          	sb	a5,1(a6)
    7a7c:	00280813          	add	a6,a6,2
    7a80:	c9dff06f          	j	771c <number+0x1a0>
    7a84:	00150893          	add	a7,a0,1
    7a88:	ffe68613          	add	a2,a3,-2
    7a8c:	ecdff06f          	j	7958 <number+0x3dc>
    7a90:	03000793          	li	a5,48
    7a94:	00f80023          	sb	a5,0(a6)
    7a98:	00180813          	add	a6,a6,1
    7a9c:	c81ff06f          	j	771c <number+0x1a0>
    7aa0:	ffe68693          	add	a3,a3,-2
    7aa4:	b55ff06f          	j	75f8 <number+0x7c>
    7aa8:	00250893          	add	a7,a0,2
    7aac:	ffd68613          	add	a2,a3,-3
    7ab0:	ea9ff06f          	j	7958 <number+0x3dc>
    7ab4:	00050793          	mv	a5,a0
    7ab8:	eddff06f          	j	7994 <number+0x418>
    7abc:	00080793          	mv	a5,a6
    7ac0:	de1ff06f          	j	78a0 <number+0x324>
    7ac4:	000e8693          	mv	a3,t4
    7ac8:	c35ff06f          	j	76fc <number+0x180>
    7acc:	00088693          	mv	a3,a7
    7ad0:	d35ff06f          	j	7804 <number+0x288>
    7ad4:	00080793          	mv	a5,a6
    7ad8:	ce9ff06f          	j	77c0 <number+0x244>
    7adc:	00080793          	mv	a5,a6
    7ae0:	bd5ff06f          	j	76b4 <number+0x138>

00007ae4 <uart_send_char>:
    7ae4:	ff0007b7          	lui	a5,0xff000
    7ae8:	00a7a023          	sw	a0,0(a5) # ff000000 <start_time_val+0xfeff6974>
    7aec:	00008067          	ret

00007af0 <ee_printf>:
    7af0:	b8010113          	add	sp,sp,-1152
    7af4:	44912a23          	sw	s1,1108(sp)
    7af8:	44112e23          	sw	ra,1116(sp)
    7afc:	44812c23          	sw	s0,1112(sp)
    7b00:	45212823          	sw	s2,1104(sp)
    7b04:	45312623          	sw	s3,1100(sp)
    7b08:	45412423          	sw	s4,1096(sp)
    7b0c:	45512223          	sw	s5,1092(sp)
    7b10:	45612023          	sw	s6,1088(sp)
    7b14:	43712e23          	sw	s7,1084(sp)
    7b18:	43812c23          	sw	s8,1080(sp)
    7b1c:	43912a23          	sw	s9,1076(sp)
    7b20:	43a12823          	sw	s10,1072(sp)
    7b24:	43b12623          	sw	s11,1068(sp)
    7b28:	46b12223          	sw	a1,1124(sp)
    7b2c:	46c12423          	sw	a2,1128(sp)
    7b30:	46d12623          	sw	a3,1132(sp)
    7b34:	46e12823          	sw	a4,1136(sp)
    7b38:	46f12a23          	sw	a5,1140(sp)
    7b3c:	47012c23          	sw	a6,1144(sp)
    7b40:	47112e23          	sw	a7,1148(sp)
    7b44:	00054783          	lbu	a5,0(a0)
    7b48:	46410493          	add	s1,sp,1124
    7b4c:	00912223          	sw	s1,4(sp)
    7b50:	00079463          	bnez	a5,7b58 <ee_printf+0x68>
    7b54:	7f50006f          	j	8b48 <ee_printf+0x1058>
    7b58:	02010a13          	add	s4,sp,32
    7b5c:	00009937          	lui	s2,0x9
    7b60:	00050313          	mv	t1,a0
    7b64:	02500993          	li	s3,37
    7b68:	000a0513          	mv	a0,s4
    7b6c:	01000413          	li	s0,16
    7b70:	46090913          	add	s2,s2,1120 # 9460 <errpat+0x28>
    7b74:	00900b93          	li	s7,9
    7b78:	02e00b13          	li	s6,46
    7b7c:	04c00a93          	li	s5,76
    7b80:	09378263          	beq	a5,s3,7c04 <ee_printf+0x114>
    7b84:	00f50023          	sb	a5,0(a0)
    7b88:	00134783          	lbu	a5,1(t1)
    7b8c:	00150513          	add	a0,a0,1
    7b90:	00130313          	add	t1,t1,1
    7b94:	fe0796e3          	bnez	a5,7b80 <ee_printf+0x90>
    7b98:	00050023          	sb	zero,0(a0)
    7b9c:	02014703          	lbu	a4,32(sp)
    7ba0:	7a0700e3          	beqz	a4,8b40 <ee_printf+0x1050>
    7ba4:	000a0793          	mv	a5,s4
    7ba8:	ff0006b7          	lui	a3,0xff000
    7bac:	00e6a023          	sw	a4,0(a3) # ff000000 <start_time_val+0xfeff6974>
    7bb0:	0017c703          	lbu	a4,1(a5)
    7bb4:	00078513          	mv	a0,a5
    7bb8:	00178793          	add	a5,a5,1
    7bbc:	fe0718e3          	bnez	a4,7bac <ee_printf+0xbc>
    7bc0:	41450533          	sub	a0,a0,s4
    7bc4:	00150513          	add	a0,a0,1
    7bc8:	45c12083          	lw	ra,1116(sp)
    7bcc:	45812403          	lw	s0,1112(sp)
    7bd0:	45412483          	lw	s1,1108(sp)
    7bd4:	45012903          	lw	s2,1104(sp)
    7bd8:	44c12983          	lw	s3,1100(sp)
    7bdc:	44812a03          	lw	s4,1096(sp)
    7be0:	44412a83          	lw	s5,1092(sp)
    7be4:	44012b03          	lw	s6,1088(sp)
    7be8:	43c12b83          	lw	s7,1084(sp)
    7bec:	43812c03          	lw	s8,1080(sp)
    7bf0:	43412c83          	lw	s9,1076(sp)
    7bf4:	43012d03          	lw	s10,1072(sp)
    7bf8:	42c12d83          	lw	s11,1068(sp)
    7bfc:	48010113          	add	sp,sp,1152
    7c00:	00008067          	ret
    7c04:	00000793          	li	a5,0
    7c08:	00134603          	lbu	a2,1(t1)
    7c0c:	00130593          	add	a1,t1,1
    7c10:	fe060713          	add	a4,a2,-32
    7c14:	0ff77713          	zext.b	a4,a4
    7c18:	00e46a63          	bltu	s0,a4,7c2c <ee_printf+0x13c>
    7c1c:	00271713          	sll	a4,a4,0x2
    7c20:	01270733          	add	a4,a4,s2
    7c24:	00072703          	lw	a4,0(a4)
    7c28:	00070067          	jr	a4
    7c2c:	fd060713          	add	a4,a2,-48
    7c30:	0ff77713          	zext.b	a4,a4
    7c34:	10ebfc63          	bgeu	s7,a4,7d4c <ee_printf+0x25c>
    7c38:	02a00713          	li	a4,42
    7c3c:	fff00693          	li	a3,-1
    7c40:	14e60063          	beq	a2,a4,7d80 <ee_printf+0x290>
    7c44:	fff00713          	li	a4,-1
    7c48:	0d660c63          	beq	a2,s6,7d20 <ee_printf+0x230>
    7c4c:	0df67813          	and	a6,a2,223
    7c50:	09580e63          	beq	a6,s5,7cec <ee_printf+0x1fc>
    7c54:	fbf60813          	add	a6,a2,-65
    7c58:	0ff87813          	zext.b	a6,a6
    7c5c:	03700893          	li	a7,55
    7c60:	0508ec63          	bltu	a7,a6,7cb8 <ee_printf+0x1c8>
    7c64:	000098b7          	lui	a7,0x9
    7c68:	00281813          	sll	a6,a6,0x2
    7c6c:	4a488893          	add	a7,a7,1188 # 94a4 <errpat+0x6c>
    7c70:	01180833          	add	a6,a6,a7
    7c74:	00082803          	lw	a6,0(a6)
    7c78:	00080067          	jr	a6
    7c7c:	0017e793          	or	a5,a5,1
    7c80:	00058313          	mv	t1,a1
    7c84:	f85ff06f          	j	7c08 <ee_printf+0x118>
    7c88:	0107e793          	or	a5,a5,16
    7c8c:	00058313          	mv	t1,a1
    7c90:	f79ff06f          	j	7c08 <ee_printf+0x118>
    7c94:	0047e793          	or	a5,a5,4
    7c98:	00058313          	mv	t1,a1
    7c9c:	f6dff06f          	j	7c08 <ee_printf+0x118>
    7ca0:	0207e793          	or	a5,a5,32
    7ca4:	00058313          	mv	t1,a1
    7ca8:	f61ff06f          	j	7c08 <ee_printf+0x118>
    7cac:	0087e793          	or	a5,a5,8
    7cb0:	00058313          	mv	t1,a1
    7cb4:	f55ff06f          	j	7c08 <ee_printf+0x118>
    7cb8:	00058c13          	mv	s8,a1
    7cbc:	02500793          	li	a5,37
    7cc0:	00f60a63          	beq	a2,a5,7cd4 <ee_printf+0x1e4>
    7cc4:	00f50023          	sb	a5,0(a0)
    7cc8:	000c4603          	lbu	a2,0(s8)
    7ccc:	00150513          	add	a0,a0,1
    7cd0:	ec0604e3          	beqz	a2,7b98 <ee_printf+0xa8>
    7cd4:	00c50023          	sb	a2,0(a0)
    7cd8:	001c4783          	lbu	a5,1(s8)
    7cdc:	001c0313          	add	t1,s8,1
    7ce0:	00150513          	add	a0,a0,1
    7ce4:	e8079ee3          	bnez	a5,7b80 <ee_printf+0x90>
    7ce8:	eb1ff06f          	j	7b98 <ee_printf+0xa8>
    7cec:	00060313          	mv	t1,a2
    7cf0:	0015c603          	lbu	a2,1(a1)
    7cf4:	03700893          	li	a7,55
    7cf8:	00158c13          	add	s8,a1,1
    7cfc:	fbf60813          	add	a6,a2,-65
    7d00:	0ff87813          	zext.b	a6,a6
    7d04:	fb08ece3          	bltu	a7,a6,7cbc <ee_printf+0x1cc>
    7d08:	000098b7          	lui	a7,0x9
    7d0c:	00281813          	sll	a6,a6,0x2
    7d10:	58488893          	add	a7,a7,1412 # 9584 <errpat+0x14c>
    7d14:	01180833          	add	a6,a6,a7
    7d18:	00082803          	lw	a6,0(a6)
    7d1c:	00080067          	jr	a6
    7d20:	0015c603          	lbu	a2,1(a1)
    7d24:	00900893          	li	a7,9
    7d28:	00158813          	add	a6,a1,1
    7d2c:	fd060713          	add	a4,a2,-48
    7d30:	0ff77713          	zext.b	a4,a4
    7d34:	7ee8f863          	bgeu	a7,a4,8524 <ee_printf+0xa34>
    7d38:	02a00713          	li	a4,42
    7d3c:	00e60ee3          	beq	a2,a4,8558 <ee_printf+0xa68>
    7d40:	00080593          	mv	a1,a6
    7d44:	00000713          	li	a4,0
    7d48:	f05ff06f          	j	7c4c <ee_printf+0x15c>
    7d4c:	00000693          	li	a3,0
    7d50:	00900813          	li	a6,9
    7d54:	00269713          	sll	a4,a3,0x2
    7d58:	00d70733          	add	a4,a4,a3
    7d5c:	00158593          	add	a1,a1,1
    7d60:	00171713          	sll	a4,a4,0x1
    7d64:	00c70733          	add	a4,a4,a2
    7d68:	0005c603          	lbu	a2,0(a1)
    7d6c:	fd070693          	add	a3,a4,-48
    7d70:	fd060713          	add	a4,a2,-48
    7d74:	0ff77713          	zext.b	a4,a4
    7d78:	fce87ee3          	bgeu	a6,a4,7d54 <ee_printf+0x264>
    7d7c:	ec9ff06f          	j	7c44 <ee_printf+0x154>
    7d80:	0004a683          	lw	a3,0(s1)
    7d84:	00234603          	lbu	a2,2(t1)
    7d88:	00230593          	add	a1,t1,2
    7d8c:	00448493          	add	s1,s1,4
    7d90:	ea06dae3          	bgez	a3,7c44 <ee_printf+0x154>
    7d94:	40d006b3          	neg	a3,a3
    7d98:	0107e793          	or	a5,a5,16
    7d9c:	ea9ff06f          	j	7c44 <ee_printf+0x154>
    7da0:	0407e793          	or	a5,a5,64
    7da4:	06c00713          	li	a4,108
    7da8:	7ce30863          	beq	t1,a4,8578 <ee_printf+0xa88>
    7dac:	0004a803          	lw	a6,0(s1)
    7db0:	00448493          	add	s1,s1,4
    7db4:	00084583          	lbu	a1,0(a6)
    7db8:	2c0588e3          	beqz	a1,8888 <ee_printf+0xd98>
    7dbc:	06300713          	li	a4,99
    7dc0:	62b750e3          	bge	a4,a1,8be0 <ee_printf+0x10f0>
    7dc4:	06400893          	li	a7,100
    7dc8:	0315efb3          	rem	t6,a1,a7
    7dcc:	00a00f13          	li	t5,10
    7dd0:	00009737          	lui	a4,0x9
    7dd4:	3b070713          	add	a4,a4,944 # 93b0 <ee_printf+0x18c0>
    7dd8:	00400313          	li	t1,4
    7ddc:	00300613          	li	a2,3
    7de0:	00200e13          	li	t3,2
    7de4:	03efceb3          	div	t4,t6,t5
    7de8:	0315c8b3          	div	a7,a1,a7
    7dec:	01d705b3          	add	a1,a4,t4
    7df0:	0005ce83          	lbu	t4,0(a1)
    7df4:	008e9e93          	sll	t4,t4,0x8
    7df8:	03efe5b3          	rem	a1,t6,t5
    7dfc:	011708b3          	add	a7,a4,a7
    7e00:	0008c883          	lbu	a7,0(a7)
    7e04:	01d8e8b3          	or	a7,a7,t4
    7e08:	01111423          	sh	a7,8(sp)
    7e0c:	00b705b3          	add	a1,a4,a1
    7e10:	0005c703          	lbu	a4,0(a1)
    7e14:	420e0593          	add	a1,t3,1056
    7e18:	00258e33          	add	t3,a1,sp
    7e1c:	beee0423          	sb	a4,-1048(t3)
    7e20:	00184583          	lbu	a1,1(a6)
    7e24:	42060713          	add	a4,a2,1056
    7e28:	00270e33          	add	t3,a4,sp
    7e2c:	02e00713          	li	a4,46
    7e30:	beee0423          	sb	a4,-1048(t3)
    7e34:	26058ee3          	beqz	a1,88b0 <ee_printf+0xdc0>
    7e38:	06300713          	li	a4,99
    7e3c:	60b75ae3          	bge	a4,a1,8c50 <ee_printf+0x1160>
    7e40:	06400893          	li	a7,100
    7e44:	42030313          	add	t1,t1,1056
    7e48:	00230fb3          	add	t6,t1,sp
    7e4c:	00360313          	add	t1,a2,3
    7e50:	00a00e93          	li	t4,10
    7e54:	00009737          	lui	a4,0x9
    7e58:	3b070713          	add	a4,a4,944 # 93b0 <ee_printf+0x18c0>
    7e5c:	0315ef33          	rem	t5,a1,a7
    7e60:	0315c633          	div	a2,a1,a7
    7e64:	03df45b3          	div	a1,t5,t4
    7e68:	00c70633          	add	a2,a4,a2
    7e6c:	00064603          	lbu	a2,0(a2)
    7e70:	becf8423          	sb	a2,-1048(t6)
    7e74:	00b70633          	add	a2,a4,a1
    7e78:	03df65b3          	rem	a1,t5,t4
    7e7c:	00064603          	lbu	a2,0(a2)
    7e80:	bece0523          	sb	a2,-1046(t3)
    7e84:	00b705b3          	add	a1,a4,a1
    7e88:	0005c883          	lbu	a7,0(a1)
    7e8c:	42030713          	add	a4,t1,1056
    7e90:	002705b3          	add	a1,a4,sp
    7e94:	bf158423          	sb	a7,-1048(a1)
    7e98:	00130613          	add	a2,t1,1
    7e9c:	42060713          	add	a4,a2,1056
    7ea0:	00284583          	lbu	a1,2(a6)
    7ea4:	00270e33          	add	t3,a4,sp
    7ea8:	02e00893          	li	a7,46
    7eac:	bf1e0423          	sb	a7,-1048(t3)
    7eb0:	00160313          	add	t1,a2,1
    7eb4:	220586e3          	beqz	a1,88e0 <ee_printf+0xdf0>
    7eb8:	06300893          	li	a7,99
    7ebc:	54b8dee3          	bge	a7,a1,8c18 <ee_printf+0x1128>
    7ec0:	06400893          	li	a7,100
    7ec4:	42030313          	add	t1,t1,1056
    7ec8:	00230fb3          	add	t6,t1,sp
    7ecc:	00360313          	add	t1,a2,3
    7ed0:	00a00e93          	li	t4,10
    7ed4:	00009737          	lui	a4,0x9
    7ed8:	3b070713          	add	a4,a4,944 # 93b0 <ee_printf+0x18c0>
    7edc:	0315ef33          	rem	t5,a1,a7
    7ee0:	0315c633          	div	a2,a1,a7
    7ee4:	03df48b3          	div	a7,t5,t4
    7ee8:	00c70633          	add	a2,a4,a2
    7eec:	00064603          	lbu	a2,0(a2)
    7ef0:	becf8423          	sb	a2,-1048(t6)
    7ef4:	03df65b3          	rem	a1,t5,t4
    7ef8:	01170633          	add	a2,a4,a7
    7efc:	00064603          	lbu	a2,0(a2)
    7f00:	bece0523          	sb	a2,-1046(t3)
    7f04:	00b70733          	add	a4,a4,a1
    7f08:	00074883          	lbu	a7,0(a4)
    7f0c:	42030713          	add	a4,t1,1056
    7f10:	00130613          	add	a2,t1,1
    7f14:	00270733          	add	a4,a4,sp
    7f18:	bf170423          	sb	a7,-1048(a4)
    7f1c:	00384583          	lbu	a1,3(a6)
    7f20:	42060713          	add	a4,a2,1056
    7f24:	00270333          	add	t1,a4,sp
    7f28:	02e00713          	li	a4,46
    7f2c:	bee30423          	sb	a4,-1048(t1)
    7f30:	00160893          	add	a7,a2,1
    7f34:	1c058ee3          	beqz	a1,8910 <ee_printf+0xe20>
    7f38:	06300713          	li	a4,99
    7f3c:	54b756e3          	bge	a4,a1,8c88 <ee_printf+0x1198>
    7f40:	06400813          	li	a6,100
    7f44:	42088893          	add	a7,a7,1056
    7f48:	00288f33          	add	t5,a7,sp
    7f4c:	00360893          	add	a7,a2,3
    7f50:	00a00e13          	li	t3,10
    7f54:	00009737          	lui	a4,0x9
    7f58:	3b070713          	add	a4,a4,944 # 93b0 <ee_printf+0x18c0>
    7f5c:	0305eeb3          	rem	t4,a1,a6
    7f60:	0305c633          	div	a2,a1,a6
    7f64:	03cec833          	div	a6,t4,t3
    7f68:	00c70633          	add	a2,a4,a2
    7f6c:	00064603          	lbu	a2,0(a2)
    7f70:	becf0423          	sb	a2,-1048(t5)
    7f74:	03cee5b3          	rem	a1,t4,t3
    7f78:	01070633          	add	a2,a4,a6
    7f7c:	00064603          	lbu	a2,0(a2)
    7f80:	bec30523          	sb	a2,-1046(t1)
    7f84:	00b70733          	add	a4,a4,a1
    7f88:	00074803          	lbu	a6,0(a4)
    7f8c:	42088713          	add	a4,a7,1056
    7f90:	00270633          	add	a2,a4,sp
    7f94:	bf060423          	sb	a6,-1048(a2)
    7f98:	00188713          	add	a4,a7,1
    7f9c:	0107f793          	and	a5,a5,16
    7fa0:	0e079463          	bnez	a5,8088 <ee_printf+0x598>
    7fa4:	fff68313          	add	t1,a3,-1
    7fa8:	6cd75ae3          	bge	a4,a3,8e7c <ee_printf+0x138c>
    7fac:	40e688b3          	sub	a7,a3,a4
    7fb0:	40a00633          	neg	a2,a0
    7fb4:	fff88813          	add	a6,a7,-1
    7fb8:	00500593          	li	a1,5
    7fbc:	00367793          	and	a5,a2,3
    7fc0:	6d05f8e3          	bgeu	a1,a6,8e90 <ee_printf+0x13a0>
    7fc4:	00050593          	mv	a1,a0
    7fc8:	04078063          	beqz	a5,8008 <ee_printf+0x518>
    7fcc:	02000813          	li	a6,32
    7fd0:	01050023          	sb	a6,0(a0)
    7fd4:	00267613          	and	a2,a2,2
    7fd8:	00150593          	add	a1,a0,1
    7fdc:	ffe68313          	add	t1,a3,-2
    7fe0:	02060463          	beqz	a2,8008 <ee_printf+0x518>
    7fe4:	fff50613          	add	a2,a0,-1
    7fe8:	010500a3          	sb	a6,1(a0)
    7fec:	00367613          	and	a2,a2,3
    7ff0:	00250593          	add	a1,a0,2
    7ff4:	ffd68313          	add	t1,a3,-3
    7ff8:	00061863          	bnez	a2,8008 <ee_printf+0x518>
    7ffc:	00350593          	add	a1,a0,3
    8000:	01050123          	sb	a6,2(a0)
    8004:	ffc68313          	add	t1,a3,-4
    8008:	40f88833          	sub	a6,a7,a5
    800c:	ffc87613          	and	a2,a6,-4
    8010:	00f507b3          	add	a5,a0,a5
    8014:	202026b7          	lui	a3,0x20202
    8018:	00f60633          	add	a2,a2,a5
    801c:	02068693          	add	a3,a3,32 # 20202020 <start_time_val+0x201f8994>
    8020:	00d7a023          	sw	a3,0(a5)
    8024:	00478793          	add	a5,a5,4
    8028:	fef61ce3          	bne	a2,a5,8020 <ee_printf+0x530>
    802c:	ffc87693          	and	a3,a6,-4
    8030:	00387813          	and	a6,a6,3
    8034:	00d587b3          	add	a5,a1,a3
    8038:	40d30333          	sub	t1,t1,a3
    803c:	04080263          	beqz	a6,8080 <ee_printf+0x590>
    8040:	02000693          	li	a3,32
    8044:	00d78023          	sb	a3,0(a5)
    8048:	fff30613          	add	a2,t1,-1
    804c:	02675a63          	bge	a4,t1,8080 <ee_printf+0x590>
    8050:	00d780a3          	sb	a3,1(a5)
    8054:	ffe30593          	add	a1,t1,-2
    8058:	02c75463          	bge	a4,a2,8080 <ee_printf+0x590>
    805c:	00d78123          	sb	a3,2(a5)
    8060:	ffd30613          	add	a2,t1,-3
    8064:	00b75e63          	bge	a4,a1,8080 <ee_printf+0x590>
    8068:	00d781a3          	sb	a3,3(a5)
    806c:	ffc30313          	add	t1,t1,-4
    8070:	00c75863          	bge	a4,a2,8080 <ee_printf+0x590>
    8074:	00d78223          	sb	a3,4(a5)
    8078:	00675463          	bge	a4,t1,8080 <ee_printf+0x590>
    807c:	00d782a3          	sb	a3,5(a5)
    8080:	01150533          	add	a0,a0,a7
    8084:	fff70693          	add	a3,a4,-1
    8088:	00357793          	and	a5,a0,3
    808c:	2c0784e3          	beqz	a5,8b54 <ee_printf+0x1064>
    8090:	00e14783          	lbu	a5,14(sp)
    8094:	00814e03          	lbu	t3,8(sp)
    8098:	00914303          	lbu	t1,9(sp)
    809c:	00a14883          	lbu	a7,10(sp)
    80a0:	00b14803          	lbu	a6,11(sp)
    80a4:	00c14583          	lbu	a1,12(sp)
    80a8:	00d14603          	lbu	a2,13(sp)
    80ac:	00f50323          	sb	a5,6(a0)
    80b0:	01c50023          	sb	t3,0(a0)
    80b4:	006500a3          	sb	t1,1(a0)
    80b8:	01150123          	sb	a7,2(a0)
    80bc:	010501a3          	sb	a6,3(a0)
    80c0:	00b50223          	sb	a1,4(a0)
    80c4:	00c502a3          	sb	a2,5(a0)
    80c8:	00700793          	li	a5,7
    80cc:	06f70e63          	beq	a4,a5,8148 <ee_printf+0x658>
    80d0:	00f14603          	lbu	a2,15(sp)
    80d4:	00800793          	li	a5,8
    80d8:	00c503a3          	sb	a2,7(a0)
    80dc:	06f70663          	beq	a4,a5,8148 <ee_printf+0x658>
    80e0:	01014603          	lbu	a2,16(sp)
    80e4:	00900793          	li	a5,9
    80e8:	00c50423          	sb	a2,8(a0)
    80ec:	04f70e63          	beq	a4,a5,8148 <ee_printf+0x658>
    80f0:	01114603          	lbu	a2,17(sp)
    80f4:	00a00793          	li	a5,10
    80f8:	00c504a3          	sb	a2,9(a0)
    80fc:	04f70663          	beq	a4,a5,8148 <ee_printf+0x658>
    8100:	01214603          	lbu	a2,18(sp)
    8104:	00b00793          	li	a5,11
    8108:	00c50523          	sb	a2,10(a0)
    810c:	02f70e63          	beq	a4,a5,8148 <ee_printf+0x658>
    8110:	01314603          	lbu	a2,19(sp)
    8114:	00c00793          	li	a5,12
    8118:	00c505a3          	sb	a2,11(a0)
    811c:	02f70663          	beq	a4,a5,8148 <ee_printf+0x658>
    8120:	01414603          	lbu	a2,20(sp)
    8124:	00d00793          	li	a5,13
    8128:	00c50623          	sb	a2,12(a0)
    812c:	00f70e63          	beq	a4,a5,8148 <ee_printf+0x658>
    8130:	01514603          	lbu	a2,21(sp)
    8134:	00f00793          	li	a5,15
    8138:	00c506a3          	sb	a2,13(a0)
    813c:	00f71663          	bne	a4,a5,8148 <ee_printf+0x658>
    8140:	01614783          	lbu	a5,22(sp)
    8144:	00f50723          	sb	a5,14(a0)
    8148:	00e50333          	add	t1,a0,a4
    814c:	fff68893          	add	a7,a3,-1
    8150:	48d758e3          	bge	a4,a3,8de0 <ee_printf+0x12f0>
    8154:	40e68633          	sub	a2,a3,a4
    8158:	406005b3          	neg	a1,t1
    815c:	fff60e13          	add	t3,a2,-1
    8160:	00500813          	li	a6,5
    8164:	0035f793          	and	a5,a1,3
    8168:	07c87863          	bgeu	a6,t3,81d8 <ee_printf+0x6e8>
    816c:	02078863          	beqz	a5,819c <ee_printf+0x6ac>
    8170:	02000813          	li	a6,32
    8174:	01030023          	sb	a6,0(t1)
    8178:	0025f593          	and	a1,a1,2
    817c:	340582e3          	beqz	a1,8cc0 <ee_printf+0x11d0>
    8180:	fff30593          	add	a1,t1,-1
    8184:	010300a3          	sb	a6,1(t1)
    8188:	0035f593          	and	a1,a1,3
    818c:	440594e3          	bnez	a1,8dd4 <ee_printf+0x12e4>
    8190:	01030123          	sb	a6,2(t1)
    8194:	ffc68893          	add	a7,a3,-4
    8198:	00330313          	add	t1,t1,3
    819c:	40f60633          	sub	a2,a2,a5
    81a0:	00e787b3          	add	a5,a5,a4
    81a4:	00f507b3          	add	a5,a0,a5
    81a8:	ffc67813          	and	a6,a2,-4
    81ac:	202025b7          	lui	a1,0x20202
    81b0:	00f80833          	add	a6,a6,a5
    81b4:	02058593          	add	a1,a1,32 # 20202020 <start_time_val+0x201f8994>
    81b8:	00b7a023          	sw	a1,0(a5)
    81bc:	00478793          	add	a5,a5,4
    81c0:	ff079ce3          	bne	a5,a6,81b8 <ee_printf+0x6c8>
    81c4:	ffc67793          	and	a5,a2,-4
    81c8:	00367613          	and	a2,a2,3
    81cc:	00f30333          	add	t1,t1,a5
    81d0:	40f888b3          	sub	a7,a7,a5
    81d4:	04060263          	beqz	a2,8218 <ee_printf+0x728>
    81d8:	02000793          	li	a5,32
    81dc:	00f30023          	sb	a5,0(t1)
    81e0:	fff88613          	add	a2,a7,-1
    81e4:	03175a63          	bge	a4,a7,8218 <ee_printf+0x728>
    81e8:	00f300a3          	sb	a5,1(t1)
    81ec:	ffe88593          	add	a1,a7,-2
    81f0:	02c75463          	bge	a4,a2,8218 <ee_printf+0x728>
    81f4:	00f30123          	sb	a5,2(t1)
    81f8:	ffd88613          	add	a2,a7,-3
    81fc:	00b75e63          	bge	a4,a1,8218 <ee_printf+0x728>
    8200:	00f301a3          	sb	a5,3(t1)
    8204:	ffc88893          	add	a7,a7,-4
    8208:	00c75863          	bge	a4,a2,8218 <ee_printf+0x728>
    820c:	00f30223          	sb	a5,4(t1)
    8210:	01175463          	bge	a4,a7,8218 <ee_printf+0x728>
    8214:	00f302a3          	sb	a5,5(t1)
    8218:	00d50533          	add	a0,a0,a3
    821c:	01c0006f          	j	8238 <ee_printf+0x748>
    8220:	0407e793          	or	a5,a5,64
    8224:	01000613          	li	a2,16
    8228:	00448813          	add	a6,s1,4
    822c:	0004a583          	lw	a1,0(s1)
    8230:	00080493          	mv	s1,a6
    8234:	b48ff0ef          	jal	757c <number>
    8238:	001c4783          	lbu	a5,1(s8)
    823c:	001c0313          	add	t1,s8,1
    8240:	940790e3          	bnez	a5,7b80 <ee_printf+0x90>
    8244:	955ff06f          	j	7b98 <ee_printf+0xa8>
    8248:	00058c13          	mv	s8,a1
    824c:	0107f793          	and	a5,a5,16
    8250:	00448e13          	add	t3,s1,4
    8254:	001c0313          	add	t1,s8,1
    8258:	6e078463          	beqz	a5,8940 <ee_printf+0xe50>
    825c:	0004a783          	lw	a5,0(s1)
    8260:	fff68593          	add	a1,a3,-1
    8264:	00150813          	add	a6,a0,1
    8268:	00f50023          	sb	a5,0(a0)
    826c:	48b054e3          	blez	a1,8ef4 <ee_printf+0x1404>
    8270:	41000733          	neg	a4,a6
    8274:	ffe68613          	add	a2,a3,-2
    8278:	00500e93          	li	t4,5
    827c:	00058893          	mv	a7,a1
    8280:	00377793          	and	a5,a4,3
    8284:	06ced663          	bge	t4,a2,82f0 <ee_printf+0x800>
    8288:	02078663          	beqz	a5,82b4 <ee_printf+0x7c4>
    828c:	02000593          	li	a1,32
    8290:	00b500a3          	sb	a1,1(a0)
    8294:	00277713          	and	a4,a4,2
    8298:	320702e3          	beqz	a4,8dbc <ee_printf+0x12cc>
    829c:	00b50123          	sb	a1,2(a0)
    82a0:	00357713          	and	a4,a0,3
    82a4:	38071ae3          	bnez	a4,8e38 <ee_printf+0x1348>
    82a8:	00b501a3          	sb	a1,3(a0)
    82ac:	00450813          	add	a6,a0,4
    82b0:	ffc68593          	add	a1,a3,-4
    82b4:	40f888b3          	sub	a7,a7,a5
    82b8:	00178793          	add	a5,a5,1
    82bc:	00f507b3          	add	a5,a0,a5
    82c0:	ffc8f613          	and	a2,a7,-4
    82c4:	20202737          	lui	a4,0x20202
    82c8:	00f60633          	add	a2,a2,a5
    82cc:	02070713          	add	a4,a4,32 # 20202020 <start_time_val+0x201f8994>
    82d0:	00e7a023          	sw	a4,0(a5)
    82d4:	00478793          	add	a5,a5,4
    82d8:	fec79ce3          	bne	a5,a2,82d0 <ee_printf+0x7e0>
    82dc:	0038f793          	and	a5,a7,3
    82e0:	04078a63          	beqz	a5,8334 <ee_printf+0x844>
    82e4:	ffc8f893          	and	a7,a7,-4
    82e8:	01180833          	add	a6,a6,a7
    82ec:	411585b3          	sub	a1,a1,a7
    82f0:	02000793          	li	a5,32
    82f4:	00f80023          	sb	a5,0(a6)
    82f8:	00100713          	li	a4,1
    82fc:	02b75c63          	bge	a4,a1,8334 <ee_printf+0x844>
    8300:	00f800a3          	sb	a5,1(a6)
    8304:	00200713          	li	a4,2
    8308:	02e58663          	beq	a1,a4,8334 <ee_printf+0x844>
    830c:	00f80123          	sb	a5,2(a6)
    8310:	00300713          	li	a4,3
    8314:	02e58063          	beq	a1,a4,8334 <ee_printf+0x844>
    8318:	00f801a3          	sb	a5,3(a6)
    831c:	00400713          	li	a4,4
    8320:	00e58a63          	beq	a1,a4,8334 <ee_printf+0x844>
    8324:	00f80223          	sb	a5,4(a6)
    8328:	00500713          	li	a4,5
    832c:	00e58463          	beq	a1,a4,8334 <ee_printf+0x844>
    8330:	00f802a3          	sb	a5,5(a6)
    8334:	001c4783          	lbu	a5,1(s8)
    8338:	00d50533          	add	a0,a0,a3
    833c:	000e0493          	mv	s1,t3
    8340:	840790e3          	bnez	a5,7b80 <ee_printf+0x90>
    8344:	855ff06f          	j	7b98 <ee_printf+0xa8>
    8348:	00058c13          	mv	s8,a1
    834c:	0004a583          	lw	a1,0(s1)
    8350:	00448493          	add	s1,s1,4
    8354:	5e058063          	beqz	a1,8934 <ee_printf+0xe44>
    8358:	0005c603          	lbu	a2,0(a1)
    835c:	220604e3          	beqz	a2,8d84 <ee_printf+0x1294>
    8360:	220702e3          	beqz	a4,8d84 <ee_printf+0x1294>
    8364:	00058613          	mv	a2,a1
    8368:	00c0006f          	j	8374 <ee_printf+0x884>
    836c:	40e60833          	sub	a6,a2,a4
    8370:	00b80863          	beq	a6,a1,8380 <ee_printf+0x890>
    8374:	00164803          	lbu	a6,1(a2)
    8378:	00160613          	add	a2,a2,1
    837c:	fe0818e3          	bnez	a6,836c <ee_printf+0x87c>
    8380:	0107f793          	and	a5,a5,16
    8384:	40b60633          	sub	a2,a2,a1
    8388:	6a078663          	beqz	a5,8a34 <ee_printf+0xf44>
    838c:	08c05663          	blez	a2,8418 <ee_printf+0x928>
    8390:	fff60793          	add	a5,a2,-1
    8394:	00600713          	li	a4,6
    8398:	78f77063          	bgeu	a4,a5,8b18 <ee_printf+0x1028>
    839c:	00b567b3          	or	a5,a0,a1
    83a0:	0037f793          	and	a5,a5,3
    83a4:	76079a63          	bnez	a5,8b18 <ee_printf+0x1028>
    83a8:	00158793          	add	a5,a1,1
    83ac:	40f50733          	sub	a4,a0,a5
    83b0:	00373713          	sltiu	a4,a4,3
    83b4:	76071463          	bnez	a4,8b1c <ee_printf+0x102c>
    83b8:	ffc67893          	and	a7,a2,-4
    83bc:	00058793          	mv	a5,a1
    83c0:	00050713          	mv	a4,a0
    83c4:	00b888b3          	add	a7,a7,a1
    83c8:	0007a803          	lw	a6,0(a5)
    83cc:	00478793          	add	a5,a5,4
    83d0:	00470713          	add	a4,a4,4
    83d4:	ff072e23          	sw	a6,-4(a4)
    83d8:	fef898e3          	bne	a7,a5,83c8 <ee_printf+0x8d8>
    83dc:	ffc67793          	and	a5,a2,-4
    83e0:	00f585b3          	add	a1,a1,a5
    83e4:	00f50733          	add	a4,a0,a5
    83e8:	02f60663          	beq	a2,a5,8414 <ee_printf+0x924>
    83ec:	0005c883          	lbu	a7,0(a1)
    83f0:	00178813          	add	a6,a5,1
    83f4:	01170023          	sb	a7,0(a4)
    83f8:	00c85e63          	bge	a6,a2,8414 <ee_printf+0x924>
    83fc:	0015c803          	lbu	a6,1(a1)
    8400:	00278793          	add	a5,a5,2
    8404:	010700a3          	sb	a6,1(a4)
    8408:	00c7d663          	bge	a5,a2,8414 <ee_printf+0x924>
    840c:	0025c783          	lbu	a5,2(a1)
    8410:	00f70123          	sb	a5,2(a4)
    8414:	00c50533          	add	a0,a0,a2
    8418:	fff68593          	add	a1,a3,-1
    841c:	001c0313          	add	t1,s8,1
    8420:	22d65ee3          	bge	a2,a3,8e5c <ee_printf+0x136c>
    8424:	40c68e33          	sub	t3,a3,a2
    8428:	40a00733          	neg	a4,a0
    842c:	fffe0893          	add	a7,t3,-1
    8430:	00500813          	li	a6,5
    8434:	00377793          	and	a5,a4,3
    8438:	23187ae3          	bgeu	a6,a7,8e6c <ee_printf+0x137c>
    843c:	00050813          	mv	a6,a0
    8440:	02078863          	beqz	a5,8470 <ee_printf+0x980>
    8444:	02000593          	li	a1,32
    8448:	00b50023          	sb	a1,0(a0)
    844c:	00277713          	and	a4,a4,2
    8450:	16070ce3          	beqz	a4,8dc8 <ee_printf+0x12d8>
    8454:	fff50713          	add	a4,a0,-1
    8458:	00b500a3          	sb	a1,1(a0)
    845c:	00377713          	and	a4,a4,3
    8460:	1e0712e3          	bnez	a4,8e44 <ee_printf+0x1354>
    8464:	00b50123          	sb	a1,2(a0)
    8468:	00350813          	add	a6,a0,3
    846c:	ffc68593          	add	a1,a3,-4
    8470:	40fe08b3          	sub	a7,t3,a5
    8474:	ffc8f693          	and	a3,a7,-4
    8478:	00f507b3          	add	a5,a0,a5
    847c:	20202737          	lui	a4,0x20202
    8480:	00f686b3          	add	a3,a3,a5
    8484:	02070713          	add	a4,a4,32 # 20202020 <start_time_val+0x201f8994>
    8488:	00e7a023          	sw	a4,0(a5)
    848c:	00478793          	add	a5,a5,4
    8490:	fed79ce3          	bne	a5,a3,8488 <ee_printf+0x998>
    8494:	0038f793          	and	a5,a7,3
    8498:	04078863          	beqz	a5,84e8 <ee_printf+0x9f8>
    849c:	ffc8f893          	and	a7,a7,-4
    84a0:	011807b3          	add	a5,a6,a7
    84a4:	411585b3          	sub	a1,a1,a7
    84a8:	02000713          	li	a4,32
    84ac:	00e78023          	sb	a4,0(a5)
    84b0:	fff58693          	add	a3,a1,-1
    84b4:	02b65a63          	bge	a2,a1,84e8 <ee_printf+0x9f8>
    84b8:	00e780a3          	sb	a4,1(a5)
    84bc:	ffe58813          	add	a6,a1,-2
    84c0:	02d65463          	bge	a2,a3,84e8 <ee_printf+0x9f8>
    84c4:	00e78123          	sb	a4,2(a5)
    84c8:	ffd58693          	add	a3,a1,-3
    84cc:	01065e63          	bge	a2,a6,84e8 <ee_printf+0x9f8>
    84d0:	00e781a3          	sb	a4,3(a5)
    84d4:	ffc58593          	add	a1,a1,-4
    84d8:	00d65863          	bge	a2,a3,84e8 <ee_printf+0x9f8>
    84dc:	00e78223          	sb	a4,4(a5)
    84e0:	00b65463          	bge	a2,a1,84e8 <ee_printf+0x9f8>
    84e4:	00e782a3          	sb	a4,5(a5)
    84e8:	001c4783          	lbu	a5,1(s8)
    84ec:	01c50533          	add	a0,a0,t3
    84f0:	e8079863          	bnez	a5,7b80 <ee_printf+0x90>
    84f4:	ea4ff06f          	j	7b98 <ee_printf+0xa8>
    84f8:	00058c13          	mv	s8,a1
    84fc:	fff00613          	li	a2,-1
    8500:	42c68463          	beq	a3,a2,8928 <ee_printf+0xe38>
    8504:	0004a583          	lw	a1,0(s1)
    8508:	01000613          	li	a2,16
    850c:	00448493          	add	s1,s1,4
    8510:	86cff0ef          	jal	757c <number>
    8514:	001c4783          	lbu	a5,1(s8)
    8518:	001c0313          	add	t1,s8,1
    851c:	e6079263          	bnez	a5,7b80 <ee_printf+0x90>
    8520:	e78ff06f          	j	7b98 <ee_printf+0xa8>
    8524:	00000713          	li	a4,0
    8528:	00271593          	sll	a1,a4,0x2
    852c:	00e58733          	add	a4,a1,a4
    8530:	00180813          	add	a6,a6,1
    8534:	00171713          	sll	a4,a4,0x1
    8538:	00c70733          	add	a4,a4,a2
    853c:	00084603          	lbu	a2,0(a6)
    8540:	fd070713          	add	a4,a4,-48
    8544:	fd060593          	add	a1,a2,-48
    8548:	0ff5f593          	zext.b	a1,a1
    854c:	fcb8fee3          	bgeu	a7,a1,8528 <ee_printf+0xa38>
    8550:	00080593          	mv	a1,a6
    8554:	ef8ff06f          	j	7c4c <ee_printf+0x15c>
    8558:	0004a703          	lw	a4,0(s1)
    855c:	0025c603          	lbu	a2,2(a1)
    8560:	00448493          	add	s1,s1,4
    8564:	fff74813          	not	a6,a4
    8568:	41f85813          	sra	a6,a6,0x1f
    856c:	01077733          	and	a4,a4,a6
    8570:	00258593          	add	a1,a1,2
    8574:	ed8ff06f          	j	7c4c <ee_printf+0x15c>
    8578:	0407f713          	and	a4,a5,64
    857c:	64070c63          	beqz	a4,8bd4 <ee_printf+0x10e4>
    8580:	00009737          	lui	a4,0x9
    8584:	3d870713          	add	a4,a4,984 # 93d8 <ee_printf+0x18e8>
    8588:	0004a603          	lw	a2,0(s1)
    858c:	03a00813          	li	a6,58
    8590:	01010523          	sb	a6,10(sp)
    8594:	00064303          	lbu	t1,0(a2)
    8598:	00464c03          	lbu	s8,4(a2)
    859c:	00164f83          	lbu	t6,1(a2)
    85a0:	00264e83          	lbu	t4,2(a2)
    85a4:	00364e03          	lbu	t3,3(a2)
    85a8:	00564883          	lbu	a7,5(a2)
    85ac:	00f37613          	and	a2,t1,15
    85b0:	00c70633          	add	a2,a4,a2
    85b4:	00435313          	srl	t1,t1,0x4
    85b8:	00064d03          	lbu	s10,0(a2)
    85bc:	00670333          	add	t1,a4,t1
    85c0:	004fd393          	srl	t2,t6,0x4
    85c4:	004ed293          	srl	t0,t4,0x4
    85c8:	004e5f13          	srl	t5,t3,0x4
    85cc:	004c5c93          	srl	s9,s8,0x4
    85d0:	00fc7613          	and	a2,s8,15
    85d4:	00ffff93          	and	t6,t6,15
    85d8:	00fefe93          	and	t4,t4,15
    85dc:	00fe7e13          	and	t3,t3,15
    85e0:	007703b3          	add	t2,a4,t2
    85e4:	01f70fb3          	add	t6,a4,t6
    85e8:	01d70eb3          	add	t4,a4,t4
    85ec:	01c70e33          	add	t3,a4,t3
    85f0:	01970cb3          	add	s9,a4,s9
    85f4:	00c70633          	add	a2,a4,a2
    85f8:	00034303          	lbu	t1,0(t1)
    85fc:	005702b3          	add	t0,a4,t0
    8600:	01e70f33          	add	t5,a4,t5
    8604:	0048dd93          	srl	s11,a7,0x4
    8608:	0003cc03          	lbu	s8,0(t2)
    860c:	0002c283          	lbu	t0,0(t0)
    8610:	000fc383          	lbu	t2,0(t6)
    8614:	000f4f03          	lbu	t5,0(t5)
    8618:	000ecf83          	lbu	t6,0(t4)
    861c:	01b70db3          	add	s11,a4,s11
    8620:	000e4e83          	lbu	t4,0(t3)
    8624:	000cce03          	lbu	t3,0(s9)
    8628:	00064c83          	lbu	s9,0(a2)
    862c:	008d1d13          	sll	s10,s10,0x8
    8630:	000dc603          	lbu	a2,0(s11)
    8634:	01a36333          	or	t1,t1,s10
    8638:	00f8f893          	and	a7,a7,15
    863c:	010106a3          	sb	a6,13(sp)
    8640:	01010823          	sb	a6,16(sp)
    8644:	010109a3          	sb	a6,19(sp)
    8648:	01010b23          	sb	a6,22(sp)
    864c:	00611423          	sh	t1,8(sp)
    8650:	018105a3          	sb	s8,11(sp)
    8654:	00710623          	sb	t2,12(sp)
    8658:	00510723          	sb	t0,14(sp)
    865c:	01f107a3          	sb	t6,15(sp)
    8660:	01e108a3          	sb	t5,17(sp)
    8664:	01d10923          	sb	t4,18(sp)
    8668:	01c10a23          	sb	t3,20(sp)
    866c:	01910aa3          	sb	s9,21(sp)
    8670:	01170733          	add	a4,a4,a7
    8674:	0107f793          	and	a5,a5,16
    8678:	00c10ba3          	sb	a2,23(sp)
    867c:	00074803          	lbu	a6,0(a4)
    8680:	0e079063          	bnez	a5,8760 <ee_printf+0xc70>
    8684:	01100793          	li	a5,17
    8688:	fff68313          	add	t1,a3,-1
    868c:	02d7d8e3          	bge	a5,a3,8ebc <ee_printf+0x13cc>
    8690:	40a00733          	neg	a4,a0
    8694:	fee68893          	add	a7,a3,-18
    8698:	00500d93          	li	s11,5
    869c:	fef68d13          	add	s10,a3,-17
    86a0:	00377793          	and	a5,a4,3
    86a4:	031dfce3          	bgeu	s11,a7,8edc <ee_printf+0x13ec>
    86a8:	00050893          	mv	a7,a0
    86ac:	02078863          	beqz	a5,86dc <ee_printf+0xbec>
    86b0:	02000313          	li	t1,32
    86b4:	00650023          	sb	t1,0(a0)
    86b8:	00277713          	and	a4,a4,2
    86bc:	7c070463          	beqz	a4,8e84 <ee_printf+0x1394>
    86c0:	fff50713          	add	a4,a0,-1
    86c4:	006500a3          	sb	t1,1(a0)
    86c8:	00377713          	and	a4,a4,3
    86cc:	7e071263          	bnez	a4,8eb0 <ee_printf+0x13c0>
    86d0:	00650123          	sb	t1,2(a0)
    86d4:	00350893          	add	a7,a0,3
    86d8:	ffc68313          	add	t1,a3,-4
    86dc:	40fd0db3          	sub	s11,s10,a5
    86e0:	ffcdf693          	and	a3,s11,-4
    86e4:	00f507b3          	add	a5,a0,a5
    86e8:	20202737          	lui	a4,0x20202
    86ec:	00f686b3          	add	a3,a3,a5
    86f0:	02070713          	add	a4,a4,32 # 20202020 <start_time_val+0x201f8994>
    86f4:	00e7a023          	sw	a4,0(a5)
    86f8:	00478793          	add	a5,a5,4
    86fc:	fef69ce3          	bne	a3,a5,86f4 <ee_printf+0xc04>
    8700:	ffcdf793          	and	a5,s11,-4
    8704:	003dfd93          	and	s11,s11,3
    8708:	00f888b3          	add	a7,a7,a5
    870c:	40f30333          	sub	t1,t1,a5
    8710:	040d8463          	beqz	s11,8758 <ee_printf+0xc68>
    8714:	02000793          	li	a5,32
    8718:	00f88023          	sb	a5,0(a7)
    871c:	01100713          	li	a4,17
    8720:	02675c63          	bge	a4,t1,8758 <ee_printf+0xc68>
    8724:	00f880a3          	sb	a5,1(a7)
    8728:	01200713          	li	a4,18
    872c:	02e30663          	beq	t1,a4,8758 <ee_printf+0xc68>
    8730:	00f88123          	sb	a5,2(a7)
    8734:	01300713          	li	a4,19
    8738:	02e30063          	beq	t1,a4,8758 <ee_printf+0xc68>
    873c:	00f881a3          	sb	a5,3(a7)
    8740:	01400713          	li	a4,20
    8744:	00e30a63          	beq	t1,a4,8758 <ee_printf+0xc68>
    8748:	00f88223          	sb	a5,4(a7)
    874c:	01500713          	li	a4,21
    8750:	00e30463          	beq	t1,a4,8758 <ee_printf+0xc68>
    8754:	00f882a3          	sb	a5,5(a7)
    8758:	01a50533          	add	a0,a0,s10
    875c:	01000693          	li	a3,16
    8760:	00357793          	and	a5,a0,3
    8764:	68079263          	bnez	a5,8de8 <ee_printf+0x12f8>
    8768:	00c12783          	lw	a5,12(sp)
    876c:	00f52223          	sw	a5,4(a0)
    8770:	01012783          	lw	a5,16(sp)
    8774:	00f52423          	sw	a5,8(a0)
    8778:	00812783          	lw	a5,8(sp)
    877c:	00f52023          	sw	a5,0(a0)
    8780:	01412783          	lw	a5,20(sp)
    8784:	00f52623          	sw	a5,12(a0)
    8788:	01050823          	sb	a6,16(a0)
    878c:	01100793          	li	a5,17
    8790:	01150813          	add	a6,a0,17
    8794:	fff68313          	add	t1,a3,-1
    8798:	6cd7de63          	bge	a5,a3,8e74 <ee_printf+0x1384>
    879c:	41000733          	neg	a4,a6
    87a0:	fee68613          	add	a2,a3,-18
    87a4:	00500e13          	li	t3,5
    87a8:	fef68893          	add	a7,a3,-17
    87ac:	00377793          	and	a5,a4,3
    87b0:	06ce7e63          	bgeu	t3,a2,882c <ee_printf+0xd3c>
    87b4:	02078e63          	beqz	a5,87f0 <ee_printf+0xd00>
    87b8:	02000613          	li	a2,32
    87bc:	00c508a3          	sb	a2,17(a0)
    87c0:	00277713          	and	a4,a4,2
    87c4:	01250813          	add	a6,a0,18
    87c8:	ffe68313          	add	t1,a3,-2
    87cc:	02070263          	beqz	a4,87f0 <ee_printf+0xd00>
    87d0:	00c50923          	sb	a2,18(a0)
    87d4:	00357713          	and	a4,a0,3
    87d8:	01350813          	add	a6,a0,19
    87dc:	ffd68313          	add	t1,a3,-3
    87e0:	00071863          	bnez	a4,87f0 <ee_printf+0xd00>
    87e4:	01450813          	add	a6,a0,20
    87e8:	00c509a3          	sb	a2,19(a0)
    87ec:	ffc68313          	add	t1,a3,-4
    87f0:	40f888b3          	sub	a7,a7,a5
    87f4:	01178793          	add	a5,a5,17
    87f8:	00f507b3          	add	a5,a0,a5
    87fc:	ffc8f613          	and	a2,a7,-4
    8800:	20202737          	lui	a4,0x20202
    8804:	00f60633          	add	a2,a2,a5
    8808:	02070713          	add	a4,a4,32 # 20202020 <start_time_val+0x201f8994>
    880c:	00e7a023          	sw	a4,0(a5)
    8810:	00478793          	add	a5,a5,4
    8814:	fec79ce3          	bne	a5,a2,880c <ee_printf+0xd1c>
    8818:	ffc8f793          	and	a5,a7,-4
    881c:	0038f893          	and	a7,a7,3
    8820:	00f80833          	add	a6,a6,a5
    8824:	40f30333          	sub	t1,t1,a5
    8828:	04088463          	beqz	a7,8870 <ee_printf+0xd80>
    882c:	02000793          	li	a5,32
    8830:	00f80023          	sb	a5,0(a6)
    8834:	01100713          	li	a4,17
    8838:	02675c63          	bge	a4,t1,8870 <ee_printf+0xd80>
    883c:	00f800a3          	sb	a5,1(a6)
    8840:	01200713          	li	a4,18
    8844:	02e30663          	beq	t1,a4,8870 <ee_printf+0xd80>
    8848:	00f80123          	sb	a5,2(a6)
    884c:	01300713          	li	a4,19
    8850:	02e30063          	beq	t1,a4,8870 <ee_printf+0xd80>
    8854:	00f801a3          	sb	a5,3(a6)
    8858:	01400713          	li	a4,20
    885c:	00e30a63          	beq	t1,a4,8870 <ee_printf+0xd80>
    8860:	00f80223          	sb	a5,4(a6)
    8864:	01500713          	li	a4,21
    8868:	00e30463          	beq	t1,a4,8870 <ee_printf+0xd80>
    886c:	00f802a3          	sb	a5,5(a6)
    8870:	00d50533          	add	a0,a0,a3
    8874:	0025c783          	lbu	a5,2(a1)
    8878:	00448493          	add	s1,s1,4
    887c:	00258313          	add	t1,a1,2
    8880:	b0079063          	bnez	a5,7b80 <ee_printf+0x90>
    8884:	b14ff06f          	j	7b98 <ee_printf+0xa8>
    8888:	03000713          	li	a4,48
    888c:	00100613          	li	a2,1
    8890:	00e10423          	sb	a4,8(sp)
    8894:	00184583          	lbu	a1,1(a6)
    8898:	42060713          	add	a4,a2,1056
    889c:	00270e33          	add	t3,a4,sp
    88a0:	02e00713          	li	a4,46
    88a4:	beee0423          	sb	a4,-1048(t3)
    88a8:	00200313          	li	t1,2
    88ac:	d8059663          	bnez	a1,7e38 <ee_printf+0x348>
    88b0:	42030713          	add	a4,t1,1056
    88b4:	002705b3          	add	a1,a4,sp
    88b8:	03000893          	li	a7,48
    88bc:	bf158423          	sb	a7,-1048(a1)
    88c0:	00260613          	add	a2,a2,2
    88c4:	42060713          	add	a4,a2,1056
    88c8:	00284583          	lbu	a1,2(a6)
    88cc:	00270e33          	add	t3,a4,sp
    88d0:	02e00893          	li	a7,46
    88d4:	bf1e0423          	sb	a7,-1048(t3)
    88d8:	00160313          	add	t1,a2,1
    88dc:	dc059e63          	bnez	a1,7eb8 <ee_printf+0x3c8>
    88e0:	42030713          	add	a4,t1,1056
    88e4:	002705b3          	add	a1,a4,sp
    88e8:	00260613          	add	a2,a2,2
    88ec:	03000713          	li	a4,48
    88f0:	bee58423          	sb	a4,-1048(a1)
    88f4:	42060713          	add	a4,a2,1056
    88f8:	00384583          	lbu	a1,3(a6)
    88fc:	00270333          	add	t1,a4,sp
    8900:	02e00713          	li	a4,46
    8904:	bee30423          	sb	a4,-1048(t1)
    8908:	00160893          	add	a7,a2,1
    890c:	e2059663          	bnez	a1,7f38 <ee_printf+0x448>
    8910:	42088713          	add	a4,a7,1056
    8914:	002705b3          	add	a1,a4,sp
    8918:	00260713          	add	a4,a2,2
    891c:	03000613          	li	a2,48
    8920:	bec58423          	sb	a2,-1048(a1)
    8924:	e78ff06f          	j	7f9c <ee_printf+0x4ac>
    8928:	0017e793          	or	a5,a5,1
    892c:	00800693          	li	a3,8
    8930:	bd5ff06f          	j	8504 <ee_printf+0xa14>
    8934:	000095b7          	lui	a1,0x9
    8938:	40058593          	add	a1,a1,1024 # 9400 <ee_printf+0x1910>
    893c:	a25ff06f          	j	8360 <ee_printf+0x870>
    8940:	00100793          	li	a5,1
    8944:	44d7d863          	bge	a5,a3,8d94 <ee_printf+0x12a4>
    8948:	fff68813          	add	a6,a3,-1
    894c:	40a00733          	neg	a4,a0
    8950:	ffe68613          	add	a2,a3,-2
    8954:	00500593          	li	a1,5
    8958:	00080e93          	mv	t4,a6
    895c:	00377793          	and	a5,a4,3
    8960:	58c5d663          	bge	a1,a2,8eec <ee_printf+0x13fc>
    8964:	00050593          	mv	a1,a0
    8968:	02078863          	beqz	a5,8998 <ee_printf+0xea8>
    896c:	02000813          	li	a6,32
    8970:	01050023          	sb	a6,0(a0)
    8974:	00277713          	and	a4,a4,2
    8978:	52070063          	beqz	a4,8e98 <ee_printf+0x13a8>
    897c:	fff50713          	add	a4,a0,-1
    8980:	010500a3          	sb	a6,1(a0)
    8984:	00377713          	and	a4,a4,3
    8988:	52071e63          	bnez	a4,8ec4 <ee_printf+0x13d4>
    898c:	01050123          	sb	a6,2(a0)
    8990:	00350593          	add	a1,a0,3
    8994:	ffc68813          	add	a6,a3,-4
    8998:	40fe88b3          	sub	a7,t4,a5
    899c:	ffc8f613          	and	a2,a7,-4
    89a0:	00f507b3          	add	a5,a0,a5
    89a4:	20202737          	lui	a4,0x20202
    89a8:	00f60633          	add	a2,a2,a5
    89ac:	02070713          	add	a4,a4,32 # 20202020 <start_time_val+0x201f8994>
    89b0:	00e7a023          	sw	a4,0(a5)
    89b4:	00478793          	add	a5,a5,4
    89b8:	fef61ce3          	bne	a2,a5,89b0 <ee_printf+0xec0>
    89bc:	ffc8f713          	and	a4,a7,-4
    89c0:	0038f893          	and	a7,a7,3
    89c4:	00e587b3          	add	a5,a1,a4
    89c8:	40e80833          	sub	a6,a6,a4
    89cc:	04088463          	beqz	a7,8a14 <ee_printf+0xf24>
    89d0:	02000713          	li	a4,32
    89d4:	00e78023          	sb	a4,0(a5)
    89d8:	00100613          	li	a2,1
    89dc:	03065c63          	bge	a2,a6,8a14 <ee_printf+0xf24>
    89e0:	00e780a3          	sb	a4,1(a5)
    89e4:	00200613          	li	a2,2
    89e8:	02c80663          	beq	a6,a2,8a14 <ee_printf+0xf24>
    89ec:	00e78123          	sb	a4,2(a5)
    89f0:	00300613          	li	a2,3
    89f4:	02c80063          	beq	a6,a2,8a14 <ee_printf+0xf24>
    89f8:	00e781a3          	sb	a4,3(a5)
    89fc:	00400613          	li	a2,4
    8a00:	00c80a63          	beq	a6,a2,8a14 <ee_printf+0xf24>
    8a04:	00e78223          	sb	a4,4(a5)
    8a08:	00500613          	li	a2,5
    8a0c:	00c80463          	beq	a6,a2,8a14 <ee_printf+0xf24>
    8a10:	00e782a3          	sb	a4,5(a5)
    8a14:	0004a783          	lw	a5,0(s1)
    8a18:	01d50eb3          	add	t4,a0,t4
    8a1c:	00d50533          	add	a0,a0,a3
    8a20:	00fe8023          	sb	a5,0(t4)
    8a24:	001c4783          	lbu	a5,1(s8)
    8a28:	000e0493          	mv	s1,t3
    8a2c:	94079a63          	bnez	a5,7b80 <ee_printf+0x90>
    8a30:	968ff06f          	j	7b98 <ee_printf+0xa8>
    8a34:	fff68893          	add	a7,a3,-1
    8a38:	36d65e63          	bge	a2,a3,8db4 <ee_printf+0x12c4>
    8a3c:	40c68e33          	sub	t3,a3,a2
    8a40:	40a00733          	neg	a4,a0
    8a44:	fffe0313          	add	t1,t3,-1
    8a48:	00500813          	li	a6,5
    8a4c:	00377793          	and	a5,a4,3
    8a50:	48687a63          	bgeu	a6,t1,8ee4 <ee_printf+0x13f4>
    8a54:	00050813          	mv	a6,a0
    8a58:	02078863          	beqz	a5,8a88 <ee_printf+0xf98>
    8a5c:	02000893          	li	a7,32
    8a60:	01150023          	sb	a7,0(a0)
    8a64:	00277713          	and	a4,a4,2
    8a68:	42070e63          	beqz	a4,8ea4 <ee_printf+0x13b4>
    8a6c:	fff50713          	add	a4,a0,-1
    8a70:	011500a3          	sb	a7,1(a0)
    8a74:	00377713          	and	a4,a4,3
    8a78:	44071c63          	bnez	a4,8ed0 <ee_printf+0x13e0>
    8a7c:	01150123          	sb	a7,2(a0)
    8a80:	00350813          	add	a6,a0,3
    8a84:	ffc68893          	add	a7,a3,-4
    8a88:	40fe0333          	sub	t1,t3,a5
    8a8c:	ffc37693          	and	a3,t1,-4
    8a90:	00f507b3          	add	a5,a0,a5
    8a94:	20202737          	lui	a4,0x20202
    8a98:	00f686b3          	add	a3,a3,a5
    8a9c:	02070713          	add	a4,a4,32 # 20202020 <start_time_val+0x201f8994>
    8aa0:	00e7a023          	sw	a4,0(a5)
    8aa4:	00478793          	add	a5,a5,4
    8aa8:	fef69ce3          	bne	a3,a5,8aa0 <ee_printf+0xfb0>
    8aac:	ffc37713          	and	a4,t1,-4
    8ab0:	00337313          	and	t1,t1,3
    8ab4:	00e807b3          	add	a5,a6,a4
    8ab8:	40e888b3          	sub	a7,a7,a4
    8abc:	04030263          	beqz	t1,8b00 <ee_printf+0x1010>
    8ac0:	02000713          	li	a4,32
    8ac4:	00e78023          	sb	a4,0(a5)
    8ac8:	fff88693          	add	a3,a7,-1
    8acc:	03165a63          	bge	a2,a7,8b00 <ee_printf+0x1010>
    8ad0:	00e780a3          	sb	a4,1(a5)
    8ad4:	ffe88813          	add	a6,a7,-2
    8ad8:	02d65463          	bge	a2,a3,8b00 <ee_printf+0x1010>
    8adc:	00e78123          	sb	a4,2(a5)
    8ae0:	ffd88693          	add	a3,a7,-3
    8ae4:	01065e63          	bge	a2,a6,8b00 <ee_printf+0x1010>
    8ae8:	00e781a3          	sb	a4,3(a5)
    8aec:	ffc88893          	add	a7,a7,-4
    8af0:	00d65863          	bge	a2,a3,8b00 <ee_printf+0x1010>
    8af4:	00e78223          	sb	a4,4(a5)
    8af8:	01165463          	bge	a2,a7,8b00 <ee_printf+0x1010>
    8afc:	00e782a3          	sb	a4,5(a5)
    8b00:	01c50533          	add	a0,a0,t3
    8b04:	fff60693          	add	a3,a2,-1
    8b08:	885ff06f          	j	838c <ee_printf+0x89c>
    8b0c:	0027e793          	or	a5,a5,2
    8b10:	00a00613          	li	a2,10
    8b14:	f14ff06f          	j	8228 <ee_printf+0x738>
    8b18:	00158793          	add	a5,a1,1
    8b1c:	00c585b3          	add	a1,a1,a2
    8b20:	00050713          	mv	a4,a0
    8b24:	0080006f          	j	8b2c <ee_printf+0x103c>
    8b28:	00178793          	add	a5,a5,1
    8b2c:	fff7c803          	lbu	a6,-1(a5)
    8b30:	00170713          	add	a4,a4,1
    8b34:	ff070fa3          	sb	a6,-1(a4)
    8b38:	feb798e3          	bne	a5,a1,8b28 <ee_printf+0x1038>
    8b3c:	8d9ff06f          	j	8414 <ee_printf+0x924>
    8b40:	00000513          	li	a0,0
    8b44:	884ff06f          	j	7bc8 <ee_printf+0xd8>
    8b48:	02010a13          	add	s4,sp,32
    8b4c:	000a0513          	mv	a0,s4
    8b50:	848ff06f          	j	7b98 <ee_printf+0xa8>
    8b54:	00812583          	lw	a1,8(sp)
    8b58:	00275793          	srl	a5,a4,0x2
    8b5c:	00100613          	li	a2,1
    8b60:	00b52023          	sw	a1,0(a0)
    8b64:	2ec78663          	beq	a5,a2,8e50 <ee_printf+0x1360>
    8b68:	00c12583          	lw	a1,12(sp)
    8b6c:	00300613          	li	a2,3
    8b70:	00b52223          	sw	a1,4(a0)
    8b74:	00c79663          	bne	a5,a2,8b80 <ee_printf+0x1090>
    8b78:	01012783          	lw	a5,16(sp)
    8b7c:	00f52423          	sw	a5,8(a0)
    8b80:	00377793          	and	a5,a4,3
    8b84:	dc078263          	beqz	a5,8148 <ee_printf+0x658>
    8b88:	ffc77793          	and	a5,a4,-4
    8b8c:	00f505b3          	add	a1,a0,a5
    8b90:	42078613          	add	a2,a5,1056
    8b94:	00260633          	add	a2,a2,sp
    8b98:	be864803          	lbu	a6,-1048(a2)
    8b9c:	00178613          	add	a2,a5,1
    8ba0:	01058023          	sb	a6,0(a1)
    8ba4:	dae65263          	bge	a2,a4,8148 <ee_printf+0x658>
    8ba8:	42178613          	add	a2,a5,1057
    8bac:	00260633          	add	a2,a2,sp
    8bb0:	be864603          	lbu	a2,-1048(a2)
    8bb4:	00278793          	add	a5,a5,2
    8bb8:	00c580a3          	sb	a2,1(a1)
    8bbc:	d8e7d663          	bge	a5,a4,8148 <ee_printf+0x658>
    8bc0:	42078793          	add	a5,a5,1056
    8bc4:	002787b3          	add	a5,a5,sp
    8bc8:	be87c783          	lbu	a5,-1048(a5)
    8bcc:	00f58123          	sb	a5,2(a1)
    8bd0:	d78ff06f          	j	8148 <ee_printf+0x658>
    8bd4:	00009737          	lui	a4,0x9
    8bd8:	3b070713          	add	a4,a4,944 # 93b0 <ee_printf+0x18c0>
    8bdc:	9adff06f          	j	8588 <ee_printf+0xa98>
    8be0:	00900713          	li	a4,9
    8be4:	12b75063          	bge	a4,a1,8d04 <ee_printf+0x1214>
    8be8:	00a00e93          	li	t4,10
    8bec:	03d5c8b3          	div	a7,a1,t4
    8bf0:	00009737          	lui	a4,0x9
    8bf4:	3b070713          	add	a4,a4,944 # 93b0 <ee_printf+0x18c0>
    8bf8:	00300313          	li	t1,3
    8bfc:	00200613          	li	a2,2
    8c00:	00100e13          	li	t3,1
    8c04:	011708b3          	add	a7,a4,a7
    8c08:	0008c883          	lbu	a7,0(a7)
    8c0c:	03d5e5b3          	rem	a1,a1,t4
    8c10:	01110423          	sb	a7,8(sp)
    8c14:	9f8ff06f          	j	7e0c <ee_printf+0x31c>
    8c18:	00900713          	li	a4,9
    8c1c:	0cb75e63          	bge	a4,a1,8cf8 <ee_printf+0x1208>
    8c20:	00a00e13          	li	t3,10
    8c24:	03c5c8b3          	div	a7,a1,t3
    8c28:	00009737          	lui	a4,0x9
    8c2c:	42030313          	add	t1,t1,1056
    8c30:	3b070713          	add	a4,a4,944 # 93b0 <ee_printf+0x18c0>
    8c34:	00230eb3          	add	t4,t1,sp
    8c38:	00260313          	add	t1,a2,2
    8c3c:	01170633          	add	a2,a4,a7
    8c40:	00064603          	lbu	a2,0(a2)
    8c44:	03c5e5b3          	rem	a1,a1,t3
    8c48:	bece8423          	sb	a2,-1048(t4)
    8c4c:	ab8ff06f          	j	7f04 <ee_printf+0x414>
    8c50:	00900713          	li	a4,9
    8c54:	08b75c63          	bge	a4,a1,8cec <ee_printf+0x11fc>
    8c58:	00a00e13          	li	t3,10
    8c5c:	03c5c8b3          	div	a7,a1,t3
    8c60:	00009737          	lui	a4,0x9
    8c64:	42030313          	add	t1,t1,1056
    8c68:	3b070713          	add	a4,a4,944 # 93b0 <ee_printf+0x18c0>
    8c6c:	00230eb3          	add	t4,t1,sp
    8c70:	00260313          	add	t1,a2,2
    8c74:	01170633          	add	a2,a4,a7
    8c78:	00064603          	lbu	a2,0(a2)
    8c7c:	03c5e5b3          	rem	a1,a1,t3
    8c80:	bece8423          	sb	a2,-1048(t4)
    8c84:	a00ff06f          	j	7e84 <ee_printf+0x394>
    8c88:	00900713          	li	a4,9
    8c8c:	04b75a63          	bge	a4,a1,8ce0 <ee_printf+0x11f0>
    8c90:	00a00313          	li	t1,10
    8c94:	0265c833          	div	a6,a1,t1
    8c98:	00009737          	lui	a4,0x9
    8c9c:	42088893          	add	a7,a7,1056
    8ca0:	3b070713          	add	a4,a4,944 # 93b0 <ee_printf+0x18c0>
    8ca4:	00288e33          	add	t3,a7,sp
    8ca8:	00260893          	add	a7,a2,2
    8cac:	01070633          	add	a2,a4,a6
    8cb0:	00064603          	lbu	a2,0(a2)
    8cb4:	0265e5b3          	rem	a1,a1,t1
    8cb8:	bece0423          	sb	a2,-1048(t3)
    8cbc:	ac8ff06f          	j	7f84 <ee_printf+0x494>
    8cc0:	00130313          	add	t1,t1,1
    8cc4:	ffe68893          	add	a7,a3,-2
    8cc8:	cd4ff06f          	j	819c <ee_printf+0x6ac>
    8ccc:	0027e793          	or	a5,a5,2
    8cd0:	00448813          	add	a6,s1,4
    8cd4:	00058c13          	mv	s8,a1
    8cd8:	00a00613          	li	a2,10
    8cdc:	d50ff06f          	j	822c <ee_printf+0x73c>
    8ce0:	00009737          	lui	a4,0x9
    8ce4:	3b070713          	add	a4,a4,944 # 93b0 <ee_printf+0x18c0>
    8ce8:	a9cff06f          	j	7f84 <ee_printf+0x494>
    8cec:	00009737          	lui	a4,0x9
    8cf0:	3b070713          	add	a4,a4,944 # 93b0 <ee_printf+0x18c0>
    8cf4:	990ff06f          	j	7e84 <ee_printf+0x394>
    8cf8:	00009737          	lui	a4,0x9
    8cfc:	3b070713          	add	a4,a4,944 # 93b0 <ee_printf+0x18c0>
    8d00:	a04ff06f          	j	7f04 <ee_printf+0x414>
    8d04:	00009737          	lui	a4,0x9
    8d08:	00200313          	li	t1,2
    8d0c:	00100613          	li	a2,1
    8d10:	00000e13          	li	t3,0
    8d14:	3b070713          	add	a4,a4,944 # 93b0 <ee_printf+0x18c0>
    8d18:	8f4ff06f          	j	7e0c <ee_printf+0x31c>
    8d1c:	00800613          	li	a2,8
    8d20:	d08ff06f          	j	8228 <ee_printf+0x738>
    8d24:	00a00613          	li	a2,10
    8d28:	d00ff06f          	j	8228 <ee_printf+0x738>
    8d2c:	00058c13          	mv	s8,a1
    8d30:	87cff06f          	j	7dac <ee_printf+0x2bc>
    8d34:	0407e793          	or	a5,a5,64
    8d38:	00058c13          	mv	s8,a1
    8d3c:	870ff06f          	j	7dac <ee_printf+0x2bc>
    8d40:	0407e793          	or	a5,a5,64
    8d44:	00448813          	add	a6,s1,4
    8d48:	00058c13          	mv	s8,a1
    8d4c:	01000613          	li	a2,16
    8d50:	cdcff06f          	j	822c <ee_printf+0x73c>
    8d54:	00448813          	add	a6,s1,4
    8d58:	00058c13          	mv	s8,a1
    8d5c:	01000613          	li	a2,16
    8d60:	cccff06f          	j	822c <ee_printf+0x73c>
    8d64:	00448813          	add	a6,s1,4
    8d68:	00058c13          	mv	s8,a1
    8d6c:	00a00613          	li	a2,10
    8d70:	cbcff06f          	j	822c <ee_printf+0x73c>
    8d74:	00448813          	add	a6,s1,4
    8d78:	00058c13          	mv	s8,a1
    8d7c:	00800613          	li	a2,8
    8d80:	cacff06f          	j	822c <ee_printf+0x73c>
    8d84:	0107f613          	and	a2,a5,16
    8d88:	ca0606e3          	beqz	a2,8a34 <ee_printf+0xf44>
    8d8c:	00000613          	li	a2,0
    8d90:	e88ff06f          	j	8418 <ee_printf+0x928>
    8d94:	0004a783          	lw	a5,0(s1)
    8d98:	00150513          	add	a0,a0,1
    8d9c:	000e0493          	mv	s1,t3
    8da0:	fef50fa3          	sb	a5,-1(a0)
    8da4:	001c4783          	lbu	a5,1(s8)
    8da8:	00078463          	beqz	a5,8db0 <ee_printf+0x12c0>
    8dac:	dd5fe06f          	j	7b80 <ee_printf+0x90>
    8db0:	de9fe06f          	j	7b98 <ee_printf+0xa8>
    8db4:	00088693          	mv	a3,a7
    8db8:	dd4ff06f          	j	838c <ee_printf+0x89c>
    8dbc:	00250813          	add	a6,a0,2
    8dc0:	00060593          	mv	a1,a2
    8dc4:	cf0ff06f          	j	82b4 <ee_printf+0x7c4>
    8dc8:	00150813          	add	a6,a0,1
    8dcc:	ffe68593          	add	a1,a3,-2
    8dd0:	ea0ff06f          	j	8470 <ee_printf+0x980>
    8dd4:	00230313          	add	t1,t1,2
    8dd8:	ffd68893          	add	a7,a3,-3
    8ddc:	bc0ff06f          	j	819c <ee_printf+0x6ac>
    8de0:	00030513          	mv	a0,t1
    8de4:	c54ff06f          	j	8238 <ee_printf+0x748>
    8de8:	00814883          	lbu	a7,8(sp)
    8dec:	00914703          	lbu	a4,9(sp)
    8df0:	03a00793          	li	a5,58
    8df4:	01150023          	sb	a7,0(a0)
    8df8:	00e500a3          	sb	a4,1(a0)
    8dfc:	00f50123          	sb	a5,2(a0)
    8e00:	018501a3          	sb	s8,3(a0)
    8e04:	00750223          	sb	t2,4(a0)
    8e08:	00f502a3          	sb	a5,5(a0)
    8e0c:	00550323          	sb	t0,6(a0)
    8e10:	01f503a3          	sb	t6,7(a0)
    8e14:	00f50423          	sb	a5,8(a0)
    8e18:	01e504a3          	sb	t5,9(a0)
    8e1c:	01d50523          	sb	t4,10(a0)
    8e20:	00f505a3          	sb	a5,11(a0)
    8e24:	01c50623          	sb	t3,12(a0)
    8e28:	019506a3          	sb	s9,13(a0)
    8e2c:	00f50723          	sb	a5,14(a0)
    8e30:	00c507a3          	sb	a2,15(a0)
    8e34:	955ff06f          	j	8788 <ee_printf+0xc98>
    8e38:	00350813          	add	a6,a0,3
    8e3c:	ffd68593          	add	a1,a3,-3
    8e40:	c74ff06f          	j	82b4 <ee_printf+0x7c4>
    8e44:	00250813          	add	a6,a0,2
    8e48:	ffd68593          	add	a1,a3,-3
    8e4c:	e24ff06f          	j	8470 <ee_printf+0x980>
    8e50:	00450593          	add	a1,a0,4
    8e54:	00400793          	li	a5,4
    8e58:	d39ff06f          	j	8b90 <ee_printf+0x10a0>
    8e5c:	001c4783          	lbu	a5,1(s8)
    8e60:	00078463          	beqz	a5,8e68 <ee_printf+0x1378>
    8e64:	d1dfe06f          	j	7b80 <ee_printf+0x90>
    8e68:	d31fe06f          	j	7b98 <ee_printf+0xa8>
    8e6c:	00050793          	mv	a5,a0
    8e70:	e38ff06f          	j	84a8 <ee_printf+0x9b8>
    8e74:	00080513          	mv	a0,a6
    8e78:	9fdff06f          	j	8874 <ee_printf+0xd84>
    8e7c:	00030693          	mv	a3,t1
    8e80:	a08ff06f          	j	8088 <ee_printf+0x598>
    8e84:	00150893          	add	a7,a0,1
    8e88:	ffe68313          	add	t1,a3,-2
    8e8c:	851ff06f          	j	86dc <ee_printf+0xbec>
    8e90:	00050793          	mv	a5,a0
    8e94:	9acff06f          	j	8040 <ee_printf+0x550>
    8e98:	00150593          	add	a1,a0,1
    8e9c:	00060813          	mv	a6,a2
    8ea0:	af9ff06f          	j	8998 <ee_printf+0xea8>
    8ea4:	00150813          	add	a6,a0,1
    8ea8:	ffe68893          	add	a7,a3,-2
    8eac:	bddff06f          	j	8a88 <ee_printf+0xf98>
    8eb0:	00250893          	add	a7,a0,2
    8eb4:	ffd68313          	add	t1,a3,-3
    8eb8:	825ff06f          	j	86dc <ee_printf+0xbec>
    8ebc:	00030693          	mv	a3,t1
    8ec0:	8a1ff06f          	j	8760 <ee_printf+0xc70>
    8ec4:	00250593          	add	a1,a0,2
    8ec8:	ffd68813          	add	a6,a3,-3
    8ecc:	acdff06f          	j	8998 <ee_printf+0xea8>
    8ed0:	00250813          	add	a6,a0,2
    8ed4:	ffd68893          	add	a7,a3,-3
    8ed8:	bb1ff06f          	j	8a88 <ee_printf+0xf98>
    8edc:	00050893          	mv	a7,a0
    8ee0:	835ff06f          	j	8714 <ee_printf+0xc24>
    8ee4:	00050793          	mv	a5,a0
    8ee8:	bd9ff06f          	j	8ac0 <ee_printf+0xfd0>
    8eec:	00050793          	mv	a5,a0
    8ef0:	ae1ff06f          	j	89d0 <ee_printf+0xee0>
    8ef4:	00080513          	mv	a0,a6
    8ef8:	b2dff06f          	j	8a24 <ee_printf+0xf34>
