
./output/temp.elf:     file format elf32-littleriscv


Disassembly of section .text:

00000000 <main>:
       0:	81010113          	add	sp,sp,-2032
       4:	00005537          	lui	a0,0x5
       8:	7e112623          	sw	ra,2028(sp)
       c:	7e812423          	sw	s0,2024(sp)
      10:	7e912223          	sw	s1,2020(sp)
      14:	7f212023          	sw	s2,2016(sp)
      18:	7d312e23          	sw	s3,2012(sp)
      1c:	7d412c23          	sw	s4,2008(sp)
      20:	7d512a23          	sw	s5,2004(sp)
      24:	7d612823          	sw	s6,2000(sp)
      28:	7d712623          	sw	s7,1996(sp)
      2c:	7d812423          	sw	s8,1992(sp)
      30:	7d912223          	sw	s9,1988(sp)
      34:	7da12023          	sw	s10,1984(sp)
      38:	7bb12e23          	sw	s11,1980(sp)
      3c:	f4050513          	add	a0,a0,-192 # 4f40 <ee_printf+0x1434>
      40:	f8010113          	add	sp,sp,-128
      44:	00012a23          	sw	zero,20(sp)
      48:	2c5030ef          	jal	3b0c <ee_printf>
      4c:	00001737          	lui	a4,0x1
      50:	fffff437          	lui	s0,0xfffff
      54:	82070793          	add	a5,a4,-2016 # 820 <main+0x820>
      58:	7e840613          	add	a2,s0,2024 # fffff7e8 <start_time_val+0xffffa118>
      5c:	01010693          	add	a3,sp,16
      60:	00c787b3          	add	a5,a5,a2
      64:	00d78633          	add	a2,a5,a3
      68:	7e440593          	add	a1,s0,2020
      6c:	82070793          	add	a5,a4,-2016
      70:	00b787b3          	add	a5,a5,a1
      74:	00d785b3          	add	a1,a5,a3
      78:	05e10513          	add	a0,sp,94
      7c:	4ec030ef          	jal	3568 <portable_init>
      80:	00100513          	li	a0,1
      84:	0d1020ef          	jal	2954 <get_seed_32>
      88:	00050793          	mv	a5,a0
      8c:	00200513          	li	a0,2
      90:	00f11e23          	sh	a5,28(sp)
      94:	0c1020ef          	jal	2954 <get_seed_32>
      98:	00050793          	mv	a5,a0
      9c:	00300513          	li	a0,3
      a0:	00f11f23          	sh	a5,30(sp)
      a4:	0b1020ef          	jal	2954 <get_seed_32>
      a8:	00050793          	mv	a5,a0
      ac:	00400513          	li	a0,4
      b0:	02f11023          	sh	a5,32(sp)
      b4:	0a1020ef          	jal	2954 <get_seed_32>
      b8:	00050793          	mv	a5,a0
      bc:	00500513          	li	a0,5
      c0:	02f12c23          	sw	a5,56(sp)
      c4:	091020ef          	jal	2954 <get_seed_32>
      c8:	00051463          	bnez	a0,d0 <main+0xd0>
      cc:	00700513          	li	a0,7
      d0:	00001737          	lui	a4,0x1
      d4:	fffff7b7          	lui	a5,0xfffff
      d8:	82070713          	add	a4,a4,-2016 # 820 <main+0x820>
      dc:	00f70733          	add	a4,a4,a5
      e0:	01010793          	add	a5,sp,16
      e4:	00f707b3          	add	a5,a4,a5
      e8:	00f12423          	sw	a5,8(sp)
      ec:	7ec7a783          	lw	a5,2028(a5) # fffff7ec <start_time_val+0xffffa11c>
      f0:	02a12e23          	sw	a0,60(sp)
      f4:	7c079e63          	bnez	a5,8d0 <main+0x8d0>
      f8:	00812783          	lw	a5,8(sp)
      fc:	7f079783          	lh	a5,2032(a5)
     100:	000788e3          	beqz	a5,910 <main+0x910>
     104:	000018b7          	lui	a7,0x1
     108:	fffff637          	lui	a2,0xfffff
     10c:	82088593          	add	a1,a7,-2016 # 820 <main+0x820>
     110:	00c585b3          	add	a1,a1,a2
     114:	01010613          	add	a2,sp,16
     118:	00c58633          	add	a2,a1,a2
     11c:	00257693          	and	a3,a0,2
     120:	06010593          	add	a1,sp,96
     124:	00157713          	and	a4,a0,1
     128:	00d037b3          	snez	a5,a3
     12c:	00c12423          	sw	a2,8(sp)
     130:	7eb62a23          	sw	a1,2036(a2) # fffff7f4 <start_time_val+0xffffa124>
     134:	04011e23          	sh	zero,92(sp)
     138:	00457613          	and	a2,a0,4
     13c:	00f707b3          	add	a5,a4,a5
     140:	40061463          	bnez	a2,548 <main+0x548>
     144:	7d000593          	li	a1,2000
     148:	02f5d5b3          	divu	a1,a1,a5
     14c:	fffff837          	lui	a6,0xfffff
     150:	82088893          	add	a7,a7,-2016
     154:	010888b3          	add	a7,a7,a6
     158:	01010813          	add	a6,sp,16
     15c:	01088833          	add	a6,a7,a6
     160:	02b12a23          	sw	a1,52(sp)
     164:	100716e3          	bnez	a4,a70 <main+0xa70>
     168:	000694e3          	bnez	a3,970 <main+0x970>
     16c:	000016b7          	lui	a3,0x1
     170:	fffff737          	lui	a4,0xfffff
     174:	03c12783          	lw	a5,60(sp)
     178:	82068693          	add	a3,a3,-2016 # 820 <main+0x820>
     17c:	00e686b3          	add	a3,a3,a4
     180:	01010713          	add	a4,sp,16
     184:	00e68733          	add	a4,a3,a4
     188:	00e12423          	sw	a4,8(sp)
     18c:	0017f713          	and	a4,a5,1
     190:	02070063          	beqz	a4,1b0 <main+0x1b0>
     194:	00812783          	lw	a5,8(sp)
     198:	03412503          	lw	a0,52(sp)
     19c:	7ec79603          	lh	a2,2028(a5)
     1a0:	7f87a583          	lw	a1,2040(a5)
     1a4:	100010ef          	jal	12a4 <core_list_init>
     1a8:	03c12783          	lw	a5,60(sp)
     1ac:	04a12023          	sw	a0,64(sp)
     1b0:	0027f713          	and	a4,a5,2
     1b4:	30071c63          	bnez	a4,4cc <main+0x4cc>
     1b8:	0047f793          	and	a5,a5,4
     1bc:	02078863          	beqz	a5,1ec <main+0x1ec>
     1c0:	00001737          	lui	a4,0x1
     1c4:	fffff7b7          	lui	a5,0xfffff
     1c8:	82070713          	add	a4,a4,-2016 # 820 <main+0x820>
     1cc:	00f70733          	add	a4,a4,a5
     1d0:	01010793          	add	a5,sp,16
     1d4:	00f707b3          	add	a5,a4,a5
     1d8:	03012603          	lw	a2,48(sp)
     1dc:	7ec79583          	lh	a1,2028(a5) # fffff7ec <start_time_val+0xffffa11c>
     1e0:	03412503          	lw	a0,52(sp)
     1e4:	00f12423          	sw	a5,8(sp)
     1e8:	7bd010ef          	jal	21a4 <core_init_state>
     1ec:	03812783          	lw	a5,56(sp)
     1f0:	0a079e63          	bnez	a5,2ac <main+0x2ac>
     1f4:	00100793          	li	a5,1
     1f8:	fffff4b7          	lui	s1,0xfffff
     1fc:	02f12c23          	sw	a5,56(sp)
     200:	000017b7          	lui	a5,0x1
     204:	7ec48493          	add	s1,s1,2028 # fffff7ec <start_time_val+0xffffa11c>
     208:	82078793          	add	a5,a5,-2016 # 820 <main+0x820>
     20c:	009787b3          	add	a5,a5,s1
     210:	01010713          	add	a4,sp,16
     214:	00e784b3          	add	s1,a5,a4
     218:	03812703          	lw	a4,56(sp)
     21c:	00000413          	li	s0,0
     220:	00271793          	sll	a5,a4,0x2
     224:	00e787b3          	add	a5,a5,a4
     228:	00179793          	sll	a5,a5,0x1
     22c:	02f12c23          	sw	a5,56(sp)
     230:	2f0030ef          	jal	3520 <start_time>
     234:	03812903          	lw	s2,56(sp)
     238:	04012a23          	sw	zero,84(sp)
     23c:	04012c23          	sw	zero,88(sp)
     240:	04090263          	beqz	s2,284 <main+0x284>
     244:	00100593          	li	a1,1
     248:	00048513          	mv	a0,s1
     24c:	3ad000ef          	jal	df8 <core_bench_list>
     250:	05415583          	lhu	a1,84(sp)
     254:	0a1020ef          	jal	2af4 <crcu16>
     258:	00050793          	mv	a5,a0
     25c:	fff00593          	li	a1,-1
     260:	00048513          	mv	a0,s1
     264:	04f11a23          	sh	a5,84(sp)
     268:	391000ef          	jal	df8 <core_bench_list>
     26c:	05415583          	lhu	a1,84(sp)
     270:	085020ef          	jal	2af4 <crcu16>
     274:	04a11a23          	sh	a0,84(sp)
     278:	24040063          	beqz	s0,4b8 <main+0x4b8>
     27c:	00140413          	add	s0,s0,1
     280:	fc8912e3          	bne	s2,s0,244 <main+0x244>
     284:	2ac030ef          	jal	3530 <stop_time>
     288:	2b8030ef          	jal	3540 <get_time>
     28c:	2cc030ef          	jal	3558 <time_in_secs>
     290:	f80504e3          	beqz	a0,218 <main+0x218>
     294:	00a00793          	li	a5,10
     298:	02a7d7b3          	divu	a5,a5,a0
     29c:	03812703          	lw	a4,56(sp)
     2a0:	00178793          	add	a5,a5,1
     2a4:	02e787b3          	mul	a5,a5,a4
     2a8:	02f12c23          	sw	a5,56(sp)
     2ac:	274030ef          	jal	3520 <start_time>
     2b0:	fffff437          	lui	s0,0xfffff
     2b4:	000014b7          	lui	s1,0x1
     2b8:	7ec40513          	add	a0,s0,2028 # fffff7ec <start_time_val+0xffffa11c>
     2bc:	82048793          	add	a5,s1,-2016 # 820 <main+0x820>
     2c0:	00a787b3          	add	a5,a5,a0
     2c4:	01010713          	add	a4,sp,16
     2c8:	00e78533          	add	a0,a5,a4
     2cc:	4e4010ef          	jal	17b0 <iterate>
     2d0:	260030ef          	jal	3530 <stop_time>
     2d4:	26c030ef          	jal	3540 <get_time>
     2d8:	82048793          	add	a5,s1,-2016
     2dc:	01010713          	add	a4,sp,16
     2e0:	008787b3          	add	a5,a5,s0
     2e4:	00e787b3          	add	a5,a5,a4
     2e8:	00050a13          	mv	s4,a0
     2ec:	7ec79503          	lh	a0,2028(a5)
     2f0:	00000593          	li	a1,0
     2f4:	00f12423          	sw	a5,8(sp)
     2f8:	791020ef          	jal	3288 <crc16>
     2fc:	00812783          	lw	a5,8(sp)
     300:	00050593          	mv	a1,a0
     304:	7ee79503          	lh	a0,2030(a5)
     308:	781020ef          	jal	3288 <crc16>
     30c:	00812783          	lw	a5,8(sp)
     310:	00050593          	mv	a1,a0
     314:	7f079503          	lh	a0,2032(a5)
     318:	771020ef          	jal	3288 <crc16>
     31c:	00050593          	mv	a1,a0
     320:	03411503          	lh	a0,52(sp)
     324:	765020ef          	jal	3288 <crc16>
     328:	000087b7          	lui	a5,0x8
     32c:	b0578793          	add	a5,a5,-1275 # 7b05 <start_time_val+0x2435>
     330:	00050913          	mv	s2,a0
     334:	6cf50063          	beq	a0,a5,9f4 <main+0x9f4>
     338:	24a7ec63          	bltu	a5,a0,590 <main+0x590>
     33c:	000027b7          	lui	a5,0x2
     340:	8f278793          	add	a5,a5,-1806 # 18f2 <matrix_test+0xaa>
     344:	6cf50e63          	beq	a0,a5,a20 <main+0xa20>
     348:	00005b37          	lui	s6,0x5
     34c:	eafb0793          	add	a5,s6,-337 # 4eaf <ee_printf+0x13a3>
     350:	72f51a63          	bne	a0,a5,a84 <main+0xa84>
     354:	00005537          	lui	a0,0x5
     358:	fa450513          	add	a0,a0,-92 # 4fa4 <ee_printf+0x1498>
     35c:	608b0b93          	add	s7,s6,1544
     360:	0000e9b7          	lui	s3,0xe
     364:	00007ab7          	lui	s5,0x7
     368:	7a4030ef          	jal	3b0c <ee_printf>
     36c:	5a498993          	add	s3,s3,1444 # e5a4 <start_time_val+0x8ed4>
     370:	01712623          	sw	s7,12(sp)
     374:	a79a8a93          	add	s5,s5,-1415 # 6a79 <start_time_val+0x13a9>
     378:	00005db7          	lui	s11,0x5
     37c:	6b4da783          	lw	a5,1716(s11) # 56b4 <default_num_contexts>
     380:	24078863          	beqz	a5,5d0 <main+0x5d0>
     384:	00001737          	lui	a4,0x1
     388:	fffff7b7          	lui	a5,0xfffff
     38c:	82070713          	add	a4,a4,-2016 # 820 <main+0x820>
     390:	00f70733          	add	a4,a4,a5
     394:	01010793          	add	a5,sp,16
     398:	00f707b3          	add	a5,a4,a5
     39c:	00000c93          	li	s9,0
     3a0:	00000c13          	li	s8,0
     3a4:	00f12423          	sw	a5,8(sp)
     3a8:	00001b37          	lui	s6,0x1
     3ac:	00005d37          	lui	s10,0x5
     3b0:	0440006f          	j	3f4 <main+0x3f4>
     3b4:	00812703          	lw	a4,8(sp)
     3b8:	018407b3          	add	a5,s0,s8
     3bc:	00279793          	sll	a5,a5,0x2
     3c0:	00f707b3          	add	a5,a4,a5
     3c4:	00fb07b3          	add	a5,s6,a5
     3c8:	82c7d783          	lhu	a5,-2004(a5) # ffffe82c <start_time_val+0xffff915c>
     3cc:	001c0593          	add	a1,s8,1
     3d0:	6b4da683          	lw	a3,1716(s11)
     3d4:	019787b3          	add	a5,a5,s9
     3d8:	01059c13          	sll	s8,a1,0x10
     3dc:	01079493          	sll	s1,a5,0x10
     3e0:	01079c93          	sll	s9,a5,0x10
     3e4:	010c5c13          	srl	s8,s8,0x10
     3e8:	0104d493          	srl	s1,s1,0x10
     3ec:	410cdc93          	sra	s9,s9,0x10
     3f0:	1edc7263          	bgeu	s8,a3,5d4 <main+0x5d4>
     3f4:	00812783          	lw	a5,8(sp)
     3f8:	004c1413          	sll	s0,s8,0x4
     3fc:	018404b3          	add	s1,s0,s8
     400:	00249493          	sll	s1,s1,0x2
     404:	009784b3          	add	s1,a5,s1
     408:	009b04b3          	add	s1,s6,s1
     40c:	80c4a783          	lw	a5,-2036(s1)
     410:	82049623          	sh	zero,-2004(s1)
     414:	0017f693          	and	a3,a5,1
     418:	02068663          	beqz	a3,444 <main+0x444>
     41c:	8264d603          	lhu	a2,-2010(s1)
     420:	03560263          	beq	a2,s5,444 <main+0x444>
     424:	000a8693          	mv	a3,s5
     428:	000c0593          	mv	a1,s8
     42c:	034d0513          	add	a0,s10,52 # 5034 <ee_printf+0x1528>
     430:	6dc030ef          	jal	3b0c <ee_printf>
     434:	82c4d683          	lhu	a3,-2004(s1)
     438:	80c4a783          	lw	a5,-2036(s1)
     43c:	00168693          	add	a3,a3,1
     440:	82d49623          	sh	a3,-2004(s1)
     444:	0027f693          	and	a3,a5,2
     448:	04068263          	beqz	a3,48c <main+0x48c>
     44c:	00812703          	lw	a4,8(sp)
     450:	018404b3          	add	s1,s0,s8
     454:	00249493          	sll	s1,s1,0x2
     458:	009704b3          	add	s1,a4,s1
     45c:	009b04b3          	add	s1,s6,s1
     460:	8284d603          	lhu	a2,-2008(s1)
     464:	03760463          	beq	a2,s7,48c <main+0x48c>
     468:	00c12683          	lw	a3,12(sp)
     46c:	000057b7          	lui	a5,0x5
     470:	06478513          	add	a0,a5,100 # 5064 <ee_printf+0x1558>
     474:	000c0593          	mv	a1,s8
     478:	694030ef          	jal	3b0c <ee_printf>
     47c:	82c4d683          	lhu	a3,-2004(s1)
     480:	80c4a783          	lw	a5,-2036(s1)
     484:	00168693          	add	a3,a3,1
     488:	82d49623          	sh	a3,-2004(s1)
     48c:	0047f793          	and	a5,a5,4
     490:	f20782e3          	beqz	a5,3b4 <main+0x3b4>
     494:	00812783          	lw	a5,8(sp)
     498:	01840433          	add	s0,s0,s8
     49c:	00241413          	sll	s0,s0,0x2
     4a0:	00878433          	add	s0,a5,s0
     4a4:	008b0433          	add	s0,s6,s0
     4a8:	82a45603          	lhu	a2,-2006(s0)
     4ac:	07361863          	bne	a2,s3,51c <main+0x51c>
     4b0:	82c45783          	lhu	a5,-2004(s0)
     4b4:	f19ff06f          	j	3cc <main+0x3cc>
     4b8:	04a11b23          	sh	a0,86(sp)
     4bc:	00100793          	li	a5,1
     4c0:	dcf902e3          	beq	s2,a5,284 <main+0x284>
     4c4:	00100413          	li	s0,1
     4c8:	d7dff06f          	j	244 <main+0x244>
     4cc:	00001737          	lui	a4,0x1
     4d0:	fffff7b7          	lui	a5,0xfffff
     4d4:	82070713          	add	a4,a4,-2016 # 820 <main+0x820>
     4d8:	00f70733          	add	a4,a4,a5
     4dc:	01010793          	add	a5,sp,16
     4e0:	00f707b3          	add	a5,a4,a5
     4e4:	00f12423          	sw	a5,8(sp)
     4e8:	00812703          	lw	a4,8(sp)
     4ec:	7ee79783          	lh	a5,2030(a5) # fffff7ee <start_time_val+0xffffa11e>
     4f0:	03412503          	lw	a0,52(sp)
     4f4:	7ec71603          	lh	a2,2028(a4)
     4f8:	7fc72583          	lw	a1,2044(a4)
     4fc:	01079793          	sll	a5,a5,0x10
     500:	00c7e633          	or	a2,a5,a2
     504:	04410693          	add	a3,sp,68
     508:	05d010ef          	jal	1d64 <core_init_matrix>
     50c:	03c12783          	lw	a5,60(sp)
     510:	0047f793          	and	a5,a5,4
     514:	ca0796e3          	bnez	a5,1c0 <main+0x1c0>
     518:	cd5ff06f          	j	1ec <main+0x1ec>
     51c:	000057b7          	lui	a5,0x5
     520:	09878513          	add	a0,a5,152 # 5098 <ee_printf+0x158c>
     524:	00098693          	mv	a3,s3
     528:	000c0593          	mv	a1,s8
     52c:	5e0030ef          	jal	3b0c <ee_printf>
     530:	82c45783          	lhu	a5,-2004(s0)
     534:	00178793          	add	a5,a5,1
     538:	01079793          	sll	a5,a5,0x10
     53c:	0107d793          	srl	a5,a5,0x10
     540:	82f41623          	sh	a5,-2004(s0)
     544:	e89ff06f          	j	3cc <main+0x3cc>
     548:	00178813          	add	a6,a5,1
     54c:	7d000593          	li	a1,2000
     550:	0305d5b3          	divu	a1,a1,a6
     554:	000018b7          	lui	a7,0x1
     558:	fffff837          	lui	a6,0xfffff
     55c:	82088893          	add	a7,a7,-2016 # 820 <main+0x820>
     560:	010888b3          	add	a7,a7,a6
     564:	01010813          	add	a6,sp,16
     568:	01088833          	add	a6,a7,a6
     56c:	01012423          	sw	a6,8(sp)
     570:	02b12a23          	sw	a1,52(sp)
     574:	40071863          	bnez	a4,984 <main+0x984>
     578:	4e069063          	bnez	a3,a58 <main+0xa58>
     57c:	02b787b3          	mul	a5,a5,a1
     580:	06010713          	add	a4,sp,96
     584:	00f707b3          	add	a5,a4,a5
     588:	02f12823          	sw	a5,48(sp)
     58c:	be1ff06f          	j	16c <main+0x16c>
     590:	000099b7          	lui	s3,0x9
     594:	a0298793          	add	a5,s3,-1534 # 8a02 <start_time_val+0x3332>
     598:	42f50863          	beq	a0,a5,9c8 <main+0x9c8>
     59c:	0000f7b7          	lui	a5,0xf
     5a0:	9f578793          	add	a5,a5,-1547 # e9f5 <start_time_val+0x9325>
     5a4:	4ef51063          	bne	a0,a5,a84 <main+0xa84>
     5a8:	00005537          	lui	a0,0x5
     5ac:	00002b37          	lui	s6,0x2
     5b0:	fd850513          	add	a0,a0,-40 # 4fd8 <ee_printf+0x14cc>
     5b4:	fd7b0b93          	add	s7,s6,-41 # 1fd7 <matrix_add_const+0x43>
     5b8:	0000eab7          	lui	s5,0xe
     5bc:	550030ef          	jal	3b0c <ee_printf>
     5c0:	e3a98993          	add	s3,s3,-454
     5c4:	01712623          	sw	s7,12(sp)
     5c8:	714a8a93          	add	s5,s5,1812 # e714 <start_time_val+0x9044>
     5cc:	dadff06f          	j	378 <main+0x378>
     5d0:	00000493          	li	s1,0
     5d4:	73d020ef          	jal	3510 <check_data_types>
     5d8:	03412583          	lw	a1,52(sp)
     5dc:	009504b3          	add	s1,a0,s1
     5e0:	00005537          	lui	a0,0x5
     5e4:	0c850513          	add	a0,a0,200 # 50c8 <ee_printf+0x15bc>
     5e8:	524030ef          	jal	3b0c <ee_printf>
     5ec:	00005537          	lui	a0,0x5
     5f0:	000a0593          	mv	a1,s4
     5f4:	0e050513          	add	a0,a0,224 # 50e0 <ee_printf+0x15d4>
     5f8:	514030ef          	jal	3b0c <ee_printf>
     5fc:	000a0513          	mv	a0,s4
     600:	759020ef          	jal	3558 <time_in_secs>
     604:	00050593          	mv	a1,a0
     608:	00005537          	lui	a0,0x5
     60c:	0f850513          	add	a0,a0,248 # 50f8 <ee_printf+0x15ec>
     610:	4fc030ef          	jal	3b0c <ee_printf>
     614:	01049493          	sll	s1,s1,0x10
     618:	000a0513          	mv	a0,s4
     61c:	0104d493          	srl	s1,s1,0x10
     620:	739020ef          	jal	3558 <time_in_secs>
     624:	32051063          	bnez	a0,944 <main+0x944>
     628:	000a0513          	mv	a0,s4
     62c:	72d020ef          	jal	3558 <time_in_secs>
     630:	00900793          	li	a5,9
     634:	2ea7fe63          	bgeu	a5,a0,930 <main+0x930>
     638:	6b4da783          	lw	a5,1716(s11)
     63c:	03812583          	lw	a1,56(sp)
     640:	00005537          	lui	a0,0x5
     644:	16850513          	add	a0,a0,360 # 5168 <ee_printf+0x165c>
     648:	02f585b3          	mul	a1,a1,a5
     64c:	01049493          	sll	s1,s1,0x10
     650:	4104d493          	sra	s1,s1,0x10
     654:	4b8030ef          	jal	3b0c <ee_printf>
     658:	000055b7          	lui	a1,0x5
     65c:	00005537          	lui	a0,0x5
     660:	18058593          	add	a1,a1,384 # 5180 <ee_printf+0x1674>
     664:	18c50513          	add	a0,a0,396 # 518c <ee_printf+0x1680>
     668:	4a4030ef          	jal	3b0c <ee_printf>
     66c:	000055b7          	lui	a1,0x5
     670:	00005537          	lui	a0,0x5
     674:	00458593          	add	a1,a1,4 # 5004 <ee_printf+0x14f8>
     678:	1a450513          	add	a0,a0,420 # 51a4 <ee_printf+0x1698>
     67c:	490030ef          	jal	3b0c <ee_printf>
     680:	000055b7          	lui	a1,0x5
     684:	00005537          	lui	a0,0x5
     688:	1bc58593          	add	a1,a1,444 # 51bc <ee_printf+0x16b0>
     68c:	1c450513          	add	a0,a0,452 # 51c4 <ee_printf+0x16b8>
     690:	47c030ef          	jal	3b0c <ee_printf>
     694:	00005537          	lui	a0,0x5
     698:	00090593          	mv	a1,s2
     69c:	1dc50513          	add	a0,a0,476 # 51dc <ee_printf+0x16d0>
     6a0:	46c030ef          	jal	3b0c <ee_printf>
     6a4:	03c12783          	lw	a5,60(sp)
     6a8:	0017f713          	and	a4,a5,1
     6ac:	06070a63          	beqz	a4,720 <main+0x720>
     6b0:	6b4da703          	lw	a4,1716(s11)
     6b4:	06070663          	beqz	a4,720 <main+0x720>
     6b8:	00001737          	lui	a4,0x1
     6bc:	fffff7b7          	lui	a5,0xfffff
     6c0:	82070713          	add	a4,a4,-2016 # 820 <main+0x820>
     6c4:	00f70733          	add	a4,a4,a5
     6c8:	01010793          	add	a5,sp,16
     6cc:	00f707b3          	add	a5,a4,a5
     6d0:	00000413          	li	s0,0
     6d4:	000059b7          	lui	s3,0x5
     6d8:	00f12423          	sw	a5,8(sp)
     6dc:	00001937          	lui	s2,0x1
     6e0:	00812703          	lw	a4,8(sp)
     6e4:	00441793          	sll	a5,s0,0x4
     6e8:	008787b3          	add	a5,a5,s0
     6ec:	00279793          	sll	a5,a5,0x2
     6f0:	00f707b3          	add	a5,a4,a5
     6f4:	00f907b3          	add	a5,s2,a5
     6f8:	8267d603          	lhu	a2,-2010(a5) # ffffe826 <start_time_val+0xffff9156>
     6fc:	00040593          	mv	a1,s0
     700:	1f898513          	add	a0,s3,504 # 51f8 <ee_printf+0x16ec>
     704:	408030ef          	jal	3b0c <ee_printf>
     708:	00140413          	add	s0,s0,1
     70c:	6b4da783          	lw	a5,1716(s11)
     710:	01041413          	sll	s0,s0,0x10
     714:	01045413          	srl	s0,s0,0x10
     718:	fcf464e3          	bltu	s0,a5,6e0 <main+0x6e0>
     71c:	03c12783          	lw	a5,60(sp)
     720:	0027f713          	and	a4,a5,2
     724:	06070a63          	beqz	a4,798 <main+0x798>
     728:	6b4da703          	lw	a4,1716(s11)
     72c:	32070063          	beqz	a4,a4c <main+0xa4c>
     730:	00001737          	lui	a4,0x1
     734:	fffff7b7          	lui	a5,0xfffff
     738:	82070713          	add	a4,a4,-2016 # 820 <main+0x820>
     73c:	00f70733          	add	a4,a4,a5
     740:	01010793          	add	a5,sp,16
     744:	00f707b3          	add	a5,a4,a5
     748:	00000413          	li	s0,0
     74c:	000059b7          	lui	s3,0x5
     750:	00f12423          	sw	a5,8(sp)
     754:	00001937          	lui	s2,0x1
     758:	00812703          	lw	a4,8(sp)
     75c:	00441793          	sll	a5,s0,0x4
     760:	008787b3          	add	a5,a5,s0
     764:	00279793          	sll	a5,a5,0x2
     768:	00f707b3          	add	a5,a4,a5
     76c:	00f907b3          	add	a5,s2,a5
     770:	8287d603          	lhu	a2,-2008(a5) # ffffe828 <start_time_val+0xffff9158>
     774:	00040593          	mv	a1,s0
     778:	21498513          	add	a0,s3,532 # 5214 <ee_printf+0x1708>
     77c:	390030ef          	jal	3b0c <ee_printf>
     780:	00140413          	add	s0,s0,1
     784:	6b4da783          	lw	a5,1716(s11)
     788:	01041413          	sll	s0,s0,0x10
     78c:	01045413          	srl	s0,s0,0x10
     790:	fcf464e3          	bltu	s0,a5,758 <main+0x758>
     794:	03c12783          	lw	a5,60(sp)
     798:	0047f793          	and	a5,a5,4
     79c:	6b4da703          	lw	a4,1716(s11)
     7a0:	06078663          	beqz	a5,80c <main+0x80c>
     7a4:	0c070663          	beqz	a4,870 <main+0x870>
     7a8:	00001737          	lui	a4,0x1
     7ac:	fffff7b7          	lui	a5,0xfffff
     7b0:	82070713          	add	a4,a4,-2016 # 820 <main+0x820>
     7b4:	00f70733          	add	a4,a4,a5
     7b8:	01010793          	add	a5,sp,16
     7bc:	00f707b3          	add	a5,a4,a5
     7c0:	00000413          	li	s0,0
     7c4:	000059b7          	lui	s3,0x5
     7c8:	00f12423          	sw	a5,8(sp)
     7cc:	00001937          	lui	s2,0x1
     7d0:	00812703          	lw	a4,8(sp)
     7d4:	00441793          	sll	a5,s0,0x4
     7d8:	008787b3          	add	a5,a5,s0
     7dc:	00279793          	sll	a5,a5,0x2
     7e0:	00f707b3          	add	a5,a4,a5
     7e4:	00f907b3          	add	a5,s2,a5
     7e8:	82a7d603          	lhu	a2,-2006(a5) # ffffe82a <start_time_val+0xffff915a>
     7ec:	00040593          	mv	a1,s0
     7f0:	23098513          	add	a0,s3,560 # 5230 <ee_printf+0x1724>
     7f4:	318030ef          	jal	3b0c <ee_printf>
     7f8:	00140413          	add	s0,s0,1
     7fc:	6b4da783          	lw	a5,1716(s11)
     800:	01041413          	sll	s0,s0,0x10
     804:	01045413          	srl	s0,s0,0x10
     808:	fcf464e3          	bltu	s0,a5,7d0 <main+0x7d0>
     80c:	00001737          	lui	a4,0x1
     810:	6b4da783          	lw	a5,1716(s11)
     814:	fffff937          	lui	s2,0xfffff
     818:	82070713          	add	a4,a4,-2016 # 820 <main+0x820>
     81c:	01270733          	add	a4,a4,s2
     820:	01010693          	add	a3,sp,16
     824:	00000413          	li	s0,0
     828:	00005a37          	lui	s4,0x5
     82c:	00d70933          	add	s2,a4,a3
     830:	000019b7          	lui	s3,0x1
     834:	02078e63          	beqz	a5,870 <main+0x870>
     838:	00441793          	sll	a5,s0,0x4
     83c:	008787b3          	add	a5,a5,s0
     840:	00279793          	sll	a5,a5,0x2
     844:	00f907b3          	add	a5,s2,a5
     848:	00f987b3          	add	a5,s3,a5
     84c:	8247d603          	lhu	a2,-2012(a5)
     850:	00040593          	mv	a1,s0
     854:	24ca0513          	add	a0,s4,588 # 524c <ee_printf+0x1740>
     858:	2b4030ef          	jal	3b0c <ee_printf>
     85c:	00140413          	add	s0,s0,1
     860:	6b4da783          	lw	a5,1716(s11)
     864:	01041413          	sll	s0,s0,0x10
     868:	01045413          	srl	s0,s0,0x10
     86c:	fcf466e3          	bltu	s0,a5,838 <main+0x838>
     870:	0a048863          	beqz	s1,920 <main+0x920>
     874:	08904663          	bgtz	s1,900 <main+0x900>
     878:	00005537          	lui	a0,0x5
     87c:	2b450513          	add	a0,a0,692 # 52b4 <ee_printf+0x17a8>
     880:	28c030ef          	jal	3b0c <ee_printf>
     884:	05e10513          	add	a0,sp,94
     888:	4ed020ef          	jal	3574 <portable_fini>
     88c:	08010113          	add	sp,sp,128
     890:	7ec12083          	lw	ra,2028(sp)
     894:	7e812403          	lw	s0,2024(sp)
     898:	7e412483          	lw	s1,2020(sp)
     89c:	7e012903          	lw	s2,2016(sp)
     8a0:	7dc12983          	lw	s3,2012(sp)
     8a4:	7d812a03          	lw	s4,2008(sp)
     8a8:	7d412a83          	lw	s5,2004(sp)
     8ac:	7d012b03          	lw	s6,2000(sp)
     8b0:	7cc12b83          	lw	s7,1996(sp)
     8b4:	7c812c03          	lw	s8,1992(sp)
     8b8:	7c412c83          	lw	s9,1988(sp)
     8bc:	7c012d03          	lw	s10,1984(sp)
     8c0:	7bc12d83          	lw	s11,1980(sp)
     8c4:	00000513          	li	a0,0
     8c8:	7f010113          	add	sp,sp,2032
     8cc:	00008067          	ret
     8d0:	00100713          	li	a4,1
     8d4:	82e798e3          	bne	a5,a4,104 <main+0x104>
     8d8:	00812783          	lw	a5,8(sp)
     8dc:	7f079783          	lh	a5,2032(a5)
     8e0:	820792e3          	bnez	a5,104 <main+0x104>
     8e4:	00812703          	lw	a4,8(sp)
     8e8:	341537b7          	lui	a5,0x34153
     8ec:	41578793          	add	a5,a5,1045 # 34153415 <start_time_val+0x3414dd45>
     8f0:	7ef72623          	sw	a5,2028(a4)
     8f4:	06600793          	li	a5,102
     8f8:	7ef71823          	sh	a5,2032(a4)
     8fc:	809ff06f          	j	104 <main+0x104>
     900:	00005537          	lui	a0,0x5
     904:	31850513          	add	a0,a0,792 # 5318 <ee_printf+0x180c>
     908:	204030ef          	jal	3b0c <ee_printf>
     90c:	f79ff06f          	j	884 <main+0x884>
     910:	00812703          	lw	a4,8(sp)
     914:	06600793          	li	a5,102
     918:	7ef71823          	sh	a5,2032(a4)
     91c:	fe8ff06f          	j	104 <main+0x104>
     920:	00005537          	lui	a0,0x5
     924:	26850513          	add	a0,a0,616 # 5268 <ee_printf+0x175c>
     928:	1e4030ef          	jal	3b0c <ee_printf>
     92c:	f59ff06f          	j	884 <main+0x884>
     930:	00005537          	lui	a0,0x5
     934:	12850513          	add	a0,a0,296 # 5128 <ee_printf+0x161c>
     938:	1d4030ef          	jal	3b0c <ee_printf>
     93c:	00148493          	add	s1,s1,1
     940:	cf9ff06f          	j	638 <main+0x638>
     944:	6b4da783          	lw	a5,1716(s11)
     948:	03812403          	lw	s0,56(sp)
     94c:	000a0513          	mv	a0,s4
     950:	02f40433          	mul	s0,s0,a5
     954:	405020ef          	jal	3558 <time_in_secs>
     958:	00050593          	mv	a1,a0
     95c:	00005537          	lui	a0,0x5
     960:	11050513          	add	a0,a0,272 # 5110 <ee_printf+0x1604>
     964:	02b455b3          	divu	a1,s0,a1
     968:	1a4030ef          	jal	3b0c <ee_printf>
     96c:	cbdff06f          	j	628 <main+0x628>
     970:	02b707b3          	mul	a5,a4,a1
     974:	06010713          	add	a4,sp,96
     978:	00f707b3          	add	a5,a4,a5
     97c:	7ef82e23          	sw	a5,2044(a6) # fffff7fc <start_time_val+0xffffa12c>
     980:	fecff06f          	j	16c <main+0x16c>
     984:	00080513          	mv	a0,a6
     988:	06010813          	add	a6,sp,96
     98c:	7f052c23          	sw	a6,2040(a0)
     990:	be0686e3          	beqz	a3,57c <main+0x57c>
     994:	02b70733          	mul	a4,a4,a1
     998:	06010513          	add	a0,sp,96
     99c:	fffff6b7          	lui	a3,0xfffff
     9a0:	00e50733          	add	a4,a0,a4
     9a4:	00001537          	lui	a0,0x1
     9a8:	82050513          	add	a0,a0,-2016 # 820 <main+0x820>
     9ac:	00d50533          	add	a0,a0,a3
     9b0:	01010693          	add	a3,sp,16
     9b4:	00d506b3          	add	a3,a0,a3
     9b8:	00d12423          	sw	a3,8(sp)
     9bc:	7ee6ae23          	sw	a4,2044(a3) # fffff7fc <start_time_val+0xffffa12c>
     9c0:	fa060663          	beqz	a2,16c <main+0x16c>
     9c4:	bb9ff06f          	j	57c <main+0x57c>
     9c8:	00005537          	lui	a0,0x5
     9cc:	0000cb37          	lui	s6,0xc
     9d0:	f4850513          	add	a0,a0,-184 # 4f48 <ee_printf+0x143c>
     9d4:	e52b0b93          	add	s7,s6,-430 # be52 <start_time_val+0x6782>
     9d8:	000069b7          	lui	s3,0x6
     9dc:	0000dab7          	lui	s5,0xd
     9e0:	12c030ef          	jal	3b0c <ee_printf>
     9e4:	e4798993          	add	s3,s3,-441 # 5e47 <start_time_val+0x777>
     9e8:	01712623          	sw	s7,12(sp)
     9ec:	4b0a8a93          	add	s5,s5,1200 # d4b0 <start_time_val+0x7de0>
     9f0:	989ff06f          	j	378 <main+0x378>
     9f4:	00005537          	lui	a0,0x5
     9f8:	00001b37          	lui	s6,0x1
     9fc:	f7850513          	add	a0,a0,-136 # 4f78 <ee_printf+0x146c>
     a00:	199b0b93          	add	s7,s6,409 # 1199 <core_bench_list+0x3a1>
     a04:	000049b7          	lui	s3,0x4
     a08:	00003ab7          	lui	s5,0x3
     a0c:	100030ef          	jal	3b0c <ee_printf>
     a10:	9bf98993          	add	s3,s3,-1601 # 39bf <number+0x443>
     a14:	01712623          	sw	s7,12(sp)
     a18:	340a8a93          	add	s5,s5,832 # 3340 <crc16+0xb8>
     a1c:	95dff06f          	j	378 <main+0x378>
     a20:	00005537          	lui	a0,0x5
     a24:	00850513          	add	a0,a0,8 # 5008 <ee_printf+0x14fc>
     a28:	0e4030ef          	jal	3b0c <ee_printf>
     a2c:	000099b7          	lui	s3,0x9
     a30:	74700793          	li	a5,1863
     a34:	0000eab7          	lui	s5,0xe
     a38:	d8498993          	add	s3,s3,-636 # 8d84 <start_time_val+0x36b4>
     a3c:	00f12623          	sw	a5,12(sp)
     a40:	74700b93          	li	s7,1863
     a44:	3c1a8a93          	add	s5,s5,961 # e3c1 <start_time_val+0x8cf1>
     a48:	931ff06f          	j	378 <main+0x378>
     a4c:	0047f793          	and	a5,a5,4
     a50:	da078ee3          	beqz	a5,80c <main+0x80c>
     a54:	e1dff06f          	j	870 <main+0x870>
     a58:	02b70733          	mul	a4,a4,a1
     a5c:	06010693          	add	a3,sp,96
     a60:	00e68733          	add	a4,a3,a4
     a64:	00812683          	lw	a3,8(sp)
     a68:	7ee6ae23          	sw	a4,2044(a3)
     a6c:	b11ff06f          	j	57c <main+0x57c>
     a70:	00812503          	lw	a0,8(sp)
     a74:	06010813          	add	a6,sp,96
     a78:	7f052c23          	sw	a6,2040(a0)
     a7c:	ee068863          	beqz	a3,16c <main+0x16c>
     a80:	f15ff06f          	j	994 <main+0x994>
     a84:	00010437          	lui	s0,0x10
     a88:	fff40493          	add	s1,s0,-1 # ffff <start_time_val+0xa92f>
     a8c:	00005db7          	lui	s11,0x5
     a90:	b45ff06f          	j	5d4 <main+0x5d4>

00000a94 <calc_func>:
     a94:	fe010113          	add	sp,sp,-32
     a98:	00812c23          	sw	s0,24(sp)
     a9c:	00051403          	lh	s0,0(a0)
     aa0:	00112e23          	sw	ra,28(sp)
     aa4:	00912a23          	sw	s1,20(sp)
     aa8:	40745793          	sra	a5,s0,0x7
     aac:	01212823          	sw	s2,16(sp)
     ab0:	01312623          	sw	s3,12(sp)
     ab4:	0017f793          	and	a5,a5,1
     ab8:	02078263          	beqz	a5,adc <calc_func+0x48>
     abc:	01c12083          	lw	ra,28(sp)
     ac0:	07f47513          	and	a0,s0,127
     ac4:	01812403          	lw	s0,24(sp)
     ac8:	01412483          	lw	s1,20(sp)
     acc:	01012903          	lw	s2,16(sp)
     ad0:	00c12983          	lw	s3,12(sp)
     ad4:	02010113          	add	sp,sp,32
     ad8:	00008067          	ret
     adc:	40345713          	sra	a4,s0,0x3
     ae0:	00f77713          	and	a4,a4,15
     ae4:	00058493          	mv	s1,a1
     ae8:	00747693          	and	a3,s0,7
     aec:	00471593          	sll	a1,a4,0x4
     af0:	0384d783          	lhu	a5,56(s1)
     af4:	00050993          	mv	s3,a0
     af8:	00e5e5b3          	or	a1,a1,a4
     afc:	04068c63          	beqz	a3,b54 <calc_func+0xc0>
     b00:	00100713          	li	a4,1
     b04:	08e68a63          	beq	a3,a4,b98 <calc_func+0x104>
     b08:	01041513          	sll	a0,s0,0x10
     b0c:	01055513          	srl	a0,a0,0x10
     b10:	00040913          	mv	s2,s0
     b14:	00078593          	mv	a1,a5
     b18:	7dd010ef          	jal	2af4 <crcu16>
     b1c:	00050793          	mv	a5,a0
     b20:	f0047413          	and	s0,s0,-256
     b24:	07f97513          	and	a0,s2,127
     b28:	00856433          	or	s0,a0,s0
     b2c:	02f49c23          	sh	a5,56(s1)
     b30:	08046413          	or	s0,s0,128
     b34:	00899023          	sh	s0,0(s3)
     b38:	01c12083          	lw	ra,28(sp)
     b3c:	01812403          	lw	s0,24(sp)
     b40:	01412483          	lw	s1,20(sp)
     b44:	01012903          	lw	s2,16(sp)
     b48:	00c12983          	lw	s3,12(sp)
     b4c:	02010113          	add	sp,sp,32
     b50:	00008067          	ret
     b54:	02200693          	li	a3,34
     b58:	00058713          	mv	a4,a1
     b5c:	00d5d463          	bge	a1,a3,b64 <calc_func+0xd0>
     b60:	02200713          	li	a4,34
     b64:	00249683          	lh	a3,2(s1)
     b68:	00049603          	lh	a2,0(s1)
     b6c:	0144a583          	lw	a1,20(s1)
     b70:	0184a503          	lw	a0,24(s1)
     b74:	0ff77713          	zext.b	a4,a4
     b78:	3b5010ef          	jal	272c <core_bench_state>
     b7c:	03e4d783          	lhu	a5,62(s1)
     b80:	00079463          	bnez	a5,b88 <calc_func+0xf4>
     b84:	02a49f23          	sh	a0,62(s1)
     b88:	01051913          	sll	s2,a0,0x10
     b8c:	0384d783          	lhu	a5,56(s1)
     b90:	41095913          	sra	s2,s2,0x10
     b94:	f81ff06f          	j	b14 <calc_func+0x80>
     b98:	00078613          	mv	a2,a5
     b9c:	02848513          	add	a0,s1,40
     ba0:	188010ef          	jal	1d28 <core_bench_matrix>
     ba4:	03c4d783          	lhu	a5,60(s1)
     ba8:	fe0790e3          	bnez	a5,b88 <calc_func+0xf4>
     bac:	02a49e23          	sh	a0,60(s1)
     bb0:	fd9ff06f          	j	b88 <calc_func+0xf4>

00000bb4 <cmp_complex>:
     bb4:	fe010113          	add	sp,sp,-32
     bb8:	00912a23          	sw	s1,20(sp)
     bbc:	00051483          	lh	s1,0(a0)
     bc0:	00812c23          	sw	s0,24(sp)
     bc4:	01212823          	sw	s2,16(sp)
     bc8:	4074d793          	sra	a5,s1,0x7
     bcc:	01412423          	sw	s4,8(sp)
     bd0:	00112e23          	sw	ra,28(sp)
     bd4:	01312623          	sw	s3,12(sp)
     bd8:	0017f793          	and	a5,a5,1
     bdc:	00058913          	mv	s2,a1
     be0:	00060413          	mv	s0,a2
     be4:	07f4fa13          	and	s4,s1,127
     be8:	04079c63          	bnez	a5,c40 <cmp_complex+0x8c>
     bec:	4034d593          	sra	a1,s1,0x3
     bf0:	00f5f593          	and	a1,a1,15
     bf4:	00459693          	sll	a3,a1,0x4
     bf8:	0074f713          	and	a4,s1,7
     bfc:	03865783          	lhu	a5,56(a2)
     c00:	00050993          	mv	s3,a0
     c04:	00d5e5b3          	or	a1,a1,a3
     c08:	12070063          	beqz	a4,d28 <cmp_complex+0x174>
     c0c:	00100693          	li	a3,1
     c10:	14d70e63          	beq	a4,a3,d6c <cmp_complex+0x1b8>
     c14:	01049513          	sll	a0,s1,0x10
     c18:	01055513          	srl	a0,a0,0x10
     c1c:	00048a13          	mv	s4,s1
     c20:	00078593          	mv	a1,a5
     c24:	07fa7a13          	and	s4,s4,127
     c28:	f004f493          	and	s1,s1,-256
     c2c:	6c9010ef          	jal	2af4 <crcu16>
     c30:	009a64b3          	or	s1,s4,s1
     c34:	02a41c23          	sh	a0,56(s0)
     c38:	0804e493          	or	s1,s1,128
     c3c:	00999023          	sh	s1,0(s3)
     c40:	00091483          	lh	s1,0(s2) # fffff000 <start_time_val+0xffff9930>
     c44:	4074d793          	sra	a5,s1,0x7
     c48:	0017f793          	and	a5,a5,1
     c4c:	07f4f993          	and	s3,s1,127
     c50:	06079663          	bnez	a5,cbc <cmp_complex+0x108>
     c54:	4034d593          	sra	a1,s1,0x3
     c58:	00f5f593          	and	a1,a1,15
     c5c:	00459693          	sll	a3,a1,0x4
     c60:	0074f713          	and	a4,s1,7
     c64:	03845783          	lhu	a5,56(s0)
     c68:	00d5e5b3          	or	a1,a1,a3
     c6c:	08070263          	beqz	a4,cf0 <cmp_complex+0x13c>
     c70:	00100693          	li	a3,1
     c74:	06d71663          	bne	a4,a3,ce0 <cmp_complex+0x12c>
     c78:	00078613          	mv	a2,a5
     c7c:	02840513          	add	a0,s0,40
     c80:	0a8010ef          	jal	1d28 <core_bench_matrix>
     c84:	03c45783          	lhu	a5,60(s0)
     c88:	00079463          	bnez	a5,c90 <cmp_complex+0xdc>
     c8c:	02a41e23          	sh	a0,60(s0)
     c90:	03845783          	lhu	a5,56(s0)
     c94:	01051993          	sll	s3,a0,0x10
     c98:	4109d993          	sra	s3,s3,0x10
     c9c:	00078593          	mv	a1,a5
     ca0:	07f9f993          	and	s3,s3,127
     ca4:	f004f493          	and	s1,s1,-256
     ca8:	64d010ef          	jal	2af4 <crcu16>
     cac:	0099e4b3          	or	s1,s3,s1
     cb0:	02a41c23          	sh	a0,56(s0)
     cb4:	0804e493          	or	s1,s1,128
     cb8:	00991023          	sh	s1,0(s2)
     cbc:	01c12083          	lw	ra,28(sp)
     cc0:	01812403          	lw	s0,24(sp)
     cc4:	413a0533          	sub	a0,s4,s3
     cc8:	01412483          	lw	s1,20(sp)
     ccc:	01012903          	lw	s2,16(sp)
     cd0:	00c12983          	lw	s3,12(sp)
     cd4:	00812a03          	lw	s4,8(sp)
     cd8:	02010113          	add	sp,sp,32
     cdc:	00008067          	ret
     ce0:	01049513          	sll	a0,s1,0x10
     ce4:	01055513          	srl	a0,a0,0x10
     ce8:	00048993          	mv	s3,s1
     cec:	fb1ff06f          	j	c9c <cmp_complex+0xe8>
     cf0:	02200693          	li	a3,34
     cf4:	00058713          	mv	a4,a1
     cf8:	00d5d463          	bge	a1,a3,d00 <cmp_complex+0x14c>
     cfc:	02200713          	li	a4,34
     d00:	00241683          	lh	a3,2(s0)
     d04:	00041603          	lh	a2,0(s0)
     d08:	01442583          	lw	a1,20(s0)
     d0c:	01842503          	lw	a0,24(s0)
     d10:	0ff77713          	zext.b	a4,a4
     d14:	219010ef          	jal	272c <core_bench_state>
     d18:	03e45783          	lhu	a5,62(s0)
     d1c:	f6079ae3          	bnez	a5,c90 <cmp_complex+0xdc>
     d20:	02a41f23          	sh	a0,62(s0)
     d24:	f6dff06f          	j	c90 <cmp_complex+0xdc>
     d28:	02200693          	li	a3,34
     d2c:	00058713          	mv	a4,a1
     d30:	00d5d463          	bge	a1,a3,d38 <cmp_complex+0x184>
     d34:	02200713          	li	a4,34
     d38:	00241683          	lh	a3,2(s0)
     d3c:	00041603          	lh	a2,0(s0)
     d40:	01442583          	lw	a1,20(s0)
     d44:	01842503          	lw	a0,24(s0)
     d48:	0ff77713          	zext.b	a4,a4
     d4c:	1e1010ef          	jal	272c <core_bench_state>
     d50:	03e45783          	lhu	a5,62(s0)
     d54:	00079463          	bnez	a5,d5c <cmp_complex+0x1a8>
     d58:	02a41f23          	sh	a0,62(s0)
     d5c:	01051a13          	sll	s4,a0,0x10
     d60:	03845783          	lhu	a5,56(s0)
     d64:	410a5a13          	sra	s4,s4,0x10
     d68:	eb9ff06f          	j	c20 <cmp_complex+0x6c>
     d6c:	00078613          	mv	a2,a5
     d70:	02840513          	add	a0,s0,40
     d74:	7b5000ef          	jal	1d28 <core_bench_matrix>
     d78:	03c45783          	lhu	a5,60(s0)
     d7c:	fe0790e3          	bnez	a5,d5c <cmp_complex+0x1a8>
     d80:	02a41e23          	sh	a0,60(s0)
     d84:	fd9ff06f          	j	d5c <cmp_complex+0x1a8>

00000d88 <cmp_idx>:
     d88:	00060a63          	beqz	a2,d9c <cmp_idx+0x14>
     d8c:	00251503          	lh	a0,2(a0)
     d90:	00259783          	lh	a5,2(a1)
     d94:	40f50533          	sub	a0,a0,a5
     d98:	00008067          	ret
     d9c:	00051783          	lh	a5,0(a0)
     da0:	01079713          	sll	a4,a5,0x10
     da4:	01075713          	srl	a4,a4,0x10
     da8:	00875713          	srl	a4,a4,0x8
     dac:	f007f793          	and	a5,a5,-256
     db0:	00e7e7b3          	or	a5,a5,a4
     db4:	00f51023          	sh	a5,0(a0)
     db8:	00059783          	lh	a5,0(a1)
     dbc:	00251503          	lh	a0,2(a0)
     dc0:	01079713          	sll	a4,a5,0x10
     dc4:	01075713          	srl	a4,a4,0x10
     dc8:	00875713          	srl	a4,a4,0x8
     dcc:	f007f793          	and	a5,a5,-256
     dd0:	00e7e7b3          	or	a5,a5,a4
     dd4:	00f59023          	sh	a5,0(a1)
     dd8:	00259783          	lh	a5,2(a1)
     ddc:	40f50533          	sub	a0,a0,a5
     de0:	00008067          	ret

00000de4 <copy_info>:
     de4:	00059703          	lh	a4,0(a1)
     de8:	00259783          	lh	a5,2(a1)
     dec:	00e51023          	sh	a4,0(a0)
     df0:	00f51123          	sh	a5,2(a0)
     df4:	00008067          	ret

00000df8 <core_bench_list>:
     df8:	00451883          	lh	a7,4(a0)
     dfc:	fc010113          	add	sp,sp,-64
     e00:	02812c23          	sw	s0,56(sp)
     e04:	03612023          	sw	s6,32(sp)
     e08:	01712e23          	sw	s7,28(sp)
     e0c:	02112e23          	sw	ra,60(sp)
     e10:	02912a23          	sw	s1,52(sp)
     e14:	03212823          	sw	s2,48(sp)
     e18:	03312623          	sw	s3,44(sp)
     e1c:	03412423          	sw	s4,40(sp)
     e20:	03512223          	sw	s5,36(sp)
     e24:	01812c23          	sw	s8,24(sp)
     e28:	01912a23          	sw	s9,20(sp)
     e2c:	01a12823          	sw	s10,16(sp)
     e30:	01b12623          	sw	s11,12(sp)
     e34:	02452403          	lw	s0,36(a0)
     e38:	00050b13          	mv	s6,a0
     e3c:	00058b93          	mv	s7,a1
     e40:	00058513          	mv	a0,a1
     e44:	45105663          	blez	a7,1290 <core_bench_list+0x498>
     e48:	00000613          	li	a2,0
     e4c:	00000813          	li	a6,0
     e50:	00000593          	li	a1,0
     e54:	00000493          	li	s1,0
     e58:	0ff67c93          	zext.b	s9,a2
     e5c:	260bce63          	bltz	s7,10d8 <core_bench_list+0x2e0>
     e60:	42040e63          	beqz	s0,129c <core_bench_list+0x4a4>
     e64:	00040793          	mv	a5,s0
     e68:	00c0006f          	j	e74 <core_bench_list+0x7c>
     e6c:	0007a783          	lw	a5,0(a5)
     e70:	00078863          	beqz	a5,e80 <core_bench_list+0x88>
     e74:	0047a703          	lw	a4,4(a5)
     e78:	00271703          	lh	a4,2(a4)
     e7c:	ff7718e3          	bne	a4,s7,e6c <core_bench_list+0x74>
     e80:	00000693          	li	a3,0
     e84:	0080006f          	j	e8c <core_bench_list+0x94>
     e88:	00070413          	mv	s0,a4
     e8c:	00042703          	lw	a4,0(s0)
     e90:	00d42023          	sw	a3,0(s0)
     e94:	00040693          	mv	a3,s0
     e98:	fe0718e3          	bnez	a4,e88 <core_bench_list+0x90>
     e9c:	26078063          	beqz	a5,10fc <core_bench_list+0x304>
     ea0:	0047a703          	lw	a4,4(a5)
     ea4:	00071703          	lh	a4,0(a4)
     ea8:	00177693          	and	a3,a4,1
     eac:	00068c63          	beqz	a3,ec4 <core_bench_list+0xcc>
     eb0:	40975713          	sra	a4,a4,0x9
     eb4:	00177713          	and	a4,a4,1
     eb8:	00e48733          	add	a4,s1,a4
     ebc:	01071493          	sll	s1,a4,0x10
     ec0:	0104d493          	srl	s1,s1,0x10
     ec4:	0007a703          	lw	a4,0(a5)
     ec8:	00070c63          	beqz	a4,ee0 <core_bench_list+0xe8>
     ecc:	00072683          	lw	a3,0(a4)
     ed0:	00d7a023          	sw	a3,0(a5)
     ed4:	00042783          	lw	a5,0(s0)
     ed8:	00f72023          	sw	a5,0(a4)
     edc:	00e42023          	sw	a4,0(s0)
     ee0:	00158793          	add	a5,a1,1
     ee4:	01079593          	sll	a1,a5,0x10
     ee8:	0105d593          	srl	a1,a1,0x10
     eec:	000bc863          	bltz	s7,efc <core_bench_list+0x104>
     ef0:	001b8b93          	add	s7,s7,1
     ef4:	010b9b93          	sll	s7,s7,0x10
     ef8:	410bdb93          	sra	s7,s7,0x10
     efc:	00160613          	add	a2,a2,1
     f00:	01061613          	sll	a2,a2,0x10
     f04:	41065613          	sra	a2,a2,0x10
     f08:	f4c898e3          	bne	a7,a2,e58 <core_bench_list+0x60>
     f0c:	00259793          	sll	a5,a1,0x2
     f10:	410787b3          	sub	a5,a5,a6
     f14:	00f484b3          	add	s1,s1,a5
     f18:	01049493          	sll	s1,s1,0x10
     f1c:	0104d493          	srl	s1,s1,0x10
     f20:	26a04a63          	bgtz	a0,1194 <core_bench_list+0x39c>
     f24:	00042783          	lw	a5,0(s0)
     f28:	00040913          	mv	s2,s0
     f2c:	0007a983          	lw	s3,0(a5)
     f30:	0047a703          	lw	a4,4(a5)
     f34:	0049a603          	lw	a2,4(s3)
     f38:	0009a683          	lw	a3,0(s3)
     f3c:	00c7a223          	sw	a2,4(a5)
     f40:	00e9a223          	sw	a4,4(s3)
     f44:	00d7a023          	sw	a3,0(a5)
     f48:	0009a023          	sw	zero,0(s3)
     f4c:	0e0bc463          	bltz	s7,1034 <core_bench_list+0x23c>
     f50:	00492783          	lw	a5,4(s2)
     f54:	00279783          	lh	a5,2(a5)
     f58:	01778c63          	beq	a5,s7,f70 <core_bench_list+0x178>
     f5c:	00092903          	lw	s2,0(s2)
     f60:	30090063          	beqz	s2,1260 <core_bench_list+0x468>
     f64:	00492783          	lw	a5,4(s2)
     f68:	00279783          	lh	a5,2(a5)
     f6c:	ff7798e3          	bne	a5,s7,f5c <core_bench_list+0x164>
     f70:	00442783          	lw	a5,4(s0)
     f74:	00048593          	mv	a1,s1
     f78:	00079503          	lh	a0,0(a5)
     f7c:	30c020ef          	jal	3288 <crc16>
     f80:	00092903          	lw	s2,0(s2)
     f84:	00050493          	mv	s1,a0
     f88:	fe0914e3          	bnez	s2,f70 <core_bench_list+0x178>
     f8c:	00042903          	lw	s2,0(s0)
     f90:	0049a703          	lw	a4,4(s3)
     f94:	00492683          	lw	a3,4(s2)
     f98:	00092783          	lw	a5,0(s2)
     f9c:	00100e93          	li	t4,1
     fa0:	00d9a223          	sw	a3,4(s3)
     fa4:	00e92223          	sw	a4,4(s2)
     fa8:	00f9a023          	sw	a5,0(s3)
     fac:	01392023          	sw	s3,0(s2)
     fb0:	00000613          	li	a2,0
     fb4:	00000913          	li	s2,0
     fb8:	00000f13          	li	t5,0
     fbc:	00100f93          	li	t6,1
     fc0:	001f0f13          	add	t5,t5,1
     fc4:	00040713          	mv	a4,s0
     fc8:	00000793          	li	a5,0
     fcc:	00072703          	lw	a4,0(a4)
     fd0:	00178793          	add	a5,a5,1
     fd4:	00070463          	beqz	a4,fdc <core_bench_list+0x1e4>
     fd8:	ffd79ae3          	bne	a5,t4,fcc <core_bench_list+0x1d4>
     fdc:	000e8593          	mv	a1,t4
     fe0:	02f05263          	blez	a5,1004 <core_bench_list+0x20c>
     fe4:	06059063          	bnez	a1,1044 <core_bench_list+0x24c>
     fe8:	00040693          	mv	a3,s0
     fec:	00042403          	lw	s0,0(s0)
     ff0:	fff78793          	add	a5,a5,-1
     ff4:	02060663          	beqz	a2,1020 <core_bench_list+0x228>
     ff8:	00d62023          	sw	a3,0(a2)
     ffc:	00068613          	mv	a2,a3
    1000:	fef042e3          	bgtz	a5,fe4 <core_bench_list+0x1ec>
    1004:	0ab05063          	blez	a1,10a4 <core_bench_list+0x2ac>
    1008:	0a070463          	beqz	a4,10b0 <core_bench_list+0x2b8>
    100c:	02079e63          	bnez	a5,1048 <core_bench_list+0x250>
    1010:	00070693          	mv	a3,a4
    1014:	fff58593          	add	a1,a1,-1
    1018:	00072703          	lw	a4,0(a4)
    101c:	fc061ee3          	bnez	a2,ff8 <core_bench_list+0x200>
    1020:	00068913          	mv	s2,a3
    1024:	00068613          	mv	a2,a3
    1028:	fd9ff06f          	j	1000 <core_bench_list+0x208>
    102c:	00092903          	lw	s2,0(s2)
    1030:	22090863          	beqz	s2,1260 <core_bench_list+0x468>
    1034:	00492783          	lw	a5,4(s2)
    1038:	0007c783          	lbu	a5,0(a5)
    103c:	fefc98e3          	bne	s9,a5,102c <core_bench_list+0x234>
    1040:	f31ff06f          	j	f70 <core_bench_list+0x178>
    1044:	fa0702e3          	beqz	a4,fe8 <core_bench_list+0x1f0>
    1048:	00442803          	lw	a6,4(s0)
    104c:	00472503          	lw	a0,4(a4)
    1050:	00081683          	lh	a3,0(a6)
    1054:	00251303          	lh	t1,2(a0)
    1058:	00281e03          	lh	t3,2(a6)
    105c:	01069893          	sll	a7,a3,0x10
    1060:	0108d893          	srl	a7,a7,0x10
    1064:	f006f693          	and	a3,a3,-256
    1068:	0088d893          	srl	a7,a7,0x8
    106c:	0116e6b3          	or	a3,a3,a7
    1070:	00d81023          	sh	a3,0(a6)
    1074:	00051683          	lh	a3,0(a0)
    1078:	01069813          	sll	a6,a3,0x10
    107c:	01085813          	srl	a6,a6,0x10
    1080:	f006f693          	and	a3,a3,-256
    1084:	00885813          	srl	a6,a6,0x8
    1088:	0106e6b3          	or	a3,a3,a6
    108c:	00d51023          	sh	a3,0(a0)
    1090:	f5c35ce3          	bge	t1,t3,fe8 <core_bench_list+0x1f0>
    1094:	00070693          	mv	a3,a4
    1098:	fff58593          	add	a1,a1,-1
    109c:	00072703          	lw	a4,0(a4)
    10a0:	f55ff06f          	j	ff4 <core_bench_list+0x1fc>
    10a4:	00070663          	beqz	a4,10b0 <core_bench_list+0x2b8>
    10a8:	00070413          	mv	s0,a4
    10ac:	f15ff06f          	j	fc0 <core_bench_list+0x1c8>
    10b0:	00062023          	sw	zero,0(a2)
    10b4:	07ff0e63          	beq	t5,t6,1130 <core_bench_list+0x338>
    10b8:	001e9e93          	sll	t4,t4,0x1
    10bc:	06090663          	beqz	s2,1128 <core_bench_list+0x330>
    10c0:	00090713          	mv	a4,s2
    10c4:	00000613          	li	a2,0
    10c8:	00000913          	li	s2,0
    10cc:	00000f13          	li	t5,0
    10d0:	00070413          	mv	s0,a4
    10d4:	eedff06f          	j	fc0 <core_bench_list+0x1c8>
    10d8:	1c040263          	beqz	s0,129c <core_bench_list+0x4a4>
    10dc:	00040793          	mv	a5,s0
    10e0:	00c0006f          	j	10ec <core_bench_list+0x2f4>
    10e4:	0007a783          	lw	a5,0(a5)
    10e8:	d8078ce3          	beqz	a5,e80 <core_bench_list+0x88>
    10ec:	0047a703          	lw	a4,4(a5)
    10f0:	00074703          	lbu	a4,0(a4)
    10f4:	feec98e3          	bne	s9,a4,10e4 <core_bench_list+0x2ec>
    10f8:	d89ff06f          	j	e80 <core_bench_list+0x88>
    10fc:	00042783          	lw	a5,0(s0)
    1100:	00180813          	add	a6,a6,1
    1104:	01081813          	sll	a6,a6,0x10
    1108:	0047a783          	lw	a5,4(a5)
    110c:	01085813          	srl	a6,a6,0x10
    1110:	00178783          	lb	a5,1(a5)
    1114:	0017f793          	and	a5,a5,1
    1118:	00f487b3          	add	a5,s1,a5
    111c:	01079493          	sll	s1,a5,0x10
    1120:	0104d493          	srl	s1,s1,0x10
    1124:	dc9ff06f          	j	eec <core_bench_list+0xf4>
    1128:	00002023          	sw	zero,0(zero) # 0 <main>
    112c:	00100073          	ebreak
    1130:	00092403          	lw	s0,0(s2)
    1134:	02040063          	beqz	s0,1154 <core_bench_list+0x35c>
    1138:	00492783          	lw	a5,4(s2)
    113c:	00048593          	mv	a1,s1
    1140:	00079503          	lh	a0,0(a5)
    1144:	144020ef          	jal	3288 <crc16>
    1148:	00042403          	lw	s0,0(s0)
    114c:	00050493          	mv	s1,a0
    1150:	fe0414e3          	bnez	s0,1138 <core_bench_list+0x340>
    1154:	03c12083          	lw	ra,60(sp)
    1158:	03812403          	lw	s0,56(sp)
    115c:	03012903          	lw	s2,48(sp)
    1160:	02c12983          	lw	s3,44(sp)
    1164:	02812a03          	lw	s4,40(sp)
    1168:	02412a83          	lw	s5,36(sp)
    116c:	02012b03          	lw	s6,32(sp)
    1170:	01c12b83          	lw	s7,28(sp)
    1174:	01812c03          	lw	s8,24(sp)
    1178:	01412c83          	lw	s9,20(sp)
    117c:	01012d03          	lw	s10,16(sp)
    1180:	00c12d83          	lw	s11,12(sp)
    1184:	00048513          	mv	a0,s1
    1188:	03412483          	lw	s1,52(sp)
    118c:	04010113          	add	sp,sp,64
    1190:	00008067          	ret
    1194:	00100a13          	li	s4,1
    1198:	f80408e3          	beqz	s0,1128 <core_bench_list+0x330>
    119c:	00000993          	li	s3,0
    11a0:	00000a93          	li	s5,0
    11a4:	00000c13          	li	s8,0
    11a8:	001c0c13          	add	s8,s8,1
    11ac:	00040793          	mv	a5,s0
    11b0:	00000913          	li	s2,0
    11b4:	0007a783          	lw	a5,0(a5)
    11b8:	00190913          	add	s2,s2,1
    11bc:	00078463          	beqz	a5,11c4 <core_bench_list+0x3cc>
    11c0:	ff491ae3          	bne	s2,s4,11b4 <core_bench_list+0x3bc>
    11c4:	00040d93          	mv	s11,s0
    11c8:	000a0d13          	mv	s10,s4
    11cc:	00078413          	mv	s0,a5
    11d0:	03205263          	blez	s2,11f4 <core_bench_list+0x3fc>
    11d4:	040d1463          	bnez	s10,121c <core_bench_list+0x424>
    11d8:	000d8793          	mv	a5,s11
    11dc:	000dad83          	lw	s11,0(s11) # 5000 <ee_printf+0x14f4>
    11e0:	fff90913          	add	s2,s2,-1
    11e4:	02098663          	beqz	s3,1210 <core_bench_list+0x418>
    11e8:	00f9a023          	sw	a5,0(s3)
    11ec:	00078993          	mv	s3,a5
    11f0:	ff2042e3          	bgtz	s2,11d4 <core_bench_list+0x3dc>
    11f4:	05a05863          	blez	s10,1244 <core_bench_list+0x44c>
    11f8:	04040863          	beqz	s0,1248 <core_bench_list+0x450>
    11fc:	02091263          	bnez	s2,1220 <core_bench_list+0x428>
    1200:	00040793          	mv	a5,s0
    1204:	fffd0d13          	add	s10,s10,-1
    1208:	00042403          	lw	s0,0(s0)
    120c:	fc099ee3          	bnez	s3,11e8 <core_bench_list+0x3f0>
    1210:	00078a93          	mv	s5,a5
    1214:	00078993          	mv	s3,a5
    1218:	fd9ff06f          	j	11f0 <core_bench_list+0x3f8>
    121c:	fa040ee3          	beqz	s0,11d8 <core_bench_list+0x3e0>
    1220:	00442583          	lw	a1,4(s0)
    1224:	004da503          	lw	a0,4(s11)
    1228:	000b0613          	mv	a2,s6
    122c:	989ff0ef          	jal	bb4 <cmp_complex>
    1230:	faa054e3          	blez	a0,11d8 <core_bench_list+0x3e0>
    1234:	00040793          	mv	a5,s0
    1238:	fffd0d13          	add	s10,s10,-1
    123c:	00042403          	lw	s0,0(s0)
    1240:	fa5ff06f          	j	11e4 <core_bench_list+0x3ec>
    1244:	f60412e3          	bnez	s0,11a8 <core_bench_list+0x3b0>
    1248:	0009a023          	sw	zero,0(s3)
    124c:	00100793          	li	a5,1
    1250:	02fc0c63          	beq	s8,a5,1288 <core_bench_list+0x490>
    1254:	001a1a13          	sll	s4,s4,0x1
    1258:	000a8413          	mv	s0,s5
    125c:	f3dff06f          	j	1198 <core_bench_list+0x3a0>
    1260:	00042903          	lw	s2,0(s0)
    1264:	d20908e3          	beqz	s2,f94 <core_bench_list+0x19c>
    1268:	00442783          	lw	a5,4(s0)
    126c:	00048593          	mv	a1,s1
    1270:	00079503          	lh	a0,0(a5)
    1274:	014020ef          	jal	3288 <crc16>
    1278:	00092903          	lw	s2,0(s2)
    127c:	00050493          	mv	s1,a0
    1280:	ce0918e3          	bnez	s2,f70 <core_bench_list+0x178>
    1284:	d09ff06f          	j	f8c <core_bench_list+0x194>
    1288:	000a8413          	mv	s0,s5
    128c:	c99ff06f          	j	f24 <core_bench_list+0x12c>
    1290:	00000493          	li	s1,0
    1294:	00000c93          	li	s9,0
    1298:	c89ff06f          	j	f20 <core_bench_list+0x128>
    129c:	00002783          	lw	a5,0(zero) # 0 <main>
    12a0:	00100073          	ebreak

000012a4 <core_list_init>:
    12a4:	01400793          	li	a5,20
    12a8:	02f55333          	divu	t1,a0,a5
    12ac:	00058713          	mv	a4,a1
    12b0:	0005a023          	sw	zero,0(a1)
    12b4:	ffff87b7          	lui	a5,0xffff8
    12b8:	08078593          	add	a1,a5,128 # ffff8080 <start_time_val+0xffff29b0>
    12bc:	01070513          	add	a0,a4,16
    12c0:	00060f13          	mv	t5,a2
    12c4:	00870693          	add	a3,a4,8
    12c8:	ffe30313          	add	t1,t1,-2
    12cc:	00331813          	sll	a6,t1,0x3
    12d0:	01070833          	add	a6,a4,a6
    12d4:	01072223          	sw	a6,4(a4)
    12d8:	00231f93          	sll	t6,t1,0x2
    12dc:	00081123          	sh	zero,2(a6)
    12e0:	00b81023          	sh	a1,0(a6)
    12e4:	01f80fb3          	add	t6,a6,t6
    12e8:	00480613          	add	a2,a6,4
    12ec:	25057463          	bgeu	a0,a6,1534 <core_list_init+0x290>
    12f0:	00880893          	add	a7,a6,8
    12f4:	25f8f063          	bgeu	a7,t6,1534 <core_list_init+0x290>
    12f8:	00d72023          	sw	a3,0(a4)
    12fc:	00c72623          	sw	a2,12(a4)
    1300:	00072423          	sw	zero,8(a4)
    1304:	fff7c793          	not	a5,a5
    1308:	00068593          	mv	a1,a3
    130c:	fff00693          	li	a3,-1
    1310:	00d81223          	sh	a3,4(a6)
    1314:	00f81323          	sh	a5,6(a6)
    1318:	00088613          	mv	a2,a7
    131c:	00050693          	mv	a3,a0
    1320:	06030a63          	beqz	t1,1394 <core_list_init+0xf0>
    1324:	010f1393          	sll	t2,t5,0x10
    1328:	ffff82b7          	lui	t0,0xffff8
    132c:	0103d393          	srl	t2,t2,0x10
    1330:	00000513          	li	a0,0
    1334:	fff2c293          	not	t0,t0
    1338:	00868e13          	add	t3,a3,8
    133c:	050e7c63          	bgeu	t3,a6,1394 <core_list_init+0xf0>
    1340:	00460e93          	add	t4,a2,4
    1344:	05fef463          	bgeu	t4,t6,138c <core_list_init+0xe8>
    1348:	01051893          	sll	a7,a0,0x10
    134c:	0108d893          	srl	a7,a7,0x10
    1350:	0078c7b3          	xor	a5,a7,t2
    1354:	00379793          	sll	a5,a5,0x3
    1358:	0787f793          	and	a5,a5,120
    135c:	0078f893          	and	a7,a7,7
    1360:	00b6a023          	sw	a1,0(a3)
    1364:	0117e7b3          	or	a5,a5,a7
    1368:	00d72023          	sw	a3,0(a4)
    136c:	00879593          	sll	a1,a5,0x8
    1370:	00c6a223          	sw	a2,4(a3)
    1374:	00f5e7b3          	or	a5,a1,a5
    1378:	00f61023          	sh	a5,0(a2)
    137c:	00561123          	sh	t0,2(a2)
    1380:	00068593          	mv	a1,a3
    1384:	000e8613          	mv	a2,t4
    1388:	000e0693          	mv	a3,t3
    138c:	00150513          	add	a0,a0,1
    1390:	faa314e3          	bne	t1,a0,1338 <core_list_init+0x94>
    1394:	0005a603          	lw	a2,0(a1)
    1398:	06060c63          	beqz	a2,1410 <core_list_init+0x16c>
    139c:	00500893          	li	a7,5
    13a0:	031358b3          	divu	a7,t1,a7
    13a4:	00004337          	lui	t1,0x4
    13a8:	20000793          	li	a5,512
    13ac:	00100693          	li	a3,1
    13b0:	fff30313          	add	t1,t1,-1 # 3fff <ee_printf+0x4f3>
    13b4:	0280006f          	j	13dc <core_list_init+0x138>
    13b8:	00062503          	lw	a0,0(a2)
    13bc:	10078793          	add	a5,a5,256
    13c0:	00d81123          	sh	a3,2(a6)
    13c4:	01079793          	sll	a5,a5,0x10
    13c8:	00168693          	add	a3,a3,1
    13cc:	0107d793          	srl	a5,a5,0x10
    13d0:	04050063          	beqz	a0,1410 <core_list_init+0x16c>
    13d4:	00060593          	mv	a1,a2
    13d8:	00050613          	mv	a2,a0
    13dc:	0045a803          	lw	a6,4(a1)
    13e0:	fd16ece3          	bltu	a3,a7,13b8 <core_list_init+0x114>
    13e4:	7007f513          	and	a0,a5,1792
    13e8:	00df45b3          	xor	a1,t5,a3
    13ec:	00a5e5b3          	or	a1,a1,a0
    13f0:	00062503          	lw	a0,0(a2)
    13f4:	0065f5b3          	and	a1,a1,t1
    13f8:	10078793          	add	a5,a5,256
    13fc:	01079793          	sll	a5,a5,0x10
    1400:	00b81123          	sh	a1,2(a6)
    1404:	00168693          	add	a3,a3,1
    1408:	0107d793          	srl	a5,a5,0x10
    140c:	fc0514e3          	bnez	a0,13d4 <core_list_init+0x130>
    1410:	00100f93          	li	t6,1
    1414:	00000813          	li	a6,0
    1418:	00000513          	li	a0,0
    141c:	00000293          	li	t0,0
    1420:	00100393          	li	t2,1
    1424:	00128293          	add	t0,t0,1 # ffff8001 <start_time_val+0xffff2931>
    1428:	00070793          	mv	a5,a4
    142c:	00000693          	li	a3,0
    1430:	0007a783          	lw	a5,0(a5)
    1434:	00168693          	add	a3,a3,1
    1438:	00078463          	beqz	a5,1440 <core_list_init+0x19c>
    143c:	fff69ae3          	bne	a3,t6,1430 <core_list_init+0x18c>
    1440:	000f8593          	mv	a1,t6
    1444:	02d05263          	blez	a3,1468 <core_list_init+0x1c4>
    1448:	04059463          	bnez	a1,1490 <core_list_init+0x1ec>
    144c:	00072603          	lw	a2,0(a4)
    1450:	fff68693          	add	a3,a3,-1
    1454:	02080a63          	beqz	a6,1488 <core_list_init+0x1e4>
    1458:	00e82023          	sw	a4,0(a6)
    145c:	00070813          	mv	a6,a4
    1460:	00060713          	mv	a4,a2
    1464:	fed042e3          	bgtz	a3,1448 <core_list_init+0x1a4>
    1468:	08b05663          	blez	a1,14f4 <core_list_init+0x250>
    146c:	08078a63          	beqz	a5,1500 <core_list_init+0x25c>
    1470:	02069263          	bnez	a3,1494 <core_list_init+0x1f0>
    1474:	00070613          	mv	a2,a4
    1478:	fff58593          	add	a1,a1,-1
    147c:	00078713          	mv	a4,a5
    1480:	0007a783          	lw	a5,0(a5)
    1484:	fc081ae3          	bnez	a6,1458 <core_list_init+0x1b4>
    1488:	00070513          	mv	a0,a4
    148c:	fd1ff06f          	j	145c <core_list_init+0x1b8>
    1490:	fa078ee3          	beqz	a5,144c <core_list_init+0x1a8>
    1494:	00472303          	lw	t1,4(a4)
    1498:	0047a883          	lw	a7,4(a5)
    149c:	00031603          	lh	a2,0(t1)
    14a0:	00289e83          	lh	t4,2(a7)
    14a4:	00231f03          	lh	t5,2(t1)
    14a8:	01061e13          	sll	t3,a2,0x10
    14ac:	010e5e13          	srl	t3,t3,0x10
    14b0:	f0067613          	and	a2,a2,-256
    14b4:	008e5e13          	srl	t3,t3,0x8
    14b8:	01c66633          	or	a2,a2,t3
    14bc:	00c31023          	sh	a2,0(t1)
    14c0:	00089603          	lh	a2,0(a7)
    14c4:	01061313          	sll	t1,a2,0x10
    14c8:	01035313          	srl	t1,t1,0x10
    14cc:	f0067613          	and	a2,a2,-256
    14d0:	00835313          	srl	t1,t1,0x8
    14d4:	00666633          	or	a2,a2,t1
    14d8:	00c89023          	sh	a2,0(a7)
    14dc:	f7eed8e3          	bge	t4,t5,144c <core_list_init+0x1a8>
    14e0:	00070613          	mv	a2,a4
    14e4:	fff58593          	add	a1,a1,-1
    14e8:	00078713          	mv	a4,a5
    14ec:	0007a783          	lw	a5,0(a5)
    14f0:	f65ff06f          	j	1454 <core_list_init+0x1b0>
    14f4:	00078663          	beqz	a5,1500 <core_list_init+0x25c>
    14f8:	00078713          	mv	a4,a5
    14fc:	f29ff06f          	j	1424 <core_list_init+0x180>
    1500:	00082023          	sw	zero,0(a6)
    1504:	02728263          	beq	t0,t2,1528 <core_list_init+0x284>
    1508:	001f9f93          	sll	t6,t6,0x1
    150c:	02050063          	beqz	a0,152c <core_list_init+0x288>
    1510:	00050793          	mv	a5,a0
    1514:	00000813          	li	a6,0
    1518:	00000513          	li	a0,0
    151c:	00000293          	li	t0,0
    1520:	00078713          	mv	a4,a5
    1524:	f01ff06f          	j	1424 <core_list_init+0x180>
    1528:	00008067          	ret
    152c:	00002023          	sw	zero,0(zero) # 0 <main>
    1530:	00100073          	ebreak
    1534:	00000593          	li	a1,0
    1538:	de9ff06f          	j	1320 <core_list_init+0x7c>

0000153c <core_list_insert_new>:
    153c:	00062803          	lw	a6,0(a2)
    1540:	00880893          	add	a7,a6,8
    1544:	04e8f663          	bgeu	a7,a4,1590 <core_list_insert_new+0x54>
    1548:	0006a703          	lw	a4,0(a3)
    154c:	00470313          	add	t1,a4,4
    1550:	04f37063          	bgeu	t1,a5,1590 <core_list_insert_new+0x54>
    1554:	01162023          	sw	a7,0(a2)
    1558:	00052783          	lw	a5,0(a0)
    155c:	00059883          	lh	a7,0(a1)
    1560:	00259603          	lh	a2,2(a1)
    1564:	00f82023          	sw	a5,0(a6)
    1568:	01052023          	sw	a6,0(a0)
    156c:	00e82223          	sw	a4,4(a6)
    1570:	0006a783          	lw	a5,0(a3)
    1574:	00080513          	mv	a0,a6
    1578:	00478793          	add	a5,a5,4
    157c:	00f6a023          	sw	a5,0(a3)
    1580:	00482783          	lw	a5,4(a6)
    1584:	01179023          	sh	a7,0(a5)
    1588:	00c79123          	sh	a2,2(a5)
    158c:	00008067          	ret
    1590:	00000813          	li	a6,0
    1594:	00080513          	mv	a0,a6
    1598:	00008067          	ret

0000159c <core_list_remove>:
    159c:	00050793          	mv	a5,a0
    15a0:	00052503          	lw	a0,0(a0)
    15a4:	0047a683          	lw	a3,4(a5)
    15a8:	00452603          	lw	a2,4(a0)
    15ac:	00052703          	lw	a4,0(a0)
    15b0:	00c7a223          	sw	a2,4(a5)
    15b4:	00d52223          	sw	a3,4(a0)
    15b8:	00e7a023          	sw	a4,0(a5)
    15bc:	00052023          	sw	zero,0(a0)
    15c0:	00008067          	ret

000015c4 <core_list_undo_remove>:
    15c4:	0045a603          	lw	a2,4(a1)
    15c8:	00452683          	lw	a3,4(a0)
    15cc:	0005a703          	lw	a4,0(a1)
    15d0:	00c52223          	sw	a2,4(a0)
    15d4:	00d5a223          	sw	a3,4(a1)
    15d8:	00e52023          	sw	a4,0(a0)
    15dc:	00a5a023          	sw	a0,0(a1)
    15e0:	00008067          	ret

000015e4 <core_list_find>:
    15e4:	00259703          	lh	a4,2(a1)
    15e8:	02074263          	bltz	a4,160c <core_list_find+0x28>
    15ec:	00051863          	bnez	a0,15fc <core_list_find+0x18>
    15f0:	0480006f          	j	1638 <core_list_find+0x54>
    15f4:	00052503          	lw	a0,0(a0)
    15f8:	02050c63          	beqz	a0,1630 <core_list_find+0x4c>
    15fc:	00452783          	lw	a5,4(a0)
    1600:	00279783          	lh	a5,2(a5)
    1604:	fee798e3          	bne	a5,a4,15f4 <core_list_find+0x10>
    1608:	00008067          	ret
    160c:	02050263          	beqz	a0,1630 <core_list_find+0x4c>
    1610:	00059703          	lh	a4,0(a1)
    1614:	00c0006f          	j	1620 <core_list_find+0x3c>
    1618:	00052503          	lw	a0,0(a0)
    161c:	00050c63          	beqz	a0,1634 <core_list_find+0x50>
    1620:	00452783          	lw	a5,4(a0)
    1624:	0007c783          	lbu	a5,0(a5)
    1628:	fee798e3          	bne	a5,a4,1618 <core_list_find+0x34>
    162c:	00008067          	ret
    1630:	00000513          	li	a0,0
    1634:	00008067          	ret
    1638:	00008067          	ret

0000163c <core_list_reverse>:
    163c:	02050063          	beqz	a0,165c <core_list_reverse+0x20>
    1640:	00000713          	li	a4,0
    1644:	0080006f          	j	164c <core_list_reverse+0x10>
    1648:	00078513          	mv	a0,a5
    164c:	00052783          	lw	a5,0(a0)
    1650:	00e52023          	sw	a4,0(a0)
    1654:	00050713          	mv	a4,a0
    1658:	fe0798e3          	bnez	a5,1648 <core_list_reverse+0xc>
    165c:	00008067          	ret

00001660 <core_list_mergesort>:
    1660:	fd010113          	add	sp,sp,-48
    1664:	01312e23          	sw	s3,28(sp)
    1668:	01512a23          	sw	s5,20(sp)
    166c:	01712623          	sw	s7,12(sp)
    1670:	01812423          	sw	s8,8(sp)
    1674:	01a12023          	sw	s10,0(sp)
    1678:	02112623          	sw	ra,44(sp)
    167c:	02812423          	sw	s0,40(sp)
    1680:	02912223          	sw	s1,36(sp)
    1684:	03212023          	sw	s2,32(sp)
    1688:	01412c23          	sw	s4,24(sp)
    168c:	01612823          	sw	s6,16(sp)
    1690:	01912223          	sw	s9,4(sp)
    1694:	00050993          	mv	s3,a0
    1698:	00058c13          	mv	s8,a1
    169c:	00060b93          	mv	s7,a2
    16a0:	00100a93          	li	s5,1
    16a4:	00100d13          	li	s10,1
    16a8:	0c098263          	beqz	s3,176c <core_list_mergesort+0x10c>
    16ac:	00000c93          	li	s9,0
    16b0:	00000493          	li	s1,0
    16b4:	00000b13          	li	s6,0
    16b8:	001c8c93          	add	s9,s9,1
    16bc:	00098793          	mv	a5,s3
    16c0:	00000413          	li	s0,0
    16c4:	0007a783          	lw	a5,0(a5)
    16c8:	00140413          	add	s0,s0,1
    16cc:	00078463          	beqz	a5,16d4 <core_list_mergesort+0x74>
    16d0:	fe8a9ae3          	bne	s5,s0,16c4 <core_list_mergesort+0x64>
    16d4:	00098913          	mv	s2,s3
    16d8:	000a8a13          	mv	s4,s5
    16dc:	00078993          	mv	s3,a5
    16e0:	02805263          	blez	s0,1704 <core_list_mergesort+0xa4>
    16e4:	040a1463          	bnez	s4,172c <core_list_mergesort+0xcc>
    16e8:	00090793          	mv	a5,s2
    16ec:	00092903          	lw	s2,0(s2)
    16f0:	fff40413          	add	s0,s0,-1
    16f4:	02048663          	beqz	s1,1720 <core_list_mergesort+0xc0>
    16f8:	00f4a023          	sw	a5,0(s1)
    16fc:	00078493          	mv	s1,a5
    1700:	fe8042e3          	bgtz	s0,16e4 <core_list_mergesort+0x84>
    1704:	05405863          	blez	s4,1754 <core_list_mergesort+0xf4>
    1708:	04098863          	beqz	s3,1758 <core_list_mergesort+0xf8>
    170c:	02041263          	bnez	s0,1730 <core_list_mergesort+0xd0>
    1710:	00098793          	mv	a5,s3
    1714:	fffa0a13          	add	s4,s4,-1
    1718:	0009a983          	lw	s3,0(s3)
    171c:	fc049ee3          	bnez	s1,16f8 <core_list_mergesort+0x98>
    1720:	00078b13          	mv	s6,a5
    1724:	00078493          	mv	s1,a5
    1728:	fd9ff06f          	j	1700 <core_list_mergesort+0xa0>
    172c:	fa098ee3          	beqz	s3,16e8 <core_list_mergesort+0x88>
    1730:	0049a583          	lw	a1,4(s3)
    1734:	00492503          	lw	a0,4(s2)
    1738:	000b8613          	mv	a2,s7
    173c:	000c00e7          	jalr	s8
    1740:	faa054e3          	blez	a0,16e8 <core_list_mergesort+0x88>
    1744:	00098793          	mv	a5,s3
    1748:	fffa0a13          	add	s4,s4,-1
    174c:	0009a983          	lw	s3,0(s3)
    1750:	fa5ff06f          	j	16f4 <core_list_mergesort+0x94>
    1754:	f60992e3          	bnez	s3,16b8 <core_list_mergesort+0x58>
    1758:	0004a023          	sw	zero,0(s1)
    175c:	01ac8c63          	beq	s9,s10,1774 <core_list_mergesort+0x114>
    1760:	000b0993          	mv	s3,s6
    1764:	001a9a93          	sll	s5,s5,0x1
    1768:	f40992e3          	bnez	s3,16ac <core_list_mergesort+0x4c>
    176c:	00002023          	sw	zero,0(zero) # 0 <main>
    1770:	00100073          	ebreak
    1774:	02c12083          	lw	ra,44(sp)
    1778:	02812403          	lw	s0,40(sp)
    177c:	02412483          	lw	s1,36(sp)
    1780:	02012903          	lw	s2,32(sp)
    1784:	01c12983          	lw	s3,28(sp)
    1788:	01812a03          	lw	s4,24(sp)
    178c:	01412a83          	lw	s5,20(sp)
    1790:	00c12b83          	lw	s7,12(sp)
    1794:	00812c03          	lw	s8,8(sp)
    1798:	00412c83          	lw	s9,4(sp)
    179c:	00012d03          	lw	s10,0(sp)
    17a0:	000b0513          	mv	a0,s6
    17a4:	01012b03          	lw	s6,16(sp)
    17a8:	03010113          	add	sp,sp,48
    17ac:	00008067          	ret

000017b0 <iterate>:
    17b0:	ff010113          	add	sp,sp,-16
    17b4:	01212023          	sw	s2,0(sp)
    17b8:	01c52903          	lw	s2,28(a0)
    17bc:	00112623          	sw	ra,12(sp)
    17c0:	00812423          	sw	s0,8(sp)
    17c4:	00912223          	sw	s1,4(sp)
    17c8:	02052c23          	sw	zero,56(a0)
    17cc:	02052e23          	sw	zero,60(a0)
    17d0:	04090463          	beqz	s2,1818 <iterate+0x68>
    17d4:	00050413          	mv	s0,a0
    17d8:	00000493          	li	s1,0
    17dc:	00100593          	li	a1,1
    17e0:	00040513          	mv	a0,s0
    17e4:	e14ff0ef          	jal	df8 <core_bench_list>
    17e8:	03845583          	lhu	a1,56(s0)
    17ec:	308010ef          	jal	2af4 <crcu16>
    17f0:	02a41c23          	sh	a0,56(s0)
    17f4:	fff00593          	li	a1,-1
    17f8:	00040513          	mv	a0,s0
    17fc:	dfcff0ef          	jal	df8 <core_bench_list>
    1800:	03845583          	lhu	a1,56(s0)
    1804:	2f0010ef          	jal	2af4 <crcu16>
    1808:	02a41c23          	sh	a0,56(s0)
    180c:	02048463          	beqz	s1,1834 <iterate+0x84>
    1810:	00148493          	add	s1,s1,1
    1814:	fc9914e3          	bne	s2,s1,17dc <iterate+0x2c>
    1818:	00c12083          	lw	ra,12(sp)
    181c:	00812403          	lw	s0,8(sp)
    1820:	00412483          	lw	s1,4(sp)
    1824:	00012903          	lw	s2,0(sp)
    1828:	00000513          	li	a0,0
    182c:	01010113          	add	sp,sp,16
    1830:	00008067          	ret
    1834:	02a41d23          	sh	a0,58(s0)
    1838:	00100793          	li	a5,1
    183c:	fcf90ee3          	beq	s2,a5,1818 <iterate+0x68>
    1840:	00100493          	li	s1,1
    1844:	f99ff06f          	j	17dc <iterate+0x2c>

00001848 <matrix_test>:
    1848:	fd010113          	add	sp,sp,-48
    184c:	02112623          	sw	ra,44(sp)
    1850:	02812423          	sw	s0,40(sp)
    1854:	02912223          	sw	s1,36(sp)
    1858:	03212023          	sw	s2,32(sp)
    185c:	01312e23          	sw	s3,28(sp)
    1860:	01412c23          	sw	s4,24(sp)
    1864:	01512a23          	sw	s5,20(sp)
    1868:	01612823          	sw	s6,16(sp)
    186c:	01712623          	sw	s7,12(sp)
    1870:	01812423          	sw	s8,8(sp)
    1874:	48050263          	beqz	a0,1cf8 <matrix_test+0x4b0>
    1878:	00151493          	sll	s1,a0,0x1
    187c:	00060b93          	mv	s7,a2
    1880:	40a00a33          	neg	s4,a0
    1884:	00960633          	add	a2,a2,s1
    1888:	01071993          	sll	s3,a4,0x10
    188c:	00068b13          	mv	s6,a3
    1890:	00050893          	mv	a7,a0
    1894:	00058a93          	mv	s5,a1
    1898:	00070913          	mv	s2,a4
    189c:	0109d993          	srl	s3,s3,0x10
    18a0:	00060693          	mv	a3,a2
    18a4:	00000813          	li	a6,0
    18a8:	002a1a13          	sll	s4,s4,0x2
    18ac:	409685b3          	sub	a1,a3,s1
    18b0:	00058793          	mv	a5,a1
    18b4:	0007d703          	lhu	a4,0(a5)
    18b8:	00278793          	add	a5,a5,2
    18bc:	00e98733          	add	a4,s3,a4
    18c0:	fee79f23          	sh	a4,-2(a5)
    18c4:	fed798e3          	bne	a5,a3,18b4 <matrix_test+0x6c>
    18c8:	00180413          	add	s0,a6,1
    18cc:	414586b3          	sub	a3,a1,s4
    18d0:	00888663          	beq	a7,s0,18dc <matrix_test+0x94>
    18d4:	00040813          	mv	a6,s0
    18d8:	fd5ff06f          	j	18ac <matrix_test+0x64>
    18dc:	00000593          	li	a1,0
    18e0:	00000893          	li	a7,0
    18e4:	40960533          	sub	a0,a2,s1
    18e8:	00259693          	sll	a3,a1,0x2
    18ec:	015686b3          	add	a3,a3,s5
    18f0:	00050793          	mv	a5,a0
    18f4:	00079703          	lh	a4,0(a5)
    18f8:	00468693          	add	a3,a3,4
    18fc:	00278793          	add	a5,a5,2
    1900:	03270733          	mul	a4,a4,s2
    1904:	fee6ae23          	sw	a4,-4(a3)
    1908:	fec796e3          	bne	a5,a2,18f4 <matrix_test+0xac>
    190c:	00188793          	add	a5,a7,1
    1910:	008585b3          	add	a1,a1,s0
    1914:	41450633          	sub	a2,a0,s4
    1918:	01088663          	beq	a7,a6,1924 <matrix_test+0xdc>
    191c:	00078893          	mv	a7,a5
    1920:	fc5ff06f          	j	18e4 <matrix_test+0x9c>
    1924:	414a8c33          	sub	s8,s5,s4
    1928:	40800eb3          	neg	t4,s0
    192c:	fffff7b7          	lui	a5,0xfffff
    1930:	00f96933          	or	s2,s2,a5
    1934:	000c0893          	mv	a7,s8
    1938:	00000513          	li	a0,0
    193c:	00000713          	li	a4,0
    1940:	00000613          	li	a2,0
    1944:	00000e13          	li	t3,0
    1948:	003e9e93          	sll	t4,t4,0x3
    194c:	01488333          	add	t1,a7,s4
    1950:	00030793          	mv	a5,t1
    1954:	0140006f          	j	1968 <matrix_test+0x120>
    1958:	01051513          	sll	a0,a0,0x10
    195c:	00478793          	add	a5,a5,4 # fffff004 <start_time_val+0xffff9934>
    1960:	41055513          	sra	a0,a0,0x10
    1964:	03178e63          	beq	a5,a7,19a0 <matrix_test+0x158>
    1968:	00070693          	mv	a3,a4
    196c:	0007a703          	lw	a4,0(a5)
    1970:	01051513          	sll	a0,a0,0x10
    1974:	01055513          	srl	a0,a0,0x10
    1978:	00e6a6b3          	slt	a3,a3,a4
    197c:	00e60633          	add	a2,a2,a4
    1980:	00a50593          	add	a1,a0,10
    1984:	00d50533          	add	a0,a0,a3
    1988:	fcc958e3          	bge	s2,a2,1958 <matrix_test+0x110>
    198c:	01059513          	sll	a0,a1,0x10
    1990:	00478793          	add	a5,a5,4
    1994:	41055513          	sra	a0,a0,0x10
    1998:	00000613          	li	a2,0
    199c:	fd1796e3          	bne	a5,a7,1968 <matrix_test+0x120>
    19a0:	001e0793          	add	a5,t3,1
    19a4:	41d308b3          	sub	a7,t1,t4
    19a8:	01c80663          	beq	a6,t3,19b4 <matrix_test+0x16c>
    19ac:	00078e13          	mv	t3,a5
    19b0:	f9dff06f          	j	194c <matrix_test+0x104>
    19b4:	00000593          	li	a1,0
    19b8:	0d1010ef          	jal	3288 <crc16>
    19bc:	00050593          	mv	a1,a0
    19c0:	009b0833          	add	a6,s6,s1
    19c4:	000a8893          	mv	a7,s5
    19c8:	00000313          	li	t1,0
    19cc:	00131693          	sll	a3,t1,0x1
    19d0:	00db86b3          	add	a3,s7,a3
    19d4:	000b0793          	mv	a5,s6
    19d8:	00000613          	li	a2,0
    19dc:	00069703          	lh	a4,0(a3)
    19e0:	00079503          	lh	a0,0(a5)
    19e4:	00278793          	add	a5,a5,2
    19e8:	00268693          	add	a3,a3,2
    19ec:	02a70733          	mul	a4,a4,a0
    19f0:	00e60633          	add	a2,a2,a4
    19f4:	ff0794e3          	bne	a5,a6,19dc <matrix_test+0x194>
    19f8:	00c8a023          	sw	a2,0(a7)
    19fc:	00488893          	add	a7,a7,4
    1a00:	00830333          	add	t1,t1,s0
    1a04:	fd8894e3          	bne	a7,s8,19cc <matrix_test+0x184>
    1a08:	00000313          	li	t1,0
    1a0c:	00000513          	li	a0,0
    1a10:	00000793          	li	a5,0
    1a14:	00000693          	li	a3,0
    1a18:	00000e13          	li	t3,0
    1a1c:	00231613          	sll	a2,t1,0x2
    1a20:	00ca8633          	add	a2,s5,a2
    1a24:	00000813          	li	a6,0
    1a28:	0180006f          	j	1a40 <matrix_test+0x1f8>
    1a2c:	01051513          	sll	a0,a0,0x10
    1a30:	00180813          	add	a6,a6,1
    1a34:	41055513          	sra	a0,a0,0x10
    1a38:	00460613          	add	a2,a2,4
    1a3c:	04887063          	bgeu	a6,s0,1a7c <matrix_test+0x234>
    1a40:	00078713          	mv	a4,a5
    1a44:	00062783          	lw	a5,0(a2)
    1a48:	01051513          	sll	a0,a0,0x10
    1a4c:	01055513          	srl	a0,a0,0x10
    1a50:	00f72733          	slt	a4,a4,a5
    1a54:	00f686b3          	add	a3,a3,a5
    1a58:	00a50893          	add	a7,a0,10
    1a5c:	00e50533          	add	a0,a0,a4
    1a60:	fcd956e3          	bge	s2,a3,1a2c <matrix_test+0x1e4>
    1a64:	01089513          	sll	a0,a7,0x10
    1a68:	00180813          	add	a6,a6,1
    1a6c:	41055513          	sra	a0,a0,0x10
    1a70:	00000693          	li	a3,0
    1a74:	00460613          	add	a2,a2,4
    1a78:	fc8864e3          	bltu	a6,s0,1a40 <matrix_test+0x1f8>
    1a7c:	001e0e13          	add	t3,t3,1
    1a80:	00830333          	add	t1,t1,s0
    1a84:	f88e6ce3          	bltu	t3,s0,1a1c <matrix_test+0x1d4>
    1a88:	001010ef          	jal	3288 <crc16>
    1a8c:	00050593          	mv	a1,a0
    1a90:	000a8f13          	mv	t5,s5
    1a94:	000b8e93          	mv	t4,s7
    1a98:	00000f93          	li	t6,0
    1a9c:	000b0893          	mv	a7,s6
    1aa0:	000f0e13          	mv	t3,t5
    1aa4:	00000313          	li	t1,0
    1aa8:	00088613          	mv	a2,a7
    1aac:	000e8693          	mv	a3,t4
    1ab0:	00000513          	li	a0,0
    1ab4:	00000713          	li	a4,0
    1ab8:	00069783          	lh	a5,0(a3)
    1abc:	00061803          	lh	a6,0(a2)
    1ac0:	00170713          	add	a4,a4,1
    1ac4:	00268693          	add	a3,a3,2
    1ac8:	030787b3          	mul	a5,a5,a6
    1acc:	00960633          	add	a2,a2,s1
    1ad0:	00f50533          	add	a0,a0,a5
    1ad4:	fe8762e3          	bltu	a4,s0,1ab8 <matrix_test+0x270>
    1ad8:	00ae2023          	sw	a0,0(t3)
    1adc:	00130313          	add	t1,t1,1
    1ae0:	004e0e13          	add	t3,t3,4
    1ae4:	00288893          	add	a7,a7,2
    1ae8:	fc8360e3          	bltu	t1,s0,1aa8 <matrix_test+0x260>
    1aec:	001f8f93          	add	t6,t6,1
    1af0:	009e8eb3          	add	t4,t4,s1
    1af4:	414f0f33          	sub	t5,t5,s4
    1af8:	fa8fe2e3          	bltu	t6,s0,1a9c <matrix_test+0x254>
    1afc:	00000313          	li	t1,0
    1b00:	00000513          	li	a0,0
    1b04:	00000793          	li	a5,0
    1b08:	00000693          	li	a3,0
    1b0c:	00000e13          	li	t3,0
    1b10:	00231613          	sll	a2,t1,0x2
    1b14:	00ca8633          	add	a2,s5,a2
    1b18:	00000813          	li	a6,0
    1b1c:	0180006f          	j	1b34 <matrix_test+0x2ec>
    1b20:	01051513          	sll	a0,a0,0x10
    1b24:	00180813          	add	a6,a6,1
    1b28:	41055513          	sra	a0,a0,0x10
    1b2c:	00460613          	add	a2,a2,4
    1b30:	04887063          	bgeu	a6,s0,1b70 <matrix_test+0x328>
    1b34:	00078713          	mv	a4,a5
    1b38:	00062783          	lw	a5,0(a2)
    1b3c:	01051513          	sll	a0,a0,0x10
    1b40:	01055513          	srl	a0,a0,0x10
    1b44:	00f72733          	slt	a4,a4,a5
    1b48:	00f686b3          	add	a3,a3,a5
    1b4c:	00a50893          	add	a7,a0,10
    1b50:	00e50533          	add	a0,a0,a4
    1b54:	fcd956e3          	bge	s2,a3,1b20 <matrix_test+0x2d8>
    1b58:	01089513          	sll	a0,a7,0x10
    1b5c:	00180813          	add	a6,a6,1
    1b60:	41055513          	sra	a0,a0,0x10
    1b64:	00000693          	li	a3,0
    1b68:	00460613          	add	a2,a2,4
    1b6c:	fc8864e3          	bltu	a6,s0,1b34 <matrix_test+0x2ec>
    1b70:	001e0e13          	add	t3,t3,1
    1b74:	00830333          	add	t1,t1,s0
    1b78:	f88e6ce3          	bltu	t3,s0,1b10 <matrix_test+0x2c8>
    1b7c:	70c010ef          	jal	3288 <crc16>
    1b80:	00050593          	mv	a1,a0
    1b84:	000a8f13          	mv	t5,s5
    1b88:	000b8e93          	mv	t4,s7
    1b8c:	00000f93          	li	t6,0
    1b90:	000b0893          	mv	a7,s6
    1b94:	000f0e13          	mv	t3,t5
    1b98:	00000313          	li	t1,0
    1b9c:	00088513          	mv	a0,a7
    1ba0:	000e8613          	mv	a2,t4
    1ba4:	00000813          	li	a6,0
    1ba8:	00000693          	li	a3,0
    1bac:	00051703          	lh	a4,0(a0)
    1bb0:	00061783          	lh	a5,0(a2)
    1bb4:	00168693          	add	a3,a3,1
    1bb8:	00260613          	add	a2,a2,2
    1bbc:	02e787b3          	mul	a5,a5,a4
    1bc0:	00950533          	add	a0,a0,s1
    1bc4:	4027d713          	sra	a4,a5,0x2
    1bc8:	4057d793          	sra	a5,a5,0x5
    1bcc:	00f77713          	and	a4,a4,15
    1bd0:	07f7f793          	and	a5,a5,127
    1bd4:	02f707b3          	mul	a5,a4,a5
    1bd8:	00f80833          	add	a6,a6,a5
    1bdc:	fc86e8e3          	bltu	a3,s0,1bac <matrix_test+0x364>
    1be0:	010e2023          	sw	a6,0(t3)
    1be4:	00130313          	add	t1,t1,1
    1be8:	004e0e13          	add	t3,t3,4
    1bec:	00288893          	add	a7,a7,2
    1bf0:	fa8366e3          	bltu	t1,s0,1b9c <matrix_test+0x354>
    1bf4:	001f8f93          	add	t6,t6,1
    1bf8:	009e8eb3          	add	t4,t4,s1
    1bfc:	414f0f33          	sub	t5,t5,s4
    1c00:	f88fe8e3          	bltu	t6,s0,1b90 <matrix_test+0x348>
    1c04:	00000313          	li	t1,0
    1c08:	00000513          	li	a0,0
    1c0c:	00000793          	li	a5,0
    1c10:	00000693          	li	a3,0
    1c14:	00000e13          	li	t3,0
    1c18:	00231613          	sll	a2,t1,0x2
    1c1c:	00ca8633          	add	a2,s5,a2
    1c20:	00000813          	li	a6,0
    1c24:	0180006f          	j	1c3c <matrix_test+0x3f4>
    1c28:	01051513          	sll	a0,a0,0x10
    1c2c:	00180813          	add	a6,a6,1
    1c30:	41055513          	sra	a0,a0,0x10
    1c34:	00460613          	add	a2,a2,4
    1c38:	04887063          	bgeu	a6,s0,1c78 <matrix_test+0x430>
    1c3c:	00078713          	mv	a4,a5
    1c40:	00062783          	lw	a5,0(a2)
    1c44:	01051513          	sll	a0,a0,0x10
    1c48:	01055513          	srl	a0,a0,0x10
    1c4c:	00f72733          	slt	a4,a4,a5
    1c50:	00f686b3          	add	a3,a3,a5
    1c54:	00a50893          	add	a7,a0,10
    1c58:	00e50533          	add	a0,a0,a4
    1c5c:	fcd956e3          	bge	s2,a3,1c28 <matrix_test+0x3e0>
    1c60:	01089513          	sll	a0,a7,0x10
    1c64:	00180813          	add	a6,a6,1
    1c68:	41055513          	sra	a0,a0,0x10
    1c6c:	00000693          	li	a3,0
    1c70:	00460613          	add	a2,a2,4
    1c74:	fc8864e3          	bltu	a6,s0,1c3c <matrix_test+0x3f4>
    1c78:	001e0e13          	add	t3,t3,1
    1c7c:	00830333          	add	t1,t1,s0
    1c80:	f88e6ce3          	bltu	t3,s0,1c18 <matrix_test+0x3d0>
    1c84:	604010ef          	jal	3288 <crc16>
    1c88:	00000613          	li	a2,0
    1c8c:	00000593          	li	a1,0
    1c90:	00161793          	sll	a5,a2,0x1
    1c94:	00fb87b3          	add	a5,s7,a5
    1c98:	00000693          	li	a3,0
    1c9c:	0007d703          	lhu	a4,0(a5)
    1ca0:	00278793          	add	a5,a5,2
    1ca4:	00168693          	add	a3,a3,1
    1ca8:	41370733          	sub	a4,a4,s3
    1cac:	fee79f23          	sh	a4,-2(a5)
    1cb0:	fe86e6e3          	bltu	a3,s0,1c9c <matrix_test+0x454>
    1cb4:	00158593          	add	a1,a1,1
    1cb8:	00860633          	add	a2,a2,s0
    1cbc:	fc85eae3          	bltu	a1,s0,1c90 <matrix_test+0x448>
    1cc0:	02c12083          	lw	ra,44(sp)
    1cc4:	02812403          	lw	s0,40(sp)
    1cc8:	01051513          	sll	a0,a0,0x10
    1ccc:	02412483          	lw	s1,36(sp)
    1cd0:	02012903          	lw	s2,32(sp)
    1cd4:	01c12983          	lw	s3,28(sp)
    1cd8:	01812a03          	lw	s4,24(sp)
    1cdc:	01412a83          	lw	s5,20(sp)
    1ce0:	01012b03          	lw	s6,16(sp)
    1ce4:	00c12b83          	lw	s7,12(sp)
    1ce8:	00812c03          	lw	s8,8(sp)
    1cec:	41055513          	sra	a0,a0,0x10
    1cf0:	03010113          	add	sp,sp,48
    1cf4:	00008067          	ret
    1cf8:	00000593          	li	a1,0
    1cfc:	58c010ef          	jal	3288 <crc16>
    1d00:	00050593          	mv	a1,a0
    1d04:	00000513          	li	a0,0
    1d08:	580010ef          	jal	3288 <crc16>
    1d0c:	00050593          	mv	a1,a0
    1d10:	00000513          	li	a0,0
    1d14:	574010ef          	jal	3288 <crc16>
    1d18:	00050593          	mv	a1,a0
    1d1c:	00000513          	li	a0,0
    1d20:	568010ef          	jal	3288 <crc16>
    1d24:	f9dff06f          	j	1cc0 <matrix_test+0x478>

00001d28 <core_bench_matrix>:
    1d28:	ff010113          	add	sp,sp,-16
    1d2c:	00812423          	sw	s0,8(sp)
    1d30:	00852683          	lw	a3,8(a0)
    1d34:	00060413          	mv	s0,a2
    1d38:	00058713          	mv	a4,a1
    1d3c:	00452603          	lw	a2,4(a0)
    1d40:	00c52583          	lw	a1,12(a0)
    1d44:	00052503          	lw	a0,0(a0)
    1d48:	00112623          	sw	ra,12(sp)
    1d4c:	afdff0ef          	jal	1848 <matrix_test>
    1d50:	00040593          	mv	a1,s0
    1d54:	00812403          	lw	s0,8(sp)
    1d58:	00c12083          	lw	ra,12(sp)
    1d5c:	01010113          	add	sp,sp,16
    1d60:	5280106f          	j	3288 <crc16>

00001d64 <core_init_matrix>:
    1d64:	ff010113          	add	sp,sp,-16
    1d68:	00812623          	sw	s0,12(sp)
    1d6c:	00912423          	sw	s1,8(sp)
    1d70:	01212223          	sw	s2,4(sp)
    1d74:	01312023          	sw	s3,0(sp)
    1d78:	00050813          	mv	a6,a0
    1d7c:	00061463          	bnez	a2,1d84 <core_init_matrix+0x20>
    1d80:	00100613          	li	a2,1
    1d84:	00000793          	li	a5,0
    1d88:	0e080e63          	beqz	a6,1e84 <core_init_matrix+0x120>
    1d8c:	00078513          	mv	a0,a5
    1d90:	00178793          	add	a5,a5,1
    1d94:	02f78733          	mul	a4,a5,a5
    1d98:	00371713          	sll	a4,a4,0x3
    1d9c:	ff0768e3          	bltu	a4,a6,1d8c <core_init_matrix+0x28>
    1da0:	02a502b3          	mul	t0,a0,a0
    1da4:	fff58593          	add	a1,a1,-1
    1da8:	ffc5f793          	and	a5,a1,-4
    1dac:	00478493          	add	s1,a5,4
    1db0:	00050913          	mv	s2,a0
    1db4:	00048e13          	mv	t3,s1
    1db8:	00129293          	sll	t0,t0,0x1
    1dbc:	005483b3          	add	t2,s1,t0
    1dc0:	08050663          	beqz	a0,1e4c <core_init_matrix+0xe8>
    1dc4:	00010eb7          	lui	t4,0x10
    1dc8:	00150313          	add	t1,a0,1
    1dcc:	00151413          	sll	s0,a0,0x1
    1dd0:	00038f13          	mv	t5,t2
    1dd4:	00000f93          	li	t6,0
    1dd8:	00100713          	li	a4,1
    1ddc:	407e0e33          	sub	t3,t3,t2
    1de0:	fffe8e93          	add	t4,t4,-1 # ffff <start_time_val+0xa92f>
    1de4:	00070993          	mv	s3,a4
    1de8:	000f0813          	mv	a6,t5
    1dec:	02e60633          	mul	a2,a2,a4
    1df0:	01071793          	sll	a5,a4,0x10
    1df4:	0107d793          	srl	a5,a5,0x10
    1df8:	010e08b3          	add	a7,t3,a6
    1dfc:	00280813          	add	a6,a6,2
    1e00:	00170713          	add	a4,a4,1
    1e04:	41f65593          	sra	a1,a2,0x1f
    1e08:	0105d593          	srl	a1,a1,0x10
    1e0c:	00b60633          	add	a2,a2,a1
    1e10:	01d67633          	and	a2,a2,t4
    1e14:	40b60633          	sub	a2,a2,a1
    1e18:	00c785b3          	add	a1,a5,a2
    1e1c:	01059593          	sll	a1,a1,0x10
    1e20:	0105d593          	srl	a1,a1,0x10
    1e24:	00f587b3          	add	a5,a1,a5
    1e28:	feb81f23          	sh	a1,-2(a6)
    1e2c:	0ff7f793          	zext.b	a5,a5
    1e30:	00f89023          	sh	a5,0(a7)
    1e34:	fa671ce3          	bne	a4,t1,1dec <core_init_matrix+0x88>
    1e38:	001f8f93          	add	t6,t6,1
    1e3c:	01350733          	add	a4,a0,s3
    1e40:	00a30333          	add	t1,t1,a0
    1e44:	008f0f33          	add	t5,t5,s0
    1e48:	f8af9ee3          	bne	t6,a0,1de4 <core_init_matrix+0x80>
    1e4c:	005387b3          	add	a5,t2,t0
    1e50:	fff78793          	add	a5,a5,-1
    1e54:	00c12403          	lw	s0,12(sp)
    1e58:	ffc7f793          	and	a5,a5,-4
    1e5c:	00478793          	add	a5,a5,4
    1e60:	0096a223          	sw	s1,4(a3)
    1e64:	0126a023          	sw	s2,0(a3)
    1e68:	0076a423          	sw	t2,8(a3)
    1e6c:	00f6a623          	sw	a5,12(a3)
    1e70:	00812483          	lw	s1,8(sp)
    1e74:	00412903          	lw	s2,4(sp)
    1e78:	00012983          	lw	s3,0(sp)
    1e7c:	01010113          	add	sp,sp,16
    1e80:	00008067          	ret
    1e84:	fff58593          	add	a1,a1,-1
    1e88:	ffc5f393          	and	t2,a1,-4
    1e8c:	00438e13          	add	t3,t2,4
    1e90:	000e0493          	mv	s1,t3
    1e94:	00638393          	add	t2,t2,6
    1e98:	fff00913          	li	s2,-1
    1e9c:	00200293          	li	t0,2
    1ea0:	fff00513          	li	a0,-1
    1ea4:	f21ff06f          	j	1dc4 <core_init_matrix+0x60>

00001ea8 <matrix_sum>:
    1ea8:	00050e93          	mv	t4,a0
    1eac:	08050463          	beqz	a0,1f34 <matrix_sum+0x8c>
    1eb0:	00251f93          	sll	t6,a0,0x2
    1eb4:	40a00f33          	neg	t5,a0
    1eb8:	01f588b3          	add	a7,a1,t6
    1ebc:	00000e13          	li	t3,0
    1ec0:	00000513          	li	a0,0
    1ec4:	00000713          	li	a4,0
    1ec8:	00000593          	li	a1,0
    1ecc:	003f1f13          	sll	t5,t5,0x3
    1ed0:	41f88333          	sub	t1,a7,t6
    1ed4:	00030793          	mv	a5,t1
    1ed8:	0140006f          	j	1eec <matrix_sum+0x44>
    1edc:	01051513          	sll	a0,a0,0x10
    1ee0:	00478793          	add	a5,a5,4
    1ee4:	41055513          	sra	a0,a0,0x10
    1ee8:	02f88e63          	beq	a7,a5,1f24 <matrix_sum+0x7c>
    1eec:	00070693          	mv	a3,a4
    1ef0:	0007a703          	lw	a4,0(a5)
    1ef4:	01051513          	sll	a0,a0,0x10
    1ef8:	01055513          	srl	a0,a0,0x10
    1efc:	00e6a6b3          	slt	a3,a3,a4
    1f00:	00e585b3          	add	a1,a1,a4
    1f04:	00a50813          	add	a6,a0,10
    1f08:	00d50533          	add	a0,a0,a3
    1f0c:	fcb658e3          	bge	a2,a1,1edc <matrix_sum+0x34>
    1f10:	01081513          	sll	a0,a6,0x10
    1f14:	00478793          	add	a5,a5,4
    1f18:	41055513          	sra	a0,a0,0x10
    1f1c:	00000593          	li	a1,0
    1f20:	fcf896e3          	bne	a7,a5,1eec <matrix_sum+0x44>
    1f24:	001e0e13          	add	t3,t3,1
    1f28:	41e308b3          	sub	a7,t1,t5
    1f2c:	fbce92e3          	bne	t4,t3,1ed0 <matrix_sum+0x28>
    1f30:	00008067          	ret
    1f34:	00000513          	li	a0,0
    1f38:	00008067          	ret

00001f3c <matrix_mul_const>:
    1f3c:	04050a63          	beqz	a0,1f90 <matrix_mul_const+0x54>
    1f40:	00151f13          	sll	t5,a0,0x1
    1f44:	40a00eb3          	neg	t4,a0
    1f48:	01e60833          	add	a6,a2,t5
    1f4c:	00000313          	li	t1,0
    1f50:	00000e13          	li	t3,0
    1f54:	002e9e93          	sll	t4,t4,0x2
    1f58:	41e808b3          	sub	a7,a6,t5
    1f5c:	00231613          	sll	a2,t1,0x2
    1f60:	00c58633          	add	a2,a1,a2
    1f64:	00088793          	mv	a5,a7
    1f68:	00079703          	lh	a4,0(a5)
    1f6c:	00460613          	add	a2,a2,4
    1f70:	00278793          	add	a5,a5,2
    1f74:	02d70733          	mul	a4,a4,a3
    1f78:	fee62e23          	sw	a4,-4(a2)
    1f7c:	fef816e3          	bne	a6,a5,1f68 <matrix_mul_const+0x2c>
    1f80:	001e0e13          	add	t3,t3,1
    1f84:	00a30333          	add	t1,t1,a0
    1f88:	41d88833          	sub	a6,a7,t4
    1f8c:	fdc516e3          	bne	a0,t3,1f58 <matrix_mul_const+0x1c>
    1f90:	00008067          	ret

00001f94 <matrix_add_const>:
    1f94:	04050463          	beqz	a0,1fdc <matrix_add_const+0x48>
    1f98:	00151313          	sll	t1,a0,0x1
    1f9c:	40a008b3          	neg	a7,a0
    1fa0:	01061613          	sll	a2,a2,0x10
    1fa4:	01065613          	srl	a2,a2,0x10
    1fa8:	006586b3          	add	a3,a1,t1
    1fac:	00000813          	li	a6,0
    1fb0:	00289893          	sll	a7,a7,0x2
    1fb4:	406685b3          	sub	a1,a3,t1
    1fb8:	00058793          	mv	a5,a1
    1fbc:	0007d703          	lhu	a4,0(a5)
    1fc0:	00278793          	add	a5,a5,2
    1fc4:	00e60733          	add	a4,a2,a4
    1fc8:	fee79f23          	sh	a4,-2(a5)
    1fcc:	fef698e3          	bne	a3,a5,1fbc <matrix_add_const+0x28>
    1fd0:	00180813          	add	a6,a6,1
    1fd4:	411586b3          	sub	a3,a1,a7
    1fd8:	fd051ee3          	bne	a0,a6,1fb4 <matrix_add_const+0x20>
    1fdc:	00008067          	ret

00001fe0 <matrix_mul_vect>:
    1fe0:	04050a63          	beqz	a0,2034 <matrix_mul_vect+0x54>
    1fe4:	00251f13          	sll	t5,a0,0x2
    1fe8:	00151e13          	sll	t3,a0,0x1
    1fec:	01e58f33          	add	t5,a1,t5
    1ff0:	01c68e33          	add	t3,a3,t3
    1ff4:	00000e93          	li	t4,0
    1ff8:	001e9813          	sll	a6,t4,0x1
    1ffc:	01060833          	add	a6,a2,a6
    2000:	00068793          	mv	a5,a3
    2004:	00000893          	li	a7,0
    2008:	00081703          	lh	a4,0(a6)
    200c:	00079303          	lh	t1,0(a5)
    2010:	00278793          	add	a5,a5,2
    2014:	00280813          	add	a6,a6,2
    2018:	02670733          	mul	a4,a4,t1
    201c:	00e888b3          	add	a7,a7,a4
    2020:	fefe14e3          	bne	t3,a5,2008 <matrix_mul_vect+0x28>
    2024:	0115a023          	sw	a7,0(a1)
    2028:	00458593          	add	a1,a1,4
    202c:	00ae8eb3          	add	t4,t4,a0
    2030:	fcbf14e3          	bne	t5,a1,1ff8 <matrix_mul_vect+0x18>
    2034:	00008067          	ret

00002038 <matrix_mul_matrix>:
    2038:	0a050463          	beqz	a0,20e0 <matrix_mul_matrix+0xa8>
    203c:	ff010113          	add	sp,sp,-16
    2040:	00050f13          	mv	t5,a0
    2044:	00151513          	sll	a0,a0,0x1
    2048:	00812623          	sw	s0,12(sp)
    204c:	00058393          	mv	t2,a1
    2050:	00068413          	mv	s0,a3
    2054:	00060e93          	mv	t4,a2
    2058:	00a60833          	add	a6,a2,a0
    205c:	00000f93          	li	t6,0
    2060:	00000293          	li	t0,0
    2064:	002f9893          	sll	a7,t6,0x2
    2068:	011388b3          	add	a7,t2,a7
    206c:	00040313          	mv	t1,s0
    2070:	00000e13          	li	t3,0
    2074:	00030693          	mv	a3,t1
    2078:	000e8793          	mv	a5,t4
    207c:	00000613          	li	a2,0
    2080:	00079703          	lh	a4,0(a5)
    2084:	00069583          	lh	a1,0(a3)
    2088:	00278793          	add	a5,a5,2
    208c:	00a686b3          	add	a3,a3,a0
    2090:	02b70733          	mul	a4,a4,a1
    2094:	00e60633          	add	a2,a2,a4
    2098:	fef814e3          	bne	a6,a5,2080 <matrix_mul_matrix+0x48>
    209c:	00c8a023          	sw	a2,0(a7)
    20a0:	001e0793          	add	a5,t3,1
    20a4:	00488893          	add	a7,a7,4
    20a8:	00230313          	add	t1,t1,2
    20ac:	00ff0663          	beq	t5,a5,20b8 <matrix_mul_matrix+0x80>
    20b0:	00078e13          	mv	t3,a5
    20b4:	fc1ff06f          	j	2074 <matrix_mul_matrix+0x3c>
    20b8:	00128793          	add	a5,t0,1
    20bc:	00ae8eb3          	add	t4,t4,a0
    20c0:	01ef8fb3          	add	t6,t6,t5
    20c4:	00a80833          	add	a6,a6,a0
    20c8:	01c28663          	beq	t0,t3,20d4 <matrix_mul_matrix+0x9c>
    20cc:	00078293          	mv	t0,a5
    20d0:	f95ff06f          	j	2064 <matrix_mul_matrix+0x2c>
    20d4:	00c12403          	lw	s0,12(sp)
    20d8:	01010113          	add	sp,sp,16
    20dc:	00008067          	ret
    20e0:	00008067          	ret

000020e4 <matrix_mul_matrix_bitextract>:
    20e4:	0a050e63          	beqz	a0,21a0 <matrix_mul_matrix_bitextract+0xbc>
    20e8:	ff010113          	add	sp,sp,-16
    20ec:	00050f13          	mv	t5,a0
    20f0:	00151513          	sll	a0,a0,0x1
    20f4:	00812623          	sw	s0,12(sp)
    20f8:	00058393          	mv	t2,a1
    20fc:	00068413          	mv	s0,a3
    2100:	00060e93          	mv	t4,a2
    2104:	00a60833          	add	a6,a2,a0
    2108:	00000f93          	li	t6,0
    210c:	00000293          	li	t0,0
    2110:	002f9893          	sll	a7,t6,0x2
    2114:	011388b3          	add	a7,t2,a7
    2118:	00040313          	mv	t1,s0
    211c:	00000e13          	li	t3,0
    2120:	00030613          	mv	a2,t1
    2124:	000e8693          	mv	a3,t4
    2128:	00000593          	li	a1,0
    212c:	00061703          	lh	a4,0(a2)
    2130:	00069783          	lh	a5,0(a3)
    2134:	00268693          	add	a3,a3,2
    2138:	00a60633          	add	a2,a2,a0
    213c:	02e787b3          	mul	a5,a5,a4
    2140:	4027d713          	sra	a4,a5,0x2
    2144:	4057d793          	sra	a5,a5,0x5
    2148:	00f77713          	and	a4,a4,15
    214c:	07f7f793          	and	a5,a5,127
    2150:	02f707b3          	mul	a5,a4,a5
    2154:	00f585b3          	add	a1,a1,a5
    2158:	fcd81ae3          	bne	a6,a3,212c <matrix_mul_matrix_bitextract+0x48>
    215c:	00b8a023          	sw	a1,0(a7)
    2160:	001e0793          	add	a5,t3,1
    2164:	00488893          	add	a7,a7,4
    2168:	00230313          	add	t1,t1,2
    216c:	00ff0663          	beq	t5,a5,2178 <matrix_mul_matrix_bitextract+0x94>
    2170:	00078e13          	mv	t3,a5
    2174:	fadff06f          	j	2120 <matrix_mul_matrix_bitextract+0x3c>
    2178:	00128793          	add	a5,t0,1
    217c:	00ae8eb3          	add	t4,t4,a0
    2180:	01ef8fb3          	add	t6,t6,t5
    2184:	00a80833          	add	a6,a6,a0
    2188:	01c28663          	beq	t0,t3,2194 <matrix_mul_matrix_bitextract+0xb0>
    218c:	00078293          	mv	t0,a5
    2190:	f81ff06f          	j	2110 <matrix_mul_matrix_bitextract+0x2c>
    2194:	00c12403          	lw	s0,12(sp)
    2198:	01010113          	add	sp,sp,16
    219c:	00008067          	ret
    21a0:	00008067          	ret

000021a4 <core_init_state>:
    21a4:	fff50e13          	add	t3,a0,-1
    21a8:	00100793          	li	a5,1
    21ac:	27c7fe63          	bgeu	a5,t3,2428 <core_init_state+0x284>
    21b0:	00158593          	add	a1,a1,1
    21b4:	01059693          	sll	a3,a1,0x10
    21b8:	0106d693          	srl	a3,a3,0x10
    21bc:	000058b7          	lui	a7,0x5
    21c0:	0036d793          	srl	a5,a3,0x3
    21c4:	00700f13          	li	t5,7
    21c8:	0076f713          	and	a4,a3,7
    21cc:	00000593          	li	a1,0
    21d0:	44c88893          	add	a7,a7,1100 # 544c <intpat>
    21d4:	00400313          	li	t1,4
    21d8:	00100e93          	li	t4,1
    21dc:	02c00f93          	li	t6,44
    21e0:	0037f793          	and	a5,a5,3
    21e4:	09e70463          	beq	a4,t5,226c <core_init_state+0xc8>
    21e8:	20e36c63          	bltu	t1,a4,2400 <core_init_state+0x25c>
    21ec:	ffd70713          	add	a4,a4,-3
    21f0:	01071713          	sll	a4,a4,0x10
    21f4:	00279793          	sll	a5,a5,0x2
    21f8:	01075713          	srl	a4,a4,0x10
    21fc:	00f887b3          	add	a5,a7,a5
    2200:	1ceeec63          	bltu	t4,a4,23d8 <core_init_state+0x234>
    2204:	0107a703          	lw	a4,16(a5)
    2208:	00168693          	add	a3,a3,1
    220c:	01069693          	sll	a3,a3,0x10
    2210:	00958293          	add	t0,a1,9
    2214:	0106d693          	srl	a3,a3,0x10
    2218:	07c2fa63          	bgeu	t0,t3,228c <core_init_state+0xe8>
    221c:	00b607b3          	add	a5,a2,a1
    2220:	00e7e833          	or	a6,a5,a4
    2224:	00387813          	and	a6,a6,3
    2228:	14081c63          	bnez	a6,2380 <core_init_state+0x1dc>
    222c:	00170813          	add	a6,a4,1
    2230:	41078833          	sub	a6,a5,a6
    2234:	00383813          	sltiu	a6,a6,3
    2238:	14081463          	bnez	a6,2380 <core_init_state+0x1dc>
    223c:	00072583          	lw	a1,0(a4)
    2240:	00800813          	li	a6,8
    2244:	00b7a023          	sw	a1,0(a5)
    2248:	00472703          	lw	a4,4(a4)
    224c:	00e7a223          	sw	a4,4(a5)
    2250:	01078833          	add	a6,a5,a6
    2254:	01f80023          	sb	t6,0(a6)
    2258:	0036d793          	srl	a5,a3,0x3
    225c:	0076f713          	and	a4,a3,7
    2260:	00028593          	mv	a1,t0
    2264:	0037f793          	and	a5,a5,3
    2268:	f9e710e3          	bne	a4,t5,21e8 <core_init_state+0x44>
    226c:	00279793          	sll	a5,a5,0x2
    2270:	00168693          	add	a3,a3,1
    2274:	00f887b3          	add	a5,a7,a5
    2278:	01069693          	sll	a3,a3,0x10
    227c:	00958293          	add	t0,a1,9
    2280:	0307a703          	lw	a4,48(a5)
    2284:	0106d693          	srl	a3,a3,0x10
    2288:	f9c2eae3          	bltu	t0,t3,221c <core_init_state+0x78>
    228c:	18a5fc63          	bgeu	a1,a0,2424 <core_init_state+0x280>
    2290:	00158693          	add	a3,a1,1
    2294:	00068e13          	mv	t3,a3
    2298:	40b50733          	sub	a4,a0,a1
    229c:	00100813          	li	a6,1
    22a0:	16d57a63          	bgeu	a0,a3,2414 <core_init_state+0x270>
    22a4:	fff70713          	add	a4,a4,-1
    22a8:	00b607b3          	add	a5,a2,a1
    22ac:	40f00333          	neg	t1,a5
    22b0:	00673893          	sltiu	a7,a4,6
    22b4:	00337713          	and	a4,t1,3
    22b8:	06089a63          	bnez	a7,232c <core_init_state+0x188>
    22bc:	06d56863          	bltu	a0,a3,232c <core_init_state+0x188>
    22c0:	14070e63          	beqz	a4,241c <core_init_state+0x278>
    22c4:	00078023          	sb	zero,0(a5)
    22c8:	00237313          	and	t1,t1,2
    22cc:	02030463          	beqz	t1,22f4 <core_init_state+0x150>
    22d0:	00d606b3          	add	a3,a2,a3
    22d4:	fff78793          	add	a5,a5,-1
    22d8:	00068023          	sb	zero,0(a3)
    22dc:	0037f793          	and	a5,a5,3
    22e0:	00258e13          	add	t3,a1,2
    22e4:	00079863          	bnez	a5,22f4 <core_init_state+0x150>
    22e8:	01c60e33          	add	t3,a2,t3
    22ec:	000e0023          	sb	zero,0(t3)
    22f0:	00358e13          	add	t3,a1,3
    22f4:	00e587b3          	add	a5,a1,a4
    22f8:	40e806b3          	sub	a3,a6,a4
    22fc:	00f607b3          	add	a5,a2,a5
    2300:	ffc6f713          	and	a4,a3,-4
    2304:	00f70733          	add	a4,a4,a5
    2308:	0007a023          	sw	zero,0(a5)
    230c:	00478793          	add	a5,a5,4
    2310:	fee79ce3          	bne	a5,a4,2308 <core_init_state+0x164>
    2314:	ffc6f593          	and	a1,a3,-4
    2318:	0036f693          	and	a3,a3,3
    231c:	01c585b3          	add	a1,a1,t3
    2320:	0e068863          	beqz	a3,2410 <core_init_state+0x26c>
    2324:	00b607b3          	add	a5,a2,a1
    2328:	00158693          	add	a3,a1,1
    232c:	00078023          	sb	zero,0(a5)
    2330:	0ea6f063          	bgeu	a3,a0,2410 <core_init_state+0x26c>
    2334:	00d606b3          	add	a3,a2,a3
    2338:	00068023          	sb	zero,0(a3)
    233c:	00258793          	add	a5,a1,2
    2340:	0ca7f863          	bgeu	a5,a0,2410 <core_init_state+0x26c>
    2344:	00f607b3          	add	a5,a2,a5
    2348:	00078023          	sb	zero,0(a5)
    234c:	00358793          	add	a5,a1,3
    2350:	0ca7f063          	bgeu	a5,a0,2410 <core_init_state+0x26c>
    2354:	00f607b3          	add	a5,a2,a5
    2358:	00078023          	sb	zero,0(a5)
    235c:	00458793          	add	a5,a1,4
    2360:	0aa7f863          	bgeu	a5,a0,2410 <core_init_state+0x26c>
    2364:	00f607b3          	add	a5,a2,a5
    2368:	00078023          	sb	zero,0(a5)
    236c:	00558593          	add	a1,a1,5
    2370:	0aa5f063          	bgeu	a1,a0,2410 <core_init_state+0x26c>
    2374:	00b605b3          	add	a1,a2,a1
    2378:	00058023          	sb	zero,0(a1)
    237c:	00008067          	ret
    2380:	00158393          	add	t2,a1,1
    2384:	00800813          	li	a6,8
    2388:	00074583          	lbu	a1,0(a4)
    238c:	007603b3          	add	t2,a2,t2
    2390:	00b78023          	sb	a1,0(a5)
    2394:	00174583          	lbu	a1,1(a4)
    2398:	00b38023          	sb	a1,0(t2)
    239c:	00274583          	lbu	a1,2(a4)
    23a0:	00b78123          	sb	a1,2(a5)
    23a4:	00374583          	lbu	a1,3(a4)
    23a8:	00b781a3          	sb	a1,3(a5)
    23ac:	ea6802e3          	beq	a6,t1,2250 <core_init_state+0xac>
    23b0:	00474583          	lbu	a1,4(a4)
    23b4:	00800813          	li	a6,8
    23b8:	00b78223          	sb	a1,4(a5)
    23bc:	00574583          	lbu	a1,5(a4)
    23c0:	00b782a3          	sb	a1,5(a5)
    23c4:	00674583          	lbu	a1,6(a4)
    23c8:	00b78323          	sb	a1,6(a5)
    23cc:	00774703          	lbu	a4,7(a4)
    23d0:	00e783a3          	sb	a4,7(a5)
    23d4:	e7dff06f          	j	2250 <core_init_state+0xac>
    23d8:	00168693          	add	a3,a3,1
    23dc:	01069693          	sll	a3,a3,0x10
    23e0:	00558293          	add	t0,a1,5
    23e4:	0007a703          	lw	a4,0(a5)
    23e8:	00158393          	add	t2,a1,1
    23ec:	0106d693          	srl	a3,a3,0x10
    23f0:	e9c2fee3          	bgeu	t0,t3,228c <core_init_state+0xe8>
    23f4:	00400813          	li	a6,4
    23f8:	00b607b3          	add	a5,a2,a1
    23fc:	f8dff06f          	j	2388 <core_init_state+0x1e4>
    2400:	00279793          	sll	a5,a5,0x2
    2404:	00f887b3          	add	a5,a7,a5
    2408:	0207a703          	lw	a4,32(a5)
    240c:	dfdff06f          	j	2208 <core_init_state+0x64>
    2410:	00008067          	ret
    2414:	00070813          	mv	a6,a4
    2418:	e8dff06f          	j	22a4 <core_init_state+0x100>
    241c:	00058e13          	mv	t3,a1
    2420:	ed5ff06f          	j	22f4 <core_init_state+0x150>
    2424:	00008067          	ret
    2428:	00000593          	li	a1,0
    242c:	e65ff06f          	j	2290 <core_init_state+0xec>

00002430 <core_state_transition>:
    2430:	00052703          	lw	a4,0(a0)
    2434:	00050613          	mv	a2,a0
    2438:	00074683          	lbu	a3,0(a4)
    243c:	28068063          	beqz	a3,26bc <core_state_transition+0x28c>
    2440:	02c00793          	li	a5,44
    2444:	00000513          	li	a0,0
    2448:	1ef68063          	beq	a3,a5,2628 <core_state_transition+0x1f8>
    244c:	fd068513          	add	a0,a3,-48
    2450:	0ff57513          	zext.b	a0,a0
    2454:	00900813          	li	a6,9
    2458:	04a87263          	bgeu	a6,a0,249c <core_state_transition+0x6c>
    245c:	02d00513          	li	a0,45
    2460:	1ea68463          	beq	a3,a0,2648 <core_state_transition+0x218>
    2464:	02e00513          	li	a0,46
    2468:	08a68c63          	beq	a3,a0,2500 <core_state_transition+0xd0>
    246c:	02b00513          	li	a0,43
    2470:	1ca68c63          	beq	a3,a0,2648 <core_state_transition+0x218>
    2474:	0045a683          	lw	a3,4(a1)
    2478:	0005a783          	lw	a5,0(a1)
    247c:	00170713          	add	a4,a4,1
    2480:	00168693          	add	a3,a3,1
    2484:	00178793          	add	a5,a5,1
    2488:	00d5a223          	sw	a3,4(a1)
    248c:	00f5a023          	sw	a5,0(a1)
    2490:	00100513          	li	a0,1
    2494:	00e62023          	sw	a4,0(a2)
    2498:	00008067          	ret
    249c:	0005a503          	lw	a0,0(a1)
    24a0:	00170693          	add	a3,a4,1
    24a4:	00150513          	add	a0,a0,1
    24a8:	00a5a023          	sw	a0,0(a1)
    24ac:	00174703          	lbu	a4,1(a4)
    24b0:	1e070a63          	beqz	a4,26a4 <core_state_transition+0x274>
    24b4:	16f70663          	beq	a4,a5,2620 <core_state_transition+0x1f0>
    24b8:	02e00793          	li	a5,46
    24bc:	14f70a63          	beq	a4,a5,2610 <core_state_transition+0x1e0>
    24c0:	fd070713          	add	a4,a4,-48
    24c4:	0ff77713          	zext.b	a4,a4
    24c8:	00900793          	li	a5,9
    24cc:	00e7ec63          	bltu	a5,a4,24e4 <core_state_transition+0xb4>
    24d0:	0016c703          	lbu	a4,1(a3)
    24d4:	00168693          	add	a3,a3,1
    24d8:	1c070663          	beqz	a4,26a4 <core_state_transition+0x274>
    24dc:	02c00793          	li	a5,44
    24e0:	fd5ff06f          	j	24b4 <core_state_transition+0x84>
    24e4:	0105a783          	lw	a5,16(a1)
    24e8:	00168713          	add	a4,a3,1
    24ec:	00100513          	li	a0,1
    24f0:	00178793          	add	a5,a5,1
    24f4:	00f5a823          	sw	a5,16(a1)
    24f8:	00e62023          	sw	a4,0(a2)
    24fc:	00008067          	ret
    2500:	0005a503          	lw	a0,0(a1)
    2504:	00170693          	add	a3,a4,1
    2508:	00150513          	add	a0,a0,1
    250c:	00a5a023          	sw	a0,0(a1)
    2510:	00174703          	lbu	a4,1(a4)
    2514:	18070e63          	beqz	a4,26b0 <core_state_transition+0x280>
    2518:	1ef70463          	beq	a4,a5,2700 <core_state_transition+0x2d0>
    251c:	0df77793          	and	a5,a4,223
    2520:	04500513          	li	a0,69
    2524:	02a78463          	beq	a5,a0,254c <core_state_transition+0x11c>
    2528:	fd070713          	add	a4,a4,-48
    252c:	0ff77713          	zext.b	a4,a4
    2530:	00900793          	li	a5,9
    2534:	0ee7ee63          	bltu	a5,a4,2630 <core_state_transition+0x200>
    2538:	0016c703          	lbu	a4,1(a3)
    253c:	00168693          	add	a3,a3,1
    2540:	16070863          	beqz	a4,26b0 <core_state_transition+0x280>
    2544:	02c00793          	li	a5,44
    2548:	fd1ff06f          	j	2518 <core_state_transition+0xe8>
    254c:	0145a783          	lw	a5,20(a1)
    2550:	00168713          	add	a4,a3,1
    2554:	00178793          	add	a5,a5,1
    2558:	00f5aa23          	sw	a5,20(a1)
    255c:	0016c783          	lbu	a5,1(a3)
    2560:	16078663          	beqz	a5,26cc <core_state_transition+0x29c>
    2564:	02c00513          	li	a0,44
    2568:	16a78663          	beq	a5,a0,26d4 <core_state_transition+0x2a4>
    256c:	00c5a703          	lw	a4,12(a1)
    2570:	fd578793          	add	a5,a5,-43
    2574:	0fd7f793          	and	a5,a5,253
    2578:	00170713          	add	a4,a4,1
    257c:	00e5a623          	sw	a4,12(a1)
    2580:	00078a63          	beqz	a5,2594 <core_state_transition+0x164>
    2584:	00268713          	add	a4,a3,2
    2588:	00100513          	li	a0,1
    258c:	00e62023          	sw	a4,0(a2)
    2590:	00008067          	ret
    2594:	0026c783          	lbu	a5,2(a3)
    2598:	00268713          	add	a4,a3,2
    259c:	12078463          	beqz	a5,26c4 <core_state_transition+0x294>
    25a0:	14a78063          	beq	a5,a0,26e0 <core_state_transition+0x2b0>
    25a4:	0185a503          	lw	a0,24(a1)
    25a8:	fd078793          	add	a5,a5,-48
    25ac:	0ff7f793          	zext.b	a5,a5
    25b0:	00150513          	add	a0,a0,1
    25b4:	00900813          	li	a6,9
    25b8:	00a5ac23          	sw	a0,24(a1)
    25bc:	00f87a63          	bgeu	a6,a5,25d0 <core_state_transition+0x1a0>
    25c0:	00368713          	add	a4,a3,3
    25c4:	00100513          	li	a0,1
    25c8:	00e62023          	sw	a4,0(a2)
    25cc:	00008067          	ret
    25d0:	00900513          	li	a0,9
    25d4:	00174683          	lbu	a3,1(a4)
    25d8:	00070813          	mv	a6,a4
    25dc:	02c00893          	li	a7,44
    25e0:	fd068793          	add	a5,a3,-48
    25e4:	00170713          	add	a4,a4,1
    25e8:	0ff7f793          	zext.b	a5,a5
    25ec:	10068663          	beqz	a3,26f8 <core_state_transition+0x2c8>
    25f0:	0f168e63          	beq	a3,a7,26ec <core_state_transition+0x2bc>
    25f4:	fef570e3          	bgeu	a0,a5,25d4 <core_state_transition+0x1a4>
    25f8:	0045a783          	lw	a5,4(a1)
    25fc:	00280713          	add	a4,a6,2
    2600:	00100513          	li	a0,1
    2604:	00178793          	add	a5,a5,1
    2608:	00f5a223          	sw	a5,4(a1)
    260c:	eedff06f          	j	24f8 <core_state_transition+0xc8>
    2610:	0105a783          	lw	a5,16(a1)
    2614:	00178793          	add	a5,a5,1
    2618:	00f5a823          	sw	a5,16(a1)
    261c:	f1dff06f          	j	2538 <core_state_transition+0x108>
    2620:	00068713          	mv	a4,a3
    2624:	00400513          	li	a0,4
    2628:	00170713          	add	a4,a4,1
    262c:	ecdff06f          	j	24f8 <core_state_transition+0xc8>
    2630:	0145a783          	lw	a5,20(a1)
    2634:	00168713          	add	a4,a3,1
    2638:	00100513          	li	a0,1
    263c:	00178793          	add	a5,a5,1
    2640:	00f5aa23          	sw	a5,20(a1)
    2644:	eb5ff06f          	j	24f8 <core_state_transition+0xc8>
    2648:	0005a503          	lw	a0,0(a1)
    264c:	00170693          	add	a3,a4,1
    2650:	00150513          	add	a0,a0,1
    2654:	00a5a023          	sw	a0,0(a1)
    2658:	00174803          	lbu	a6,1(a4)
    265c:	0c080263          	beqz	a6,2720 <core_state_transition+0x2f0>
    2660:	0af80863          	beq	a6,a5,2710 <core_state_transition+0x2e0>
    2664:	0085a703          	lw	a4,8(a1)
    2668:	fd080793          	add	a5,a6,-48
    266c:	0ff7f793          	zext.b	a5,a5
    2670:	00900513          	li	a0,9
    2674:	00170713          	add	a4,a4,1
    2678:	00f57e63          	bgeu	a0,a5,2694 <core_state_transition+0x264>
    267c:	02e00793          	li	a5,46
    2680:	00f80e63          	beq	a6,a5,269c <core_state_transition+0x26c>
    2684:	00e5a423          	sw	a4,8(a1)
    2688:	00100513          	li	a0,1
    268c:	00168713          	add	a4,a3,1
    2690:	e69ff06f          	j	24f8 <core_state_transition+0xc8>
    2694:	00e5a423          	sw	a4,8(a1)
    2698:	e39ff06f          	j	24d0 <core_state_transition+0xa0>
    269c:	00e5a423          	sw	a4,8(a1)
    26a0:	e99ff06f          	j	2538 <core_state_transition+0x108>
    26a4:	00068713          	mv	a4,a3
    26a8:	00400513          	li	a0,4
    26ac:	e4dff06f          	j	24f8 <core_state_transition+0xc8>
    26b0:	00068713          	mv	a4,a3
    26b4:	00500513          	li	a0,5
    26b8:	e41ff06f          	j	24f8 <core_state_transition+0xc8>
    26bc:	00000513          	li	a0,0
    26c0:	e39ff06f          	j	24f8 <core_state_transition+0xc8>
    26c4:	00600513          	li	a0,6
    26c8:	e31ff06f          	j	24f8 <core_state_transition+0xc8>
    26cc:	00300513          	li	a0,3
    26d0:	e29ff06f          	j	24f8 <core_state_transition+0xc8>
    26d4:	00300513          	li	a0,3
    26d8:	00170713          	add	a4,a4,1
    26dc:	e1dff06f          	j	24f8 <core_state_transition+0xc8>
    26e0:	00600513          	li	a0,6
    26e4:	00170713          	add	a4,a4,1
    26e8:	e11ff06f          	j	24f8 <core_state_transition+0xc8>
    26ec:	00700513          	li	a0,7
    26f0:	00170713          	add	a4,a4,1
    26f4:	e05ff06f          	j	24f8 <core_state_transition+0xc8>
    26f8:	00700513          	li	a0,7
    26fc:	dfdff06f          	j	24f8 <core_state_transition+0xc8>
    2700:	00068713          	mv	a4,a3
    2704:	00500513          	li	a0,5
    2708:	00170713          	add	a4,a4,1
    270c:	dedff06f          	j	24f8 <core_state_transition+0xc8>
    2710:	00068713          	mv	a4,a3
    2714:	00200513          	li	a0,2
    2718:	00170713          	add	a4,a4,1
    271c:	dddff06f          	j	24f8 <core_state_transition+0xc8>
    2720:	00068713          	mv	a4,a3
    2724:	00200513          	li	a0,2
    2728:	dd1ff06f          	j	24f8 <core_state_transition+0xc8>

0000272c <core_bench_state>:
    272c:	f8010113          	add	sp,sp,-128
    2730:	06812c23          	sw	s0,120(sp)
    2734:	06912a23          	sw	s1,116(sp)
    2738:	07212823          	sw	s2,112(sp)
    273c:	07312623          	sw	s3,108(sp)
    2740:	07412423          	sw	s4,104(sp)
    2744:	07512223          	sw	s5,100(sp)
    2748:	07612023          	sw	s6,96(sp)
    274c:	05712e23          	sw	s7,92(sp)
    2750:	06112e23          	sw	ra,124(sp)
    2754:	00058413          	mv	s0,a1
    2758:	0005c583          	lbu	a1,0(a1)
    275c:	00812623          	sw	s0,12(sp)
    2760:	02012823          	sw	zero,48(sp)
    2764:	00012823          	sw	zero,16(sp)
    2768:	02012a23          	sw	zero,52(sp)
    276c:	00012a23          	sw	zero,20(sp)
    2770:	02012c23          	sw	zero,56(sp)
    2774:	00012c23          	sw	zero,24(sp)
    2778:	02012e23          	sw	zero,60(sp)
    277c:	00012e23          	sw	zero,28(sp)
    2780:	04012023          	sw	zero,64(sp)
    2784:	02012023          	sw	zero,32(sp)
    2788:	04012223          	sw	zero,68(sp)
    278c:	02012223          	sw	zero,36(sp)
    2790:	04012423          	sw	zero,72(sp)
    2794:	02012423          	sw	zero,40(sp)
    2798:	04012623          	sw	zero,76(sp)
    279c:	02012623          	sw	zero,44(sp)
    27a0:	00050b13          	mv	s6,a0
    27a4:	00060b93          	mv	s7,a2
    27a8:	00068a13          	mv	s4,a3
    27ac:	00070a93          	mv	s5,a4
    27b0:	00078493          	mv	s1,a5
    27b4:	03010913          	add	s2,sp,48
    27b8:	00c10993          	add	s3,sp,12
    27bc:	18058663          	beqz	a1,2948 <core_bench_state+0x21c>
    27c0:	00090593          	mv	a1,s2
    27c4:	00098513          	mv	a0,s3
    27c8:	c69ff0ef          	jal	2430 <core_state_transition>
    27cc:	00251813          	sll	a6,a0,0x2
    27d0:	05080793          	add	a5,a6,80
    27d4:	00278833          	add	a6,a5,sp
    27d8:	00c12703          	lw	a4,12(sp)
    27dc:	fc082783          	lw	a5,-64(a6)
    27e0:	00074703          	lbu	a4,0(a4)
    27e4:	00178793          	add	a5,a5,1
    27e8:	fcf82023          	sw	a5,-64(a6)
    27ec:	fc071ae3          	bnez	a4,27c0 <core_bench_state+0x94>
    27f0:	00812623          	sw	s0,12(sp)
    27f4:	01640b33          	add	s6,s0,s6
    27f8:	03647c63          	bgeu	s0,s6,2830 <core_bench_state+0x104>
    27fc:	00100713          	li	a4,1
    2800:	00040793          	mv	a5,s0
    2804:	02c00613          	li	a2,44
    2808:	0eea9263          	bne	s5,a4,28ec <core_bench_state+0x1c0>
    280c:	0007c703          	lbu	a4,0(a5)
    2810:	017746b3          	xor	a3,a4,s7
    2814:	00c70463          	beq	a4,a2,281c <core_bench_state+0xf0>
    2818:	00d78023          	sb	a3,0(a5)
    281c:	00178793          	add	a5,a5,1
    2820:	ff67e6e3          	bltu	a5,s6,280c <core_bench_state+0xe0>
    2824:	00044783          	lbu	a5,0(s0)
    2828:	00c10993          	add	s3,sp,12
    282c:	10078863          	beqz	a5,293c <core_bench_state+0x210>
    2830:	00090593          	mv	a1,s2
    2834:	00098513          	mv	a0,s3
    2838:	bf9ff0ef          	jal	2430 <core_state_transition>
    283c:	00251613          	sll	a2,a0,0x2
    2840:	05060793          	add	a5,a2,80
    2844:	00278633          	add	a2,a5,sp
    2848:	00c12703          	lw	a4,12(sp)
    284c:	fc062783          	lw	a5,-64(a2)
    2850:	00074703          	lbu	a4,0(a4)
    2854:	00178793          	add	a5,a5,1
    2858:	fcf62023          	sw	a5,-64(a2)
    285c:	fc071ae3          	bnez	a4,2830 <core_bench_state+0x104>
    2860:	00812623          	sw	s0,12(sp)
    2864:	03647663          	bgeu	s0,s6,2890 <core_bench_state+0x164>
    2868:	00100793          	li	a5,1
    286c:	0afa9663          	bne	s5,a5,2918 <core_bench_state+0x1ec>
    2870:	00040713          	mv	a4,s0
    2874:	02c00613          	li	a2,44
    2878:	00074783          	lbu	a5,0(a4)
    287c:	0147c6b3          	xor	a3,a5,s4
    2880:	00c78463          	beq	a5,a2,2888 <core_bench_state+0x15c>
    2884:	00d70023          	sb	a3,0(a4)
    2888:	00170713          	add	a4,a4,1
    288c:	ff6766e3          	bltu	a4,s6,2878 <core_bench_state+0x14c>
    2890:	01010413          	add	s0,sp,16
    2894:	00090993          	mv	s3,s2
    2898:	00042503          	lw	a0,0(s0)
    289c:	00048593          	mv	a1,s1
    28a0:	00440413          	add	s0,s0,4
    28a4:	4d0000ef          	jal	2d74 <crcu32>
    28a8:	00050593          	mv	a1,a0
    28ac:	0009a503          	lw	a0,0(s3)
    28b0:	00498993          	add	s3,s3,4
    28b4:	4c0000ef          	jal	2d74 <crcu32>
    28b8:	00050493          	mv	s1,a0
    28bc:	fd241ee3          	bne	s0,s2,2898 <core_bench_state+0x16c>
    28c0:	07c12083          	lw	ra,124(sp)
    28c4:	07812403          	lw	s0,120(sp)
    28c8:	07412483          	lw	s1,116(sp)
    28cc:	07012903          	lw	s2,112(sp)
    28d0:	06c12983          	lw	s3,108(sp)
    28d4:	06812a03          	lw	s4,104(sp)
    28d8:	06412a83          	lw	s5,100(sp)
    28dc:	06012b03          	lw	s6,96(sp)
    28e0:	05c12b83          	lw	s7,92(sp)
    28e4:	08010113          	add	sp,sp,128
    28e8:	00008067          	ret
    28ec:	0007c703          	lbu	a4,0(a5)
    28f0:	017746b3          	xor	a3,a4,s7
    28f4:	00c70463          	beq	a4,a2,28fc <core_bench_state+0x1d0>
    28f8:	00d78023          	sb	a3,0(a5)
    28fc:	015787b3          	add	a5,a5,s5
    2900:	ff67e6e3          	bltu	a5,s6,28ec <core_bench_state+0x1c0>
    2904:	00044783          	lbu	a5,0(s0)
    2908:	00c10993          	add	s3,sp,12
    290c:	f20792e3          	bnez	a5,2830 <core_bench_state+0x104>
    2910:	00812623          	sw	s0,12(sp)
    2914:	f7647ee3          	bgeu	s0,s6,2890 <core_bench_state+0x164>
    2918:	00040713          	mv	a4,s0
    291c:	02c00613          	li	a2,44
    2920:	00074783          	lbu	a5,0(a4)
    2924:	0147c6b3          	xor	a3,a5,s4
    2928:	00c78463          	beq	a5,a2,2930 <core_bench_state+0x204>
    292c:	00d70023          	sb	a3,0(a4)
    2930:	01570733          	add	a4,a4,s5
    2934:	ff6766e3          	bltu	a4,s6,2920 <core_bench_state+0x1f4>
    2938:	f59ff06f          	j	2890 <core_bench_state+0x164>
    293c:	00812623          	sw	s0,12(sp)
    2940:	f36468e3          	bltu	s0,s6,2870 <core_bench_state+0x144>
    2944:	f4dff06f          	j	2890 <core_bench_state+0x164>
    2948:	00a40b33          	add	s6,s0,a0
    294c:	eb6468e3          	bltu	s0,s6,27fc <core_bench_state+0xd0>
    2950:	f41ff06f          	j	2890 <core_bench_state+0x164>

00002954 <get_seed_32>:
    2954:	00500793          	li	a5,5
    2958:	04a7ec63          	bltu	a5,a0,29b0 <get_seed_32+0x5c>
    295c:	000057b7          	lui	a5,0x5
    2960:	48c78793          	add	a5,a5,1164 # 548c <errpat+0x10>
    2964:	00251513          	sll	a0,a0,0x2
    2968:	00f50533          	add	a0,a0,a5
    296c:	00052783          	lw	a5,0(a0)
    2970:	00078067          	jr	a5
    2974:	000057b7          	lui	a5,0x5
    2978:	6b87a503          	lw	a0,1720(a5) # 56b8 <seed5_volatile>
    297c:	00008067          	ret
    2980:	000057b7          	lui	a5,0x5
    2984:	6c87a503          	lw	a0,1736(a5) # 56c8 <seed1_volatile>
    2988:	00008067          	ret
    298c:	000057b7          	lui	a5,0x5
    2990:	6c47a503          	lw	a0,1732(a5) # 56c4 <seed2_volatile>
    2994:	00008067          	ret
    2998:	000057b7          	lui	a5,0x5
    299c:	6c07a503          	lw	a0,1728(a5) # 56c0 <seed3_volatile>
    29a0:	00008067          	ret
    29a4:	000057b7          	lui	a5,0x5
    29a8:	6bc7a503          	lw	a0,1724(a5) # 56bc <seed4_volatile>
    29ac:	00008067          	ret
    29b0:	00000513          	li	a0,0
    29b4:	00008067          	ret

000029b8 <crcu8>:
    29b8:	00b546b3          	xor	a3,a0,a1
    29bc:	0016f693          	and	a3,a3,1
    29c0:	00155713          	srl	a4,a0,0x1
    29c4:	0015d793          	srl	a5,a1,0x1
    29c8:	00068c63          	beqz	a3,29e0 <crcu8+0x28>
    29cc:	ffffa6b7          	lui	a3,0xffffa
    29d0:	00168693          	add	a3,a3,1 # ffffa001 <start_time_val+0xffff4931>
    29d4:	00d7c7b3          	xor	a5,a5,a3
    29d8:	01079793          	sll	a5,a5,0x10
    29dc:	0107d793          	srl	a5,a5,0x10
    29e0:	00f74733          	xor	a4,a4,a5
    29e4:	00177713          	and	a4,a4,1
    29e8:	00255693          	srl	a3,a0,0x2
    29ec:	0017d793          	srl	a5,a5,0x1
    29f0:	00070c63          	beqz	a4,2a08 <crcu8+0x50>
    29f4:	ffffa737          	lui	a4,0xffffa
    29f8:	00170713          	add	a4,a4,1 # ffffa001 <start_time_val+0xffff4931>
    29fc:	00e7c7b3          	xor	a5,a5,a4
    2a00:	01079793          	sll	a5,a5,0x10
    2a04:	0107d793          	srl	a5,a5,0x10
    2a08:	00f6c6b3          	xor	a3,a3,a5
    2a0c:	0016f693          	and	a3,a3,1
    2a10:	00355713          	srl	a4,a0,0x3
    2a14:	0017d793          	srl	a5,a5,0x1
    2a18:	00068c63          	beqz	a3,2a30 <crcu8+0x78>
    2a1c:	ffffa6b7          	lui	a3,0xffffa
    2a20:	00168693          	add	a3,a3,1 # ffffa001 <start_time_val+0xffff4931>
    2a24:	00d7c7b3          	xor	a5,a5,a3
    2a28:	01079793          	sll	a5,a5,0x10
    2a2c:	0107d793          	srl	a5,a5,0x10
    2a30:	00f74733          	xor	a4,a4,a5
    2a34:	00177713          	and	a4,a4,1
    2a38:	00455693          	srl	a3,a0,0x4
    2a3c:	0017d793          	srl	a5,a5,0x1
    2a40:	00070c63          	beqz	a4,2a58 <crcu8+0xa0>
    2a44:	ffffa737          	lui	a4,0xffffa
    2a48:	00170713          	add	a4,a4,1 # ffffa001 <start_time_val+0xffff4931>
    2a4c:	00e7c7b3          	xor	a5,a5,a4
    2a50:	01079793          	sll	a5,a5,0x10
    2a54:	0107d793          	srl	a5,a5,0x10
    2a58:	00f6c6b3          	xor	a3,a3,a5
    2a5c:	0016f693          	and	a3,a3,1
    2a60:	00555713          	srl	a4,a0,0x5
    2a64:	0017d793          	srl	a5,a5,0x1
    2a68:	00068c63          	beqz	a3,2a80 <crcu8+0xc8>
    2a6c:	ffffa6b7          	lui	a3,0xffffa
    2a70:	00168693          	add	a3,a3,1 # ffffa001 <start_time_val+0xffff4931>
    2a74:	00d7c7b3          	xor	a5,a5,a3
    2a78:	01079793          	sll	a5,a5,0x10
    2a7c:	0107d793          	srl	a5,a5,0x10
    2a80:	00f74733          	xor	a4,a4,a5
    2a84:	00177713          	and	a4,a4,1
    2a88:	00655693          	srl	a3,a0,0x6
    2a8c:	0017d793          	srl	a5,a5,0x1
    2a90:	00070c63          	beqz	a4,2aa8 <crcu8+0xf0>
    2a94:	ffffa737          	lui	a4,0xffffa
    2a98:	00170713          	add	a4,a4,1 # ffffa001 <start_time_val+0xffff4931>
    2a9c:	00e7c7b3          	xor	a5,a5,a4
    2aa0:	01079793          	sll	a5,a5,0x10
    2aa4:	0107d793          	srl	a5,a5,0x10
    2aa8:	00f6c6b3          	xor	a3,a3,a5
    2aac:	0016f693          	and	a3,a3,1
    2ab0:	00755713          	srl	a4,a0,0x7
    2ab4:	0017d793          	srl	a5,a5,0x1
    2ab8:	00068c63          	beqz	a3,2ad0 <crcu8+0x118>
    2abc:	ffffa6b7          	lui	a3,0xffffa
    2ac0:	00168693          	add	a3,a3,1 # ffffa001 <start_time_val+0xffff4931>
    2ac4:	00d7c7b3          	xor	a5,a5,a3
    2ac8:	01079793          	sll	a5,a5,0x10
    2acc:	0107d793          	srl	a5,a5,0x10
    2ad0:	0017f693          	and	a3,a5,1
    2ad4:	0017d513          	srl	a0,a5,0x1
    2ad8:	00e68c63          	beq	a3,a4,2af0 <crcu8+0x138>
    2adc:	ffffa7b7          	lui	a5,0xffffa
    2ae0:	00178793          	add	a5,a5,1 # ffffa001 <start_time_val+0xffff4931>
    2ae4:	00f54533          	xor	a0,a0,a5
    2ae8:	01051513          	sll	a0,a0,0x10
    2aec:	01055513          	srl	a0,a0,0x10
    2af0:	00008067          	ret

00002af4 <crcu16>:
    2af4:	0ff57713          	zext.b	a4,a0
    2af8:	00b746b3          	xor	a3,a4,a1
    2afc:	0016f693          	and	a3,a3,1
    2b00:	00050793          	mv	a5,a0
    2b04:	00175613          	srl	a2,a4,0x1
    2b08:	0015d513          	srl	a0,a1,0x1
    2b0c:	00068c63          	beqz	a3,2b24 <crcu16+0x30>
    2b10:	ffffa6b7          	lui	a3,0xffffa
    2b14:	00168693          	add	a3,a3,1 # ffffa001 <start_time_val+0xffff4931>
    2b18:	00d54533          	xor	a0,a0,a3
    2b1c:	01051513          	sll	a0,a0,0x10
    2b20:	01055513          	srl	a0,a0,0x10
    2b24:	00a64633          	xor	a2,a2,a0
    2b28:	00167613          	and	a2,a2,1
    2b2c:	00275693          	srl	a3,a4,0x2
    2b30:	00155513          	srl	a0,a0,0x1
    2b34:	00060c63          	beqz	a2,2b4c <crcu16+0x58>
    2b38:	ffffa637          	lui	a2,0xffffa
    2b3c:	00160613          	add	a2,a2,1 # ffffa001 <start_time_val+0xffff4931>
    2b40:	00c54533          	xor	a0,a0,a2
    2b44:	01051513          	sll	a0,a0,0x10
    2b48:	01055513          	srl	a0,a0,0x10
    2b4c:	00a6c6b3          	xor	a3,a3,a0
    2b50:	0016f693          	and	a3,a3,1
    2b54:	00375613          	srl	a2,a4,0x3
    2b58:	00155513          	srl	a0,a0,0x1
    2b5c:	00068c63          	beqz	a3,2b74 <crcu16+0x80>
    2b60:	ffffa6b7          	lui	a3,0xffffa
    2b64:	00168693          	add	a3,a3,1 # ffffa001 <start_time_val+0xffff4931>
    2b68:	00d54533          	xor	a0,a0,a3
    2b6c:	01051513          	sll	a0,a0,0x10
    2b70:	01055513          	srl	a0,a0,0x10
    2b74:	00a64633          	xor	a2,a2,a0
    2b78:	00167613          	and	a2,a2,1
    2b7c:	00475693          	srl	a3,a4,0x4
    2b80:	00155513          	srl	a0,a0,0x1
    2b84:	00060c63          	beqz	a2,2b9c <crcu16+0xa8>
    2b88:	ffffa637          	lui	a2,0xffffa
    2b8c:	00160613          	add	a2,a2,1 # ffffa001 <start_time_val+0xffff4931>
    2b90:	00c54533          	xor	a0,a0,a2
    2b94:	01051513          	sll	a0,a0,0x10
    2b98:	01055513          	srl	a0,a0,0x10
    2b9c:	00a6c6b3          	xor	a3,a3,a0
    2ba0:	0016f693          	and	a3,a3,1
    2ba4:	00575613          	srl	a2,a4,0x5
    2ba8:	00155513          	srl	a0,a0,0x1
    2bac:	00068c63          	beqz	a3,2bc4 <crcu16+0xd0>
    2bb0:	ffffa6b7          	lui	a3,0xffffa
    2bb4:	00168693          	add	a3,a3,1 # ffffa001 <start_time_val+0xffff4931>
    2bb8:	00d54533          	xor	a0,a0,a3
    2bbc:	01051513          	sll	a0,a0,0x10
    2bc0:	01055513          	srl	a0,a0,0x10
    2bc4:	00a64633          	xor	a2,a2,a0
    2bc8:	00167613          	and	a2,a2,1
    2bcc:	00675693          	srl	a3,a4,0x6
    2bd0:	00155513          	srl	a0,a0,0x1
    2bd4:	00060c63          	beqz	a2,2bec <crcu16+0xf8>
    2bd8:	ffffa637          	lui	a2,0xffffa
    2bdc:	00160613          	add	a2,a2,1 # ffffa001 <start_time_val+0xffff4931>
    2be0:	00c54533          	xor	a0,a0,a2
    2be4:	01051513          	sll	a0,a0,0x10
    2be8:	01055513          	srl	a0,a0,0x10
    2bec:	00a6c6b3          	xor	a3,a3,a0
    2bf0:	0016f693          	and	a3,a3,1
    2bf4:	00775713          	srl	a4,a4,0x7
    2bf8:	00155513          	srl	a0,a0,0x1
    2bfc:	00068c63          	beqz	a3,2c14 <crcu16+0x120>
    2c00:	ffffa6b7          	lui	a3,0xffffa
    2c04:	00168693          	add	a3,a3,1 # ffffa001 <start_time_val+0xffff4931>
    2c08:	00d54533          	xor	a0,a0,a3
    2c0c:	01051513          	sll	a0,a0,0x10
    2c10:	01055513          	srl	a0,a0,0x10
    2c14:	00157693          	and	a3,a0,1
    2c18:	00155513          	srl	a0,a0,0x1
    2c1c:	00e68c63          	beq	a3,a4,2c34 <crcu16+0x140>
    2c20:	ffffa737          	lui	a4,0xffffa
    2c24:	00170713          	add	a4,a4,1 # ffffa001 <start_time_val+0xffff4931>
    2c28:	00e54533          	xor	a0,a0,a4
    2c2c:	01051513          	sll	a0,a0,0x10
    2c30:	01055513          	srl	a0,a0,0x10
    2c34:	0087d693          	srl	a3,a5,0x8
    2c38:	00a6c633          	xor	a2,a3,a0
    2c3c:	00167613          	and	a2,a2,1
    2c40:	0097d713          	srl	a4,a5,0x9
    2c44:	00155513          	srl	a0,a0,0x1
    2c48:	00060c63          	beqz	a2,2c60 <crcu16+0x16c>
    2c4c:	ffffa7b7          	lui	a5,0xffffa
    2c50:	00178793          	add	a5,a5,1 # ffffa001 <start_time_val+0xffff4931>
    2c54:	00f54533          	xor	a0,a0,a5
    2c58:	01051513          	sll	a0,a0,0x10
    2c5c:	01055513          	srl	a0,a0,0x10
    2c60:	00a74733          	xor	a4,a4,a0
    2c64:	00177713          	and	a4,a4,1
    2c68:	0026d793          	srl	a5,a3,0x2
    2c6c:	00155513          	srl	a0,a0,0x1
    2c70:	00070c63          	beqz	a4,2c88 <crcu16+0x194>
    2c74:	ffffa737          	lui	a4,0xffffa
    2c78:	00170713          	add	a4,a4,1 # ffffa001 <start_time_val+0xffff4931>
    2c7c:	00e54533          	xor	a0,a0,a4
    2c80:	01051513          	sll	a0,a0,0x10
    2c84:	01055513          	srl	a0,a0,0x10
    2c88:	00a7c733          	xor	a4,a5,a0
    2c8c:	00177713          	and	a4,a4,1
    2c90:	0036d793          	srl	a5,a3,0x3
    2c94:	00155513          	srl	a0,a0,0x1
    2c98:	00070c63          	beqz	a4,2cb0 <crcu16+0x1bc>
    2c9c:	ffffa737          	lui	a4,0xffffa
    2ca0:	00170713          	add	a4,a4,1 # ffffa001 <start_time_val+0xffff4931>
    2ca4:	00e54533          	xor	a0,a0,a4
    2ca8:	01051513          	sll	a0,a0,0x10
    2cac:	01055513          	srl	a0,a0,0x10
    2cb0:	00a7c7b3          	xor	a5,a5,a0
    2cb4:	0017f793          	and	a5,a5,1
    2cb8:	0046d713          	srl	a4,a3,0x4
    2cbc:	00155513          	srl	a0,a0,0x1
    2cc0:	00078c63          	beqz	a5,2cd8 <crcu16+0x1e4>
    2cc4:	ffffa7b7          	lui	a5,0xffffa
    2cc8:	00178793          	add	a5,a5,1 # ffffa001 <start_time_val+0xffff4931>
    2ccc:	00f54533          	xor	a0,a0,a5
    2cd0:	01051513          	sll	a0,a0,0x10
    2cd4:	01055513          	srl	a0,a0,0x10
    2cd8:	00a74733          	xor	a4,a4,a0
    2cdc:	00177713          	and	a4,a4,1
    2ce0:	0056d793          	srl	a5,a3,0x5
    2ce4:	00155513          	srl	a0,a0,0x1
    2ce8:	00070c63          	beqz	a4,2d00 <crcu16+0x20c>
    2cec:	ffffa737          	lui	a4,0xffffa
    2cf0:	00170713          	add	a4,a4,1 # ffffa001 <start_time_val+0xffff4931>
    2cf4:	00e54533          	xor	a0,a0,a4
    2cf8:	01051513          	sll	a0,a0,0x10
    2cfc:	01055513          	srl	a0,a0,0x10
    2d00:	00a7c7b3          	xor	a5,a5,a0
    2d04:	0017f793          	and	a5,a5,1
    2d08:	0066d713          	srl	a4,a3,0x6
    2d0c:	00155513          	srl	a0,a0,0x1
    2d10:	00078c63          	beqz	a5,2d28 <crcu16+0x234>
    2d14:	ffffa7b7          	lui	a5,0xffffa
    2d18:	00178793          	add	a5,a5,1 # ffffa001 <start_time_val+0xffff4931>
    2d1c:	00f54533          	xor	a0,a0,a5
    2d20:	01051513          	sll	a0,a0,0x10
    2d24:	01055513          	srl	a0,a0,0x10
    2d28:	00a74733          	xor	a4,a4,a0
    2d2c:	00177713          	and	a4,a4,1
    2d30:	0076d793          	srl	a5,a3,0x7
    2d34:	00155513          	srl	a0,a0,0x1
    2d38:	00070c63          	beqz	a4,2d50 <crcu16+0x25c>
    2d3c:	ffffa737          	lui	a4,0xffffa
    2d40:	00170713          	add	a4,a4,1 # ffffa001 <start_time_val+0xffff4931>
    2d44:	00e54533          	xor	a0,a0,a4
    2d48:	01051513          	sll	a0,a0,0x10
    2d4c:	01055513          	srl	a0,a0,0x10
    2d50:	00157713          	and	a4,a0,1
    2d54:	00155513          	srl	a0,a0,0x1
    2d58:	00f70c63          	beq	a4,a5,2d70 <crcu16+0x27c>
    2d5c:	ffffa7b7          	lui	a5,0xffffa
    2d60:	00178793          	add	a5,a5,1 # ffffa001 <start_time_val+0xffff4931>
    2d64:	00f54533          	xor	a0,a0,a5
    2d68:	01051513          	sll	a0,a0,0x10
    2d6c:	01055513          	srl	a0,a0,0x10
    2d70:	00008067          	ret

00002d74 <crcu32>:
    2d74:	0ff57713          	zext.b	a4,a0
    2d78:	00b74833          	xor	a6,a4,a1
    2d7c:	01051693          	sll	a3,a0,0x10
    2d80:	00187813          	and	a6,a6,1
    2d84:	00050793          	mv	a5,a0
    2d88:	0106d693          	srl	a3,a3,0x10
    2d8c:	00175613          	srl	a2,a4,0x1
    2d90:	0015d513          	srl	a0,a1,0x1
    2d94:	00080c63          	beqz	a6,2dac <crcu32+0x38>
    2d98:	ffffa5b7          	lui	a1,0xffffa
    2d9c:	00158593          	add	a1,a1,1 # ffffa001 <start_time_val+0xffff4931>
    2da0:	00b54533          	xor	a0,a0,a1
    2da4:	01051513          	sll	a0,a0,0x10
    2da8:	01055513          	srl	a0,a0,0x10
    2dac:	00a645b3          	xor	a1,a2,a0
    2db0:	0015f593          	and	a1,a1,1
    2db4:	00275613          	srl	a2,a4,0x2
    2db8:	00155513          	srl	a0,a0,0x1
    2dbc:	00058c63          	beqz	a1,2dd4 <crcu32+0x60>
    2dc0:	ffffa5b7          	lui	a1,0xffffa
    2dc4:	00158593          	add	a1,a1,1 # ffffa001 <start_time_val+0xffff4931>
    2dc8:	00b54533          	xor	a0,a0,a1
    2dcc:	01051513          	sll	a0,a0,0x10
    2dd0:	01055513          	srl	a0,a0,0x10
    2dd4:	00a64633          	xor	a2,a2,a0
    2dd8:	00167613          	and	a2,a2,1
    2ddc:	00375593          	srl	a1,a4,0x3
    2de0:	00155513          	srl	a0,a0,0x1
    2de4:	00060c63          	beqz	a2,2dfc <crcu32+0x88>
    2de8:	ffffa637          	lui	a2,0xffffa
    2dec:	00160613          	add	a2,a2,1 # ffffa001 <start_time_val+0xffff4931>
    2df0:	00c54533          	xor	a0,a0,a2
    2df4:	01051513          	sll	a0,a0,0x10
    2df8:	01055513          	srl	a0,a0,0x10
    2dfc:	00a5c5b3          	xor	a1,a1,a0
    2e00:	0015f593          	and	a1,a1,1
    2e04:	00475613          	srl	a2,a4,0x4
    2e08:	00155513          	srl	a0,a0,0x1
    2e0c:	00058c63          	beqz	a1,2e24 <crcu32+0xb0>
    2e10:	ffffa5b7          	lui	a1,0xffffa
    2e14:	00158593          	add	a1,a1,1 # ffffa001 <start_time_val+0xffff4931>
    2e18:	00b54533          	xor	a0,a0,a1
    2e1c:	01051513          	sll	a0,a0,0x10
    2e20:	01055513          	srl	a0,a0,0x10
    2e24:	00a64633          	xor	a2,a2,a0
    2e28:	00167613          	and	a2,a2,1
    2e2c:	00575593          	srl	a1,a4,0x5
    2e30:	00155513          	srl	a0,a0,0x1
    2e34:	00060c63          	beqz	a2,2e4c <crcu32+0xd8>
    2e38:	ffffa637          	lui	a2,0xffffa
    2e3c:	00160613          	add	a2,a2,1 # ffffa001 <start_time_val+0xffff4931>
    2e40:	00c54533          	xor	a0,a0,a2
    2e44:	01051513          	sll	a0,a0,0x10
    2e48:	01055513          	srl	a0,a0,0x10
    2e4c:	00a5c5b3          	xor	a1,a1,a0
    2e50:	0015f593          	and	a1,a1,1
    2e54:	00675613          	srl	a2,a4,0x6
    2e58:	00155513          	srl	a0,a0,0x1
    2e5c:	00058c63          	beqz	a1,2e74 <crcu32+0x100>
    2e60:	ffffa5b7          	lui	a1,0xffffa
    2e64:	00158593          	add	a1,a1,1 # ffffa001 <start_time_val+0xffff4931>
    2e68:	00b54533          	xor	a0,a0,a1
    2e6c:	01051513          	sll	a0,a0,0x10
    2e70:	01055513          	srl	a0,a0,0x10
    2e74:	00a64633          	xor	a2,a2,a0
    2e78:	00167613          	and	a2,a2,1
    2e7c:	00775713          	srl	a4,a4,0x7
    2e80:	00155513          	srl	a0,a0,0x1
    2e84:	00060c63          	beqz	a2,2e9c <crcu32+0x128>
    2e88:	ffffa637          	lui	a2,0xffffa
    2e8c:	00160613          	add	a2,a2,1 # ffffa001 <start_time_val+0xffff4931>
    2e90:	00c54533          	xor	a0,a0,a2
    2e94:	01051513          	sll	a0,a0,0x10
    2e98:	01055513          	srl	a0,a0,0x10
    2e9c:	00157613          	and	a2,a0,1
    2ea0:	00155513          	srl	a0,a0,0x1
    2ea4:	3ce61663          	bne	a2,a4,3270 <crcu32+0x4fc>
    2ea8:	0086d713          	srl	a4,a3,0x8
    2eac:	00a74633          	xor	a2,a4,a0
    2eb0:	00167613          	and	a2,a2,1
    2eb4:	0096d693          	srl	a3,a3,0x9
    2eb8:	00155513          	srl	a0,a0,0x1
    2ebc:	00060c63          	beqz	a2,2ed4 <crcu32+0x160>
    2ec0:	ffffa637          	lui	a2,0xffffa
    2ec4:	00160613          	add	a2,a2,1 # ffffa001 <start_time_val+0xffff4931>
    2ec8:	00c54533          	xor	a0,a0,a2
    2ecc:	01051513          	sll	a0,a0,0x10
    2ed0:	01055513          	srl	a0,a0,0x10
    2ed4:	00a6c6b3          	xor	a3,a3,a0
    2ed8:	0016f693          	and	a3,a3,1
    2edc:	00275613          	srl	a2,a4,0x2
    2ee0:	00155513          	srl	a0,a0,0x1
    2ee4:	00068c63          	beqz	a3,2efc <crcu32+0x188>
    2ee8:	ffffa6b7          	lui	a3,0xffffa
    2eec:	00168693          	add	a3,a3,1 # ffffa001 <start_time_val+0xffff4931>
    2ef0:	00d54533          	xor	a0,a0,a3
    2ef4:	01051513          	sll	a0,a0,0x10
    2ef8:	01055513          	srl	a0,a0,0x10
    2efc:	00a646b3          	xor	a3,a2,a0
    2f00:	0016f693          	and	a3,a3,1
    2f04:	00375613          	srl	a2,a4,0x3
    2f08:	00155513          	srl	a0,a0,0x1
    2f0c:	00068c63          	beqz	a3,2f24 <crcu32+0x1b0>
    2f10:	ffffa6b7          	lui	a3,0xffffa
    2f14:	00168693          	add	a3,a3,1 # ffffa001 <start_time_val+0xffff4931>
    2f18:	00d54533          	xor	a0,a0,a3
    2f1c:	01051513          	sll	a0,a0,0x10
    2f20:	01055513          	srl	a0,a0,0x10
    2f24:	00a64633          	xor	a2,a2,a0
    2f28:	00167613          	and	a2,a2,1
    2f2c:	00475693          	srl	a3,a4,0x4
    2f30:	00155513          	srl	a0,a0,0x1
    2f34:	00060c63          	beqz	a2,2f4c <crcu32+0x1d8>
    2f38:	ffffa637          	lui	a2,0xffffa
    2f3c:	00160613          	add	a2,a2,1 # ffffa001 <start_time_val+0xffff4931>
    2f40:	00c54533          	xor	a0,a0,a2
    2f44:	01051513          	sll	a0,a0,0x10
    2f48:	01055513          	srl	a0,a0,0x10
    2f4c:	00a6c6b3          	xor	a3,a3,a0
    2f50:	0016f693          	and	a3,a3,1
    2f54:	00575613          	srl	a2,a4,0x5
    2f58:	00155513          	srl	a0,a0,0x1
    2f5c:	00068c63          	beqz	a3,2f74 <crcu32+0x200>
    2f60:	ffffa6b7          	lui	a3,0xffffa
    2f64:	00168693          	add	a3,a3,1 # ffffa001 <start_time_val+0xffff4931>
    2f68:	00d54533          	xor	a0,a0,a3
    2f6c:	01051513          	sll	a0,a0,0x10
    2f70:	01055513          	srl	a0,a0,0x10
    2f74:	00a64633          	xor	a2,a2,a0
    2f78:	00167613          	and	a2,a2,1
    2f7c:	00675693          	srl	a3,a4,0x6
    2f80:	00155513          	srl	a0,a0,0x1
    2f84:	00060c63          	beqz	a2,2f9c <crcu32+0x228>
    2f88:	ffffa637          	lui	a2,0xffffa
    2f8c:	00160613          	add	a2,a2,1 # ffffa001 <start_time_val+0xffff4931>
    2f90:	00c54533          	xor	a0,a0,a2
    2f94:	01051513          	sll	a0,a0,0x10
    2f98:	01055513          	srl	a0,a0,0x10
    2f9c:	00a6c6b3          	xor	a3,a3,a0
    2fa0:	0016f693          	and	a3,a3,1
    2fa4:	00775713          	srl	a4,a4,0x7
    2fa8:	00155513          	srl	a0,a0,0x1
    2fac:	00068c63          	beqz	a3,2fc4 <crcu32+0x250>
    2fb0:	ffffa6b7          	lui	a3,0xffffa
    2fb4:	00168693          	add	a3,a3,1 # ffffa001 <start_time_val+0xffff4931>
    2fb8:	00d54533          	xor	a0,a0,a3
    2fbc:	01051513          	sll	a0,a0,0x10
    2fc0:	01055513          	srl	a0,a0,0x10
    2fc4:	00157693          	and	a3,a0,1
    2fc8:	00155513          	srl	a0,a0,0x1
    2fcc:	28e69663          	bne	a3,a4,3258 <crcu32+0x4e4>
    2fd0:	0107d713          	srl	a4,a5,0x10
    2fd4:	0ff77713          	zext.b	a4,a4
    2fd8:	00a746b3          	xor	a3,a4,a0
    2fdc:	0016f693          	and	a3,a3,1
    2fe0:	0107d793          	srl	a5,a5,0x10
    2fe4:	00175613          	srl	a2,a4,0x1
    2fe8:	00155513          	srl	a0,a0,0x1
    2fec:	00068c63          	beqz	a3,3004 <crcu32+0x290>
    2ff0:	ffffa6b7          	lui	a3,0xffffa
    2ff4:	00168693          	add	a3,a3,1 # ffffa001 <start_time_val+0xffff4931>
    2ff8:	00d54533          	xor	a0,a0,a3
    2ffc:	01051513          	sll	a0,a0,0x10
    3000:	01055513          	srl	a0,a0,0x10
    3004:	00a64633          	xor	a2,a2,a0
    3008:	00167613          	and	a2,a2,1
    300c:	00275693          	srl	a3,a4,0x2
    3010:	00155513          	srl	a0,a0,0x1
    3014:	00060c63          	beqz	a2,302c <crcu32+0x2b8>
    3018:	ffffa637          	lui	a2,0xffffa
    301c:	00160613          	add	a2,a2,1 # ffffa001 <start_time_val+0xffff4931>
    3020:	00c54533          	xor	a0,a0,a2
    3024:	01051513          	sll	a0,a0,0x10
    3028:	01055513          	srl	a0,a0,0x10
    302c:	00a6c6b3          	xor	a3,a3,a0
    3030:	0016f693          	and	a3,a3,1
    3034:	00375613          	srl	a2,a4,0x3
    3038:	00155513          	srl	a0,a0,0x1
    303c:	00068c63          	beqz	a3,3054 <crcu32+0x2e0>
    3040:	ffffa6b7          	lui	a3,0xffffa
    3044:	00168693          	add	a3,a3,1 # ffffa001 <start_time_val+0xffff4931>
    3048:	00d54533          	xor	a0,a0,a3
    304c:	01051513          	sll	a0,a0,0x10
    3050:	01055513          	srl	a0,a0,0x10
    3054:	00a64633          	xor	a2,a2,a0
    3058:	00167613          	and	a2,a2,1
    305c:	00475693          	srl	a3,a4,0x4
    3060:	00155513          	srl	a0,a0,0x1
    3064:	00060c63          	beqz	a2,307c <crcu32+0x308>
    3068:	ffffa637          	lui	a2,0xffffa
    306c:	00160613          	add	a2,a2,1 # ffffa001 <start_time_val+0xffff4931>
    3070:	00c54533          	xor	a0,a0,a2
    3074:	01051513          	sll	a0,a0,0x10
    3078:	01055513          	srl	a0,a0,0x10
    307c:	00a6c6b3          	xor	a3,a3,a0
    3080:	0016f693          	and	a3,a3,1
    3084:	00575613          	srl	a2,a4,0x5
    3088:	00155513          	srl	a0,a0,0x1
    308c:	00068c63          	beqz	a3,30a4 <crcu32+0x330>
    3090:	ffffa6b7          	lui	a3,0xffffa
    3094:	00168693          	add	a3,a3,1 # ffffa001 <start_time_val+0xffff4931>
    3098:	00d54533          	xor	a0,a0,a3
    309c:	01051513          	sll	a0,a0,0x10
    30a0:	01055513          	srl	a0,a0,0x10
    30a4:	00a64633          	xor	a2,a2,a0
    30a8:	00167613          	and	a2,a2,1
    30ac:	00675693          	srl	a3,a4,0x6
    30b0:	00155513          	srl	a0,a0,0x1
    30b4:	00060c63          	beqz	a2,30cc <crcu32+0x358>
    30b8:	ffffa637          	lui	a2,0xffffa
    30bc:	00160613          	add	a2,a2,1 # ffffa001 <start_time_val+0xffff4931>
    30c0:	00c54533          	xor	a0,a0,a2
    30c4:	01051513          	sll	a0,a0,0x10
    30c8:	01055513          	srl	a0,a0,0x10
    30cc:	00a6c6b3          	xor	a3,a3,a0
    30d0:	0016f693          	and	a3,a3,1
    30d4:	00775713          	srl	a4,a4,0x7
    30d8:	00155513          	srl	a0,a0,0x1
    30dc:	00068c63          	beqz	a3,30f4 <crcu32+0x380>
    30e0:	ffffa6b7          	lui	a3,0xffffa
    30e4:	00168693          	add	a3,a3,1 # ffffa001 <start_time_val+0xffff4931>
    30e8:	00d54533          	xor	a0,a0,a3
    30ec:	01051513          	sll	a0,a0,0x10
    30f0:	01055513          	srl	a0,a0,0x10
    30f4:	00157693          	and	a3,a0,1
    30f8:	00155513          	srl	a0,a0,0x1
    30fc:	14e69263          	bne	a3,a4,3240 <crcu32+0x4cc>
    3100:	0087d713          	srl	a4,a5,0x8
    3104:	00a746b3          	xor	a3,a4,a0
    3108:	0016f693          	and	a3,a3,1
    310c:	0097d793          	srl	a5,a5,0x9
    3110:	00155513          	srl	a0,a0,0x1
    3114:	00068c63          	beqz	a3,312c <crcu32+0x3b8>
    3118:	ffffa6b7          	lui	a3,0xffffa
    311c:	00168693          	add	a3,a3,1 # ffffa001 <start_time_val+0xffff4931>
    3120:	00d54533          	xor	a0,a0,a3
    3124:	01051513          	sll	a0,a0,0x10
    3128:	01055513          	srl	a0,a0,0x10
    312c:	00a7c7b3          	xor	a5,a5,a0
    3130:	0017f793          	and	a5,a5,1
    3134:	00275693          	srl	a3,a4,0x2
    3138:	00155513          	srl	a0,a0,0x1
    313c:	00078c63          	beqz	a5,3154 <crcu32+0x3e0>
    3140:	ffffa7b7          	lui	a5,0xffffa
    3144:	00178793          	add	a5,a5,1 # ffffa001 <start_time_val+0xffff4931>
    3148:	00f54533          	xor	a0,a0,a5
    314c:	01051513          	sll	a0,a0,0x10
    3150:	01055513          	srl	a0,a0,0x10
    3154:	00a6c7b3          	xor	a5,a3,a0
    3158:	0017f793          	and	a5,a5,1
    315c:	00375693          	srl	a3,a4,0x3
    3160:	00155513          	srl	a0,a0,0x1
    3164:	00078c63          	beqz	a5,317c <crcu32+0x408>
    3168:	ffffa7b7          	lui	a5,0xffffa
    316c:	00178793          	add	a5,a5,1 # ffffa001 <start_time_val+0xffff4931>
    3170:	00f54533          	xor	a0,a0,a5
    3174:	01051513          	sll	a0,a0,0x10
    3178:	01055513          	srl	a0,a0,0x10
    317c:	00a6c6b3          	xor	a3,a3,a0
    3180:	0016f693          	and	a3,a3,1
    3184:	00475793          	srl	a5,a4,0x4
    3188:	00155513          	srl	a0,a0,0x1
    318c:	00068c63          	beqz	a3,31a4 <crcu32+0x430>
    3190:	ffffa6b7          	lui	a3,0xffffa
    3194:	00168693          	add	a3,a3,1 # ffffa001 <start_time_val+0xffff4931>
    3198:	00d54533          	xor	a0,a0,a3
    319c:	01051513          	sll	a0,a0,0x10
    31a0:	01055513          	srl	a0,a0,0x10
    31a4:	00a7c7b3          	xor	a5,a5,a0
    31a8:	0017f793          	and	a5,a5,1
    31ac:	00575693          	srl	a3,a4,0x5
    31b0:	00155513          	srl	a0,a0,0x1
    31b4:	00078c63          	beqz	a5,31cc <crcu32+0x458>
    31b8:	ffffa7b7          	lui	a5,0xffffa
    31bc:	00178793          	add	a5,a5,1 # ffffa001 <start_time_val+0xffff4931>
    31c0:	00f54533          	xor	a0,a0,a5
    31c4:	01051513          	sll	a0,a0,0x10
    31c8:	01055513          	srl	a0,a0,0x10
    31cc:	00a6c6b3          	xor	a3,a3,a0
    31d0:	0016f693          	and	a3,a3,1
    31d4:	00675793          	srl	a5,a4,0x6
    31d8:	00155513          	srl	a0,a0,0x1
    31dc:	00068c63          	beqz	a3,31f4 <crcu32+0x480>
    31e0:	ffffa6b7          	lui	a3,0xffffa
    31e4:	00168693          	add	a3,a3,1 # ffffa001 <start_time_val+0xffff4931>
    31e8:	00d54533          	xor	a0,a0,a3
    31ec:	01051513          	sll	a0,a0,0x10
    31f0:	01055513          	srl	a0,a0,0x10
    31f4:	00a7c7b3          	xor	a5,a5,a0
    31f8:	0017f793          	and	a5,a5,1
    31fc:	00775713          	srl	a4,a4,0x7
    3200:	00155513          	srl	a0,a0,0x1
    3204:	00078c63          	beqz	a5,321c <crcu32+0x4a8>
    3208:	ffffa7b7          	lui	a5,0xffffa
    320c:	00178793          	add	a5,a5,1 # ffffa001 <start_time_val+0xffff4931>
    3210:	00f54533          	xor	a0,a0,a5
    3214:	01051513          	sll	a0,a0,0x10
    3218:	01055513          	srl	a0,a0,0x10
    321c:	00157793          	and	a5,a0,1
    3220:	00155513          	srl	a0,a0,0x1
    3224:	00e78c63          	beq	a5,a4,323c <crcu32+0x4c8>
    3228:	ffffa7b7          	lui	a5,0xffffa
    322c:	00178793          	add	a5,a5,1 # ffffa001 <start_time_val+0xffff4931>
    3230:	00f54533          	xor	a0,a0,a5
    3234:	01051513          	sll	a0,a0,0x10
    3238:	01055513          	srl	a0,a0,0x10
    323c:	00008067          	ret
    3240:	ffffa737          	lui	a4,0xffffa
    3244:	00170713          	add	a4,a4,1 # ffffa001 <start_time_val+0xffff4931>
    3248:	00e54533          	xor	a0,a0,a4
    324c:	01051513          	sll	a0,a0,0x10
    3250:	01055513          	srl	a0,a0,0x10
    3254:	eadff06f          	j	3100 <crcu32+0x38c>
    3258:	ffffa737          	lui	a4,0xffffa
    325c:	00170713          	add	a4,a4,1 # ffffa001 <start_time_val+0xffff4931>
    3260:	00e54533          	xor	a0,a0,a4
    3264:	01051513          	sll	a0,a0,0x10
    3268:	01055513          	srl	a0,a0,0x10
    326c:	d65ff06f          	j	2fd0 <crcu32+0x25c>
    3270:	ffffa737          	lui	a4,0xffffa
    3274:	00170713          	add	a4,a4,1 # ffffa001 <start_time_val+0xffff4931>
    3278:	00e54533          	xor	a0,a0,a4
    327c:	01051513          	sll	a0,a0,0x10
    3280:	01055513          	srl	a0,a0,0x10
    3284:	c25ff06f          	j	2ea8 <crcu32+0x134>

00003288 <crc16>:
    3288:	0ff57713          	zext.b	a4,a0
    328c:	00b746b3          	xor	a3,a4,a1
    3290:	01051793          	sll	a5,a0,0x10
    3294:	0016f693          	and	a3,a3,1
    3298:	0107d793          	srl	a5,a5,0x10
    329c:	00175613          	srl	a2,a4,0x1
    32a0:	0015d513          	srl	a0,a1,0x1
    32a4:	00068c63          	beqz	a3,32bc <crc16+0x34>
    32a8:	ffffa6b7          	lui	a3,0xffffa
    32ac:	00168693          	add	a3,a3,1 # ffffa001 <start_time_val+0xffff4931>
    32b0:	00d54533          	xor	a0,a0,a3
    32b4:	01051513          	sll	a0,a0,0x10
    32b8:	01055513          	srl	a0,a0,0x10
    32bc:	00a64633          	xor	a2,a2,a0
    32c0:	00167613          	and	a2,a2,1
    32c4:	00275693          	srl	a3,a4,0x2
    32c8:	00155513          	srl	a0,a0,0x1
    32cc:	00060c63          	beqz	a2,32e4 <crc16+0x5c>
    32d0:	ffffa637          	lui	a2,0xffffa
    32d4:	00160613          	add	a2,a2,1 # ffffa001 <start_time_val+0xffff4931>
    32d8:	00c54533          	xor	a0,a0,a2
    32dc:	01051513          	sll	a0,a0,0x10
    32e0:	01055513          	srl	a0,a0,0x10
    32e4:	00a6c6b3          	xor	a3,a3,a0
    32e8:	0016f693          	and	a3,a3,1
    32ec:	00375613          	srl	a2,a4,0x3
    32f0:	00155513          	srl	a0,a0,0x1
    32f4:	00068c63          	beqz	a3,330c <crc16+0x84>
    32f8:	ffffa6b7          	lui	a3,0xffffa
    32fc:	00168693          	add	a3,a3,1 # ffffa001 <start_time_val+0xffff4931>
    3300:	00d54533          	xor	a0,a0,a3
    3304:	01051513          	sll	a0,a0,0x10
    3308:	01055513          	srl	a0,a0,0x10
    330c:	00a64633          	xor	a2,a2,a0
    3310:	00167613          	and	a2,a2,1
    3314:	00475693          	srl	a3,a4,0x4
    3318:	00155513          	srl	a0,a0,0x1
    331c:	00060c63          	beqz	a2,3334 <crc16+0xac>
    3320:	ffffa637          	lui	a2,0xffffa
    3324:	00160613          	add	a2,a2,1 # ffffa001 <start_time_val+0xffff4931>
    3328:	00c54533          	xor	a0,a0,a2
    332c:	01051513          	sll	a0,a0,0x10
    3330:	01055513          	srl	a0,a0,0x10
    3334:	00a6c6b3          	xor	a3,a3,a0
    3338:	0016f693          	and	a3,a3,1
    333c:	00575613          	srl	a2,a4,0x5
    3340:	00155513          	srl	a0,a0,0x1
    3344:	00068c63          	beqz	a3,335c <crc16+0xd4>
    3348:	ffffa6b7          	lui	a3,0xffffa
    334c:	00168693          	add	a3,a3,1 # ffffa001 <start_time_val+0xffff4931>
    3350:	00d54533          	xor	a0,a0,a3
    3354:	01051513          	sll	a0,a0,0x10
    3358:	01055513          	srl	a0,a0,0x10
    335c:	00a64633          	xor	a2,a2,a0
    3360:	00167613          	and	a2,a2,1
    3364:	00675693          	srl	a3,a4,0x6
    3368:	00155513          	srl	a0,a0,0x1
    336c:	00060c63          	beqz	a2,3384 <crc16+0xfc>
    3370:	ffffa637          	lui	a2,0xffffa
    3374:	00160613          	add	a2,a2,1 # ffffa001 <start_time_val+0xffff4931>
    3378:	00c54533          	xor	a0,a0,a2
    337c:	01051513          	sll	a0,a0,0x10
    3380:	01055513          	srl	a0,a0,0x10
    3384:	00a6c6b3          	xor	a3,a3,a0
    3388:	0016f693          	and	a3,a3,1
    338c:	00775713          	srl	a4,a4,0x7
    3390:	00155513          	srl	a0,a0,0x1
    3394:	00068c63          	beqz	a3,33ac <crc16+0x124>
    3398:	ffffa6b7          	lui	a3,0xffffa
    339c:	00168693          	add	a3,a3,1 # ffffa001 <start_time_val+0xffff4931>
    33a0:	00d54533          	xor	a0,a0,a3
    33a4:	01051513          	sll	a0,a0,0x10
    33a8:	01055513          	srl	a0,a0,0x10
    33ac:	00157693          	and	a3,a0,1
    33b0:	00155513          	srl	a0,a0,0x1
    33b4:	14e69263          	bne	a3,a4,34f8 <crc16+0x270>
    33b8:	0087d693          	srl	a3,a5,0x8
    33bc:	00a6c633          	xor	a2,a3,a0
    33c0:	00167613          	and	a2,a2,1
    33c4:	0097d713          	srl	a4,a5,0x9
    33c8:	00155513          	srl	a0,a0,0x1
    33cc:	00060c63          	beqz	a2,33e4 <crc16+0x15c>
    33d0:	ffffa7b7          	lui	a5,0xffffa
    33d4:	00178793          	add	a5,a5,1 # ffffa001 <start_time_val+0xffff4931>
    33d8:	00f54533          	xor	a0,a0,a5
    33dc:	01051513          	sll	a0,a0,0x10
    33e0:	01055513          	srl	a0,a0,0x10
    33e4:	00a74733          	xor	a4,a4,a0
    33e8:	00177713          	and	a4,a4,1
    33ec:	0026d793          	srl	a5,a3,0x2
    33f0:	00155513          	srl	a0,a0,0x1
    33f4:	00070c63          	beqz	a4,340c <crc16+0x184>
    33f8:	ffffa737          	lui	a4,0xffffa
    33fc:	00170713          	add	a4,a4,1 # ffffa001 <start_time_val+0xffff4931>
    3400:	00e54533          	xor	a0,a0,a4
    3404:	01051513          	sll	a0,a0,0x10
    3408:	01055513          	srl	a0,a0,0x10
    340c:	00a7c733          	xor	a4,a5,a0
    3410:	00177713          	and	a4,a4,1
    3414:	0036d793          	srl	a5,a3,0x3
    3418:	00155513          	srl	a0,a0,0x1
    341c:	00070c63          	beqz	a4,3434 <crc16+0x1ac>
    3420:	ffffa737          	lui	a4,0xffffa
    3424:	00170713          	add	a4,a4,1 # ffffa001 <start_time_val+0xffff4931>
    3428:	00e54533          	xor	a0,a0,a4
    342c:	01051513          	sll	a0,a0,0x10
    3430:	01055513          	srl	a0,a0,0x10
    3434:	00a7c7b3          	xor	a5,a5,a0
    3438:	0017f793          	and	a5,a5,1
    343c:	0046d713          	srl	a4,a3,0x4
    3440:	00155513          	srl	a0,a0,0x1
    3444:	00078c63          	beqz	a5,345c <crc16+0x1d4>
    3448:	ffffa7b7          	lui	a5,0xffffa
    344c:	00178793          	add	a5,a5,1 # ffffa001 <start_time_val+0xffff4931>
    3450:	00f54533          	xor	a0,a0,a5
    3454:	01051513          	sll	a0,a0,0x10
    3458:	01055513          	srl	a0,a0,0x10
    345c:	00a74733          	xor	a4,a4,a0
    3460:	00177713          	and	a4,a4,1
    3464:	0056d793          	srl	a5,a3,0x5
    3468:	00155513          	srl	a0,a0,0x1
    346c:	00070c63          	beqz	a4,3484 <crc16+0x1fc>
    3470:	ffffa737          	lui	a4,0xffffa
    3474:	00170713          	add	a4,a4,1 # ffffa001 <start_time_val+0xffff4931>
    3478:	00e54533          	xor	a0,a0,a4
    347c:	01051513          	sll	a0,a0,0x10
    3480:	01055513          	srl	a0,a0,0x10
    3484:	00a7c7b3          	xor	a5,a5,a0
    3488:	0017f793          	and	a5,a5,1
    348c:	0066d713          	srl	a4,a3,0x6
    3490:	00155513          	srl	a0,a0,0x1
    3494:	00078c63          	beqz	a5,34ac <crc16+0x224>
    3498:	ffffa7b7          	lui	a5,0xffffa
    349c:	00178793          	add	a5,a5,1 # ffffa001 <start_time_val+0xffff4931>
    34a0:	00f54533          	xor	a0,a0,a5
    34a4:	01051513          	sll	a0,a0,0x10
    34a8:	01055513          	srl	a0,a0,0x10
    34ac:	00a74733          	xor	a4,a4,a0
    34b0:	00177713          	and	a4,a4,1
    34b4:	0076d793          	srl	a5,a3,0x7
    34b8:	00155513          	srl	a0,a0,0x1
    34bc:	00070c63          	beqz	a4,34d4 <crc16+0x24c>
    34c0:	ffffa737          	lui	a4,0xffffa
    34c4:	00170713          	add	a4,a4,1 # ffffa001 <start_time_val+0xffff4931>
    34c8:	00e54533          	xor	a0,a0,a4
    34cc:	01051513          	sll	a0,a0,0x10
    34d0:	01055513          	srl	a0,a0,0x10
    34d4:	00157713          	and	a4,a0,1
    34d8:	00155513          	srl	a0,a0,0x1
    34dc:	00f70c63          	beq	a4,a5,34f4 <crc16+0x26c>
    34e0:	ffffa7b7          	lui	a5,0xffffa
    34e4:	00178793          	add	a5,a5,1 # ffffa001 <start_time_val+0xffff4931>
    34e8:	00f54533          	xor	a0,a0,a5
    34ec:	01051513          	sll	a0,a0,0x10
    34f0:	01055513          	srl	a0,a0,0x10
    34f4:	00008067          	ret
    34f8:	ffffa737          	lui	a4,0xffffa
    34fc:	00170713          	add	a4,a4,1 # ffffa001 <start_time_val+0xffff4931>
    3500:	00e54533          	xor	a0,a0,a4
    3504:	01051513          	sll	a0,a0,0x10
    3508:	01055513          	srl	a0,a0,0x10
    350c:	eadff06f          	j	33b8 <crc16+0x130>

00003510 <check_data_types>:
    3510:	00000513          	li	a0,0
    3514:	00008067          	ret

00003518 <barebones_clock>:
    3518:	c0002573          	rdcycle	a0
    351c:	00008067          	ret

00003520 <start_time>:
    3520:	c0002773          	rdcycle	a4
    3524:	000057b7          	lui	a5,0x5
    3528:	6ce7a823          	sw	a4,1744(a5) # 56d0 <start_time_val>
    352c:	00008067          	ret

00003530 <stop_time>:
    3530:	c0002773          	rdcycle	a4
    3534:	000057b7          	lui	a5,0x5
    3538:	6ce7a623          	sw	a4,1740(a5) # 56cc <stop_time_val>
    353c:	00008067          	ret

00003540 <get_time>:
    3540:	000057b7          	lui	a5,0x5
    3544:	6cc7a503          	lw	a0,1740(a5) # 56cc <stop_time_val>
    3548:	000057b7          	lui	a5,0x5
    354c:	6d07a783          	lw	a5,1744(a5) # 56d0 <start_time_val>
    3550:	40f50533          	sub	a0,a0,a5
    3554:	00008067          	ret

00003558 <time_in_secs>:
    3558:	019c07b7          	lui	a5,0x19c0
    355c:	cc078793          	add	a5,a5,-832 # 19bfcc0 <start_time_val+0x19ba5f0>
    3560:	02f55533          	divu	a0,a0,a5
    3564:	00008067          	ret

00003568 <portable_init>:
    3568:	00100793          	li	a5,1
    356c:	00f50023          	sb	a5,0(a0)
    3570:	00008067          	ret

00003574 <portable_fini>:
    3574:	00050023          	sb	zero,0(a0)
    3578:	00008067          	ret

0000357c <number>:
    357c:	fa010113          	add	sp,sp,-96
    3580:	04812e23          	sw	s0,92(sp)
    3584:	04912c23          	sw	s1,88(sp)
    3588:	0407f893          	and	a7,a5,64
    358c:	00050813          	mv	a6,a0
    3590:	44088c63          	beqz	a7,39e8 <number+0x46c>
    3594:	00005f37          	lui	t5,0x5
    3598:	0107f293          	and	t0,a5,16
    359c:	41cf0f13          	add	t5,t5,1052 # 541c <ee_printf+0x1910>
    35a0:	44029c63          	bnez	t0,39f8 <number+0x47c>
    35a4:	0017f513          	and	a0,a5,1
    35a8:	0117f493          	and	s1,a5,17
    35ac:	03000f93          	li	t6,48
    35b0:	44050863          	beqz	a0,3a00 <number+0x484>
    35b4:	0027f513          	and	a0,a5,2
    35b8:	0207f393          	and	t2,a5,32
    35bc:	44050a63          	beqz	a0,3a10 <number+0x494>
    35c0:	4405cc63          	bltz	a1,3a18 <number+0x49c>
    35c4:	0047f513          	and	a0,a5,4
    35c8:	48051c63          	bnez	a0,3a60 <number+0x4e4>
    35cc:	0087f793          	and	a5,a5,8
    35d0:	00000413          	li	s0,0
    35d4:	00078663          	beqz	a5,35e0 <number+0x64>
    35d8:	fff68693          	add	a3,a3,-1
    35dc:	02000413          	li	s0,32
    35e0:	00038c63          	beqz	t2,35f8 <number+0x7c>
    35e4:	01000793          	li	a5,16
    35e8:	4af60c63          	beq	a2,a5,3aa0 <number+0x524>
    35ec:	ff860793          	add	a5,a2,-8
    35f0:	0017b793          	seqz	a5,a5
    35f4:	40f686b3          	sub	a3,a3,a5
    35f8:	42059863          	bnez	a1,3a28 <number+0x4ac>
    35fc:	03000793          	li	a5,48
    3600:	00f10623          	sb	a5,12(sp)
    3604:	00100513          	li	a0,1
    3608:	00c10313          	add	t1,sp,12
    360c:	00050e13          	mv	t3,a0
    3610:	00e55463          	bge	a0,a4,3618 <number+0x9c>
    3614:	00070e13          	mv	t3,a4
    3618:	41c686b3          	sub	a3,a3,t3
    361c:	0e049063          	bnez	s1,36fc <number+0x180>
    3620:	fff68e93          	add	t4,a3,-1
    3624:	4ad05063          	blez	a3,3ac4 <number+0x548>
    3628:	41000733          	neg	a4,a6
    362c:	00500893          	li	a7,5
    3630:	00377793          	and	a5,a4,3
    3634:	4bd8f463          	bgeu	a7,t4,3adc <number+0x560>
    3638:	00080f13          	mv	t5,a6
    363c:	04078063          	beqz	a5,367c <number+0x100>
    3640:	02000893          	li	a7,32
    3644:	01180023          	sb	a7,0(a6)
    3648:	00277713          	and	a4,a4,2
    364c:	00180f13          	add	t5,a6,1
    3650:	ffe68e93          	add	t4,a3,-2
    3654:	02070463          	beqz	a4,367c <number+0x100>
    3658:	fff80713          	add	a4,a6,-1
    365c:	011800a3          	sb	a7,1(a6)
    3660:	00377713          	and	a4,a4,3
    3664:	00280f13          	add	t5,a6,2
    3668:	ffd68e93          	add	t4,a3,-3
    366c:	00071863          	bnez	a4,367c <number+0x100>
    3670:	00380f13          	add	t5,a6,3
    3674:	01180123          	sb	a7,2(a6)
    3678:	ffc68e93          	add	t4,a3,-4
    367c:	40f684b3          	sub	s1,a3,a5
    3680:	ffc4f893          	and	a7,s1,-4
    3684:	00f807b3          	add	a5,a6,a5
    3688:	20202737          	lui	a4,0x20202
    368c:	00f888b3          	add	a7,a7,a5
    3690:	02070713          	add	a4,a4,32 # 20202020 <start_time_val+0x201fc950>
    3694:	00e7a023          	sw	a4,0(a5)
    3698:	00478793          	add	a5,a5,4
    369c:	fef89ce3          	bne	a7,a5,3694 <number+0x118>
    36a0:	ffc4f713          	and	a4,s1,-4
    36a4:	0034f493          	and	s1,s1,3
    36a8:	00ef07b3          	add	a5,t5,a4
    36ac:	40ee8eb3          	sub	t4,t4,a4
    36b0:	04048263          	beqz	s1,36f4 <number+0x178>
    36b4:	02000713          	li	a4,32
    36b8:	00e78023          	sb	a4,0(a5)
    36bc:	03d05c63          	blez	t4,36f4 <number+0x178>
    36c0:	00e780a3          	sb	a4,1(a5)
    36c4:	00100893          	li	a7,1
    36c8:	031e8663          	beq	t4,a7,36f4 <number+0x178>
    36cc:	00e78123          	sb	a4,2(a5)
    36d0:	00200893          	li	a7,2
    36d4:	031e8063          	beq	t4,a7,36f4 <number+0x178>
    36d8:	00e781a3          	sb	a4,3(a5)
    36dc:	00300893          	li	a7,3
    36e0:	011e8a63          	beq	t4,a7,36f4 <number+0x178>
    36e4:	00e78223          	sb	a4,4(a5)
    36e8:	00400893          	li	a7,4
    36ec:	011e8463          	beq	t4,a7,36f4 <number+0x178>
    36f0:	00e782a3          	sb	a4,5(a5)
    36f4:	00d80833          	add	a6,a6,a3
    36f8:	fff00693          	li	a3,-1
    36fc:	00040663          	beqz	s0,3708 <number+0x18c>
    3700:	00880023          	sb	s0,0(a6)
    3704:	00180813          	add	a6,a6,1
    3708:	00038a63          	beqz	t2,371c <number+0x1a0>
    370c:	00800793          	li	a5,8
    3710:	38f60063          	beq	a2,a5,3a90 <number+0x514>
    3714:	01000793          	li	a5,16
    3718:	34f60a63          	beq	a2,a5,3a6c <number+0x4f0>
    371c:	0e029463          	bnez	t0,3804 <number+0x288>
    3720:	fff68893          	add	a7,a3,-1
    3724:	3ad05463          	blez	a3,3acc <number+0x550>
    3728:	41000733          	neg	a4,a6
    372c:	00500613          	li	a2,5
    3730:	00377793          	and	a5,a4,3
    3734:	3b167063          	bgeu	a2,a7,3ad4 <number+0x558>
    3738:	00080e93          	mv	t4,a6
    373c:	02078e63          	beqz	a5,3778 <number+0x1fc>
    3740:	01f80023          	sb	t6,0(a6)
    3744:	00277713          	and	a4,a4,2
    3748:	00180e93          	add	t4,a6,1
    374c:	ffe68893          	add	a7,a3,-2
    3750:	02070463          	beqz	a4,3778 <number+0x1fc>
    3754:	fff80713          	add	a4,a6,-1
    3758:	01f800a3          	sb	t6,1(a6)
    375c:	00377713          	and	a4,a4,3
    3760:	00280e93          	add	t4,a6,2
    3764:	ffd68893          	add	a7,a3,-3
    3768:	00071863          	bnez	a4,3778 <number+0x1fc>
    376c:	00380e93          	add	t4,a6,3
    3770:	01f80123          	sb	t6,2(a6)
    3774:	ffc68893          	add	a7,a3,-4
    3778:	008f9713          	sll	a4,t6,0x8
    377c:	40f68f33          	sub	t5,a3,a5
    3780:	010f9613          	sll	a2,t6,0x10
    3784:	00efe733          	or	a4,t6,a4
    3788:	00c76733          	or	a4,a4,a2
    378c:	018f9293          	sll	t0,t6,0x18
    3790:	00f807b3          	add	a5,a6,a5
    3794:	ffcf7613          	and	a2,t5,-4
    3798:	00576733          	or	a4,a4,t0
    379c:	00f60633          	add	a2,a2,a5
    37a0:	00e7a023          	sw	a4,0(a5)
    37a4:	00478793          	add	a5,a5,4
    37a8:	fec79ce3          	bne	a5,a2,37a0 <number+0x224>
    37ac:	ffcf7713          	and	a4,t5,-4
    37b0:	003f7f13          	and	t5,t5,3
    37b4:	00ee87b3          	add	a5,t4,a4
    37b8:	40e888b3          	sub	a7,a7,a4
    37bc:	040f0063          	beqz	t5,37fc <number+0x280>
    37c0:	01f78023          	sb	t6,0(a5)
    37c4:	03105c63          	blez	a7,37fc <number+0x280>
    37c8:	01f780a3          	sb	t6,1(a5)
    37cc:	00100713          	li	a4,1
    37d0:	02e88663          	beq	a7,a4,37fc <number+0x280>
    37d4:	01f78123          	sb	t6,2(a5)
    37d8:	00200713          	li	a4,2
    37dc:	02e88063          	beq	a7,a4,37fc <number+0x280>
    37e0:	01f781a3          	sb	t6,3(a5)
    37e4:	00300713          	li	a4,3
    37e8:	00e88a63          	beq	a7,a4,37fc <number+0x280>
    37ec:	01f78223          	sb	t6,4(a5)
    37f0:	00400713          	li	a4,4
    37f4:	00e88463          	beq	a7,a4,37fc <number+0x280>
    37f8:	01f782a3          	sb	t6,5(a5)
    37fc:	00d80833          	add	a6,a6,a3
    3800:	fff00693          	li	a3,-1
    3804:	fffe0893          	add	a7,t3,-1
    3808:	0dc55e63          	bge	a0,t3,38e4 <number+0x368>
    380c:	40ae0f33          	sub	t5,t3,a0
    3810:	41000733          	neg	a4,a6
    3814:	ffff0e93          	add	t4,t5,-1
    3818:	00500613          	li	a2,5
    381c:	00377793          	and	a5,a4,3
    3820:	29d67e63          	bgeu	a2,t4,3abc <number+0x540>
    3824:	00080e93          	mv	t4,a6
    3828:	04078063          	beqz	a5,3868 <number+0x2ec>
    382c:	03000613          	li	a2,48
    3830:	00c80023          	sb	a2,0(a6)
    3834:	00277713          	and	a4,a4,2
    3838:	00180e93          	add	t4,a6,1
    383c:	ffee0893          	add	a7,t3,-2
    3840:	02070463          	beqz	a4,3868 <number+0x2ec>
    3844:	fff80713          	add	a4,a6,-1
    3848:	00c800a3          	sb	a2,1(a6)
    384c:	00377713          	and	a4,a4,3
    3850:	00280e93          	add	t4,a6,2
    3854:	ffde0893          	add	a7,t3,-3
    3858:	00071863          	bnez	a4,3868 <number+0x2ec>
    385c:	00380e93          	add	t4,a6,3
    3860:	00c80123          	sb	a2,2(a6)
    3864:	ffce0893          	add	a7,t3,-4
    3868:	40ff0e33          	sub	t3,t5,a5
    386c:	ffce7613          	and	a2,t3,-4
    3870:	00f807b3          	add	a5,a6,a5
    3874:	30303737          	lui	a4,0x30303
    3878:	00f60633          	add	a2,a2,a5
    387c:	03070713          	add	a4,a4,48 # 30303030 <start_time_val+0x302fd960>
    3880:	00e7a023          	sw	a4,0(a5)
    3884:	00478793          	add	a5,a5,4
    3888:	fef61ce3          	bne	a2,a5,3880 <number+0x304>
    388c:	003e7793          	and	a5,t3,3
    3890:	04078863          	beqz	a5,38e0 <number+0x364>
    3894:	ffce7e13          	and	t3,t3,-4
    3898:	01ce87b3          	add	a5,t4,t3
    389c:	41c888b3          	sub	a7,a7,t3
    38a0:	03000713          	li	a4,48
    38a4:	00e78023          	sb	a4,0(a5)
    38a8:	fff88613          	add	a2,a7,-1
    38ac:	03155a63          	bge	a0,a7,38e0 <number+0x364>
    38b0:	00e780a3          	sb	a4,1(a5)
    38b4:	ffe88e13          	add	t3,a7,-2
    38b8:	02c55463          	bge	a0,a2,38e0 <number+0x364>
    38bc:	00e78123          	sb	a4,2(a5)
    38c0:	ffd88613          	add	a2,a7,-3
    38c4:	01c55e63          	bge	a0,t3,38e0 <number+0x364>
    38c8:	00e781a3          	sb	a4,3(a5)
    38cc:	ffc88893          	add	a7,a7,-4
    38d0:	00c55863          	bge	a0,a2,38e0 <number+0x364>
    38d4:	00e78223          	sb	a4,4(a5)
    38d8:	01155463          	bge	a0,a7,38e0 <number+0x364>
    38dc:	00e782a3          	sb	a4,5(a5)
    38e0:	01e80833          	add	a6,a6,t5
    38e4:	00b307b3          	add	a5,t1,a1
    38e8:	00080713          	mv	a4,a6
    38ec:	0007c503          	lbu	a0,0(a5)
    38f0:	00078613          	mv	a2,a5
    38f4:	00170713          	add	a4,a4,1
    38f8:	fea70fa3          	sb	a0,-1(a4)
    38fc:	fff78793          	add	a5,a5,-1
    3900:	fec316e3          	bne	t1,a2,38ec <number+0x370>
    3904:	00158593          	add	a1,a1,1
    3908:	00b80533          	add	a0,a6,a1
    390c:	fff68613          	add	a2,a3,-1
    3910:	0cd05463          	blez	a3,39d8 <number+0x45c>
    3914:	40a00733          	neg	a4,a0
    3918:	00500893          	li	a7,5
    391c:	00377793          	and	a5,a4,3
    3920:	18c8fa63          	bgeu	a7,a2,3ab4 <number+0x538>
    3924:	00050893          	mv	a7,a0
    3928:	02078863          	beqz	a5,3958 <number+0x3dc>
    392c:	02000613          	li	a2,32
    3930:	00c50023          	sb	a2,0(a0)
    3934:	00277713          	and	a4,a4,2
    3938:	14070663          	beqz	a4,3a84 <number+0x508>
    393c:	fff50713          	add	a4,a0,-1
    3940:	00c500a3          	sb	a2,1(a0)
    3944:	00377713          	and	a4,a4,3
    3948:	16071063          	bnez	a4,3aa8 <number+0x52c>
    394c:	00c50123          	sb	a2,2(a0)
    3950:	00350893          	add	a7,a0,3
    3954:	ffc68613          	add	a2,a3,-4
    3958:	40f68333          	sub	t1,a3,a5
    395c:	00b787b3          	add	a5,a5,a1
    3960:	00f805b3          	add	a1,a6,a5
    3964:	ffc37713          	and	a4,t1,-4
    3968:	202027b7          	lui	a5,0x20202
    396c:	00b70733          	add	a4,a4,a1
    3970:	02078793          	add	a5,a5,32 # 20202020 <start_time_val+0x201fc950>
    3974:	00f5a023          	sw	a5,0(a1)
    3978:	00458593          	add	a1,a1,4
    397c:	fee59ce3          	bne	a1,a4,3974 <number+0x3f8>
    3980:	00337793          	and	a5,t1,3
    3984:	04078863          	beqz	a5,39d4 <number+0x458>
    3988:	ffc37313          	and	t1,t1,-4
    398c:	006887b3          	add	a5,a7,t1
    3990:	40660633          	sub	a2,a2,t1
    3994:	02000713          	li	a4,32
    3998:	00e78023          	sb	a4,0(a5)
    399c:	02c05c63          	blez	a2,39d4 <number+0x458>
    39a0:	00e780a3          	sb	a4,1(a5)
    39a4:	00100593          	li	a1,1
    39a8:	02b60663          	beq	a2,a1,39d4 <number+0x458>
    39ac:	00e78123          	sb	a4,2(a5)
    39b0:	00200593          	li	a1,2
    39b4:	02b60063          	beq	a2,a1,39d4 <number+0x458>
    39b8:	00e781a3          	sb	a4,3(a5)
    39bc:	00300593          	li	a1,3
    39c0:	00b60a63          	beq	a2,a1,39d4 <number+0x458>
    39c4:	00e78223          	sb	a4,4(a5)
    39c8:	00400593          	li	a1,4
    39cc:	00b60463          	beq	a2,a1,39d4 <number+0x458>
    39d0:	00e782a3          	sb	a4,5(a5)
    39d4:	00d50533          	add	a0,a0,a3
    39d8:	05c12403          	lw	s0,92(sp)
    39dc:	05812483          	lw	s1,88(sp)
    39e0:	06010113          	add	sp,sp,96
    39e4:	00008067          	ret
    39e8:	00005f37          	lui	t5,0x5
    39ec:	0107f293          	and	t0,a5,16
    39f0:	3f4f0f13          	add	t5,t5,1012 # 53f4 <ee_printf+0x18e8>
    39f4:	ba0288e3          	beqz	t0,35a4 <number+0x28>
    39f8:	ffe7f793          	and	a5,a5,-2
    39fc:	00028493          	mv	s1,t0
    3a00:	0027f513          	and	a0,a5,2
    3a04:	02000f93          	li	t6,32
    3a08:	0207f393          	and	t2,a5,32
    3a0c:	ba051ae3          	bnez	a0,35c0 <number+0x44>
    3a10:	00000413          	li	s0,0
    3a14:	bcdff06f          	j	35e0 <number+0x64>
    3a18:	40b005b3          	neg	a1,a1
    3a1c:	fff68693          	add	a3,a3,-1
    3a20:	02d00413          	li	s0,45
    3a24:	bc0390e3          	bnez	t2,35e4 <number+0x68>
    3a28:	00058793          	mv	a5,a1
    3a2c:	00000513          	li	a0,0
    3a30:	00c10313          	add	t1,sp,12
    3a34:	02c7f8b3          	remu	a7,a5,a2
    3a38:	00050593          	mv	a1,a0
    3a3c:	00150513          	add	a0,a0,1
    3a40:	00a30eb3          	add	t4,t1,a0
    3a44:	00078e13          	mv	t3,a5
    3a48:	011f08b3          	add	a7,t5,a7
    3a4c:	0008c883          	lbu	a7,0(a7)
    3a50:	02c7d7b3          	divu	a5,a5,a2
    3a54:	ff1e8fa3          	sb	a7,-1(t4)
    3a58:	fcce7ee3          	bgeu	t3,a2,3a34 <number+0x4b8>
    3a5c:	bb1ff06f          	j	360c <number+0x90>
    3a60:	fff68693          	add	a3,a3,-1
    3a64:	02b00413          	li	s0,43
    3a68:	b79ff06f          	j	35e0 <number+0x64>
    3a6c:	03000793          	li	a5,48
    3a70:	00f80023          	sb	a5,0(a6)
    3a74:	07800793          	li	a5,120
    3a78:	00f800a3          	sb	a5,1(a6)
    3a7c:	00280813          	add	a6,a6,2
    3a80:	c9dff06f          	j	371c <number+0x1a0>
    3a84:	00150893          	add	a7,a0,1
    3a88:	ffe68613          	add	a2,a3,-2
    3a8c:	ecdff06f          	j	3958 <number+0x3dc>
    3a90:	03000793          	li	a5,48
    3a94:	00f80023          	sb	a5,0(a6)
    3a98:	00180813          	add	a6,a6,1
    3a9c:	c81ff06f          	j	371c <number+0x1a0>
    3aa0:	ffe68693          	add	a3,a3,-2
    3aa4:	b55ff06f          	j	35f8 <number+0x7c>
    3aa8:	00250893          	add	a7,a0,2
    3aac:	ffd68613          	add	a2,a3,-3
    3ab0:	ea9ff06f          	j	3958 <number+0x3dc>
    3ab4:	00050793          	mv	a5,a0
    3ab8:	eddff06f          	j	3994 <number+0x418>
    3abc:	00080793          	mv	a5,a6
    3ac0:	de1ff06f          	j	38a0 <number+0x324>
    3ac4:	000e8693          	mv	a3,t4
    3ac8:	c35ff06f          	j	36fc <number+0x180>
    3acc:	00088693          	mv	a3,a7
    3ad0:	d35ff06f          	j	3804 <number+0x288>
    3ad4:	00080793          	mv	a5,a6
    3ad8:	ce9ff06f          	j	37c0 <number+0x244>
    3adc:	00080793          	mv	a5,a6
    3ae0:	bd5ff06f          	j	36b4 <number+0x138>

00003ae4 <uart_send_char>:
    3ae4:	ff0006b7          	lui	a3,0xff000
    3ae8:	1006c783          	lbu	a5,256(a3) # ff000100 <start_time_val+0xfeffaa30>
    3aec:	00178713          	add	a4,a5,1
    3af0:	00f687b3          	add	a5,a3,a5
    3af4:	0ff77713          	zext.b	a4,a4
    3af8:	00a78023          	sb	a0,0(a5)
    3afc:	10e68023          	sb	a4,256(a3)
    3b00:	1046c783          	lbu	a5,260(a3)
    3b04:	fee79ee3          	bne	a5,a4,3b00 <uart_send_char+0x1c>
    3b08:	00008067          	ret

00003b0c <ee_printf>:
    3b0c:	b8010113          	add	sp,sp,-1152
    3b10:	45212823          	sw	s2,1104(sp)
    3b14:	44112e23          	sw	ra,1116(sp)
    3b18:	44812c23          	sw	s0,1112(sp)
    3b1c:	44912a23          	sw	s1,1108(sp)
    3b20:	45312623          	sw	s3,1100(sp)
    3b24:	45412423          	sw	s4,1096(sp)
    3b28:	45512223          	sw	s5,1092(sp)
    3b2c:	45612023          	sw	s6,1088(sp)
    3b30:	43712e23          	sw	s7,1084(sp)
    3b34:	43812c23          	sw	s8,1080(sp)
    3b38:	43912a23          	sw	s9,1076(sp)
    3b3c:	43a12823          	sw	s10,1072(sp)
    3b40:	43b12623          	sw	s11,1068(sp)
    3b44:	46b12223          	sw	a1,1124(sp)
    3b48:	46c12423          	sw	a2,1128(sp)
    3b4c:	46d12623          	sw	a3,1132(sp)
    3b50:	46e12823          	sw	a4,1136(sp)
    3b54:	46f12a23          	sw	a5,1140(sp)
    3b58:	47012c23          	sw	a6,1144(sp)
    3b5c:	47112e23          	sw	a7,1148(sp)
    3b60:	00054783          	lbu	a5,0(a0)
    3b64:	46410913          	add	s2,sp,1124
    3b68:	01212223          	sw	s2,4(sp)
    3b6c:	00079463          	bnez	a5,3b74 <ee_printf+0x68>
    3b70:	0040106f          	j	4b74 <ee_printf+0x1068>
    3b74:	02010493          	add	s1,sp,32
    3b78:	000059b7          	lui	s3,0x5
    3b7c:	00050313          	mv	t1,a0
    3b80:	02500a13          	li	s4,37
    3b84:	00048513          	mv	a0,s1
    3b88:	01000413          	li	s0,16
    3b8c:	4a498993          	add	s3,s3,1188 # 54a4 <errpat+0x28>
    3b90:	00900b93          	li	s7,9
    3b94:	02e00b13          	li	s6,46
    3b98:	04c00a93          	li	s5,76
    3b9c:	07478063          	beq	a5,s4,3bfc <ee_printf+0xf0>
    3ba0:	00f50023          	sb	a5,0(a0)
    3ba4:	00134783          	lbu	a5,1(t1)
    3ba8:	00150513          	add	a0,a0,1
    3bac:	00130313          	add	t1,t1,1
    3bb0:	fe0796e3          	bnez	a5,3b9c <ee_printf+0x90>
    3bb4:	00050023          	sb	zero,0(a0)
    3bb8:	02014583          	lbu	a1,32(sp)
    3bbc:	7a0588e3          	beqz	a1,4b6c <ee_printf+0x1060>
    3bc0:	00048613          	mv	a2,s1
    3bc4:	ff0006b7          	lui	a3,0xff000
    3bc8:	1006c783          	lbu	a5,256(a3) # ff000100 <start_time_val+0xfeffaa30>
    3bcc:	00178713          	add	a4,a5,1
    3bd0:	00f687b3          	add	a5,a3,a5
    3bd4:	0ff77713          	zext.b	a4,a4
    3bd8:	00b78023          	sb	a1,0(a5)
    3bdc:	10e68023          	sb	a4,256(a3)
    3be0:	1046c783          	lbu	a5,260(a3)
    3be4:	fef71ee3          	bne	a4,a5,3be0 <ee_printf+0xd4>
    3be8:	00164583          	lbu	a1,1(a2)
    3bec:	00160793          	add	a5,a2,1
    3bf0:	12058463          	beqz	a1,3d18 <ee_printf+0x20c>
    3bf4:	00078613          	mv	a2,a5
    3bf8:	fd1ff06f          	j	3bc8 <ee_printf+0xbc>
    3bfc:	00000793          	li	a5,0
    3c00:	00134603          	lbu	a2,1(t1)
    3c04:	00130593          	add	a1,t1,1
    3c08:	fe060713          	add	a4,a2,-32
    3c0c:	0ff77713          	zext.b	a4,a4
    3c10:	00e46a63          	bltu	s0,a4,3c24 <ee_printf+0x118>
    3c14:	00271713          	sll	a4,a4,0x2
    3c18:	01370733          	add	a4,a4,s3
    3c1c:	00072703          	lw	a4,0(a4)
    3c20:	00070067          	jr	a4
    3c24:	fd060713          	add	a4,a2,-48
    3c28:	0ff77713          	zext.b	a4,a4
    3c2c:	14ebfe63          	bgeu	s7,a4,3d88 <ee_printf+0x27c>
    3c30:	02a00713          	li	a4,42
    3c34:	fff00693          	li	a3,-1
    3c38:	18e60263          	beq	a2,a4,3dbc <ee_printf+0x2b0>
    3c3c:	fff00713          	li	a4,-1
    3c40:	11660e63          	beq	a2,s6,3d5c <ee_printf+0x250>
    3c44:	0df67813          	and	a6,a2,223
    3c48:	09580e63          	beq	a6,s5,3ce4 <ee_printf+0x1d8>
    3c4c:	fbf60813          	add	a6,a2,-65
    3c50:	0ff87813          	zext.b	a6,a6
    3c54:	03700893          	li	a7,55
    3c58:	0508ec63          	bltu	a7,a6,3cb0 <ee_printf+0x1a4>
    3c5c:	000058b7          	lui	a7,0x5
    3c60:	00281813          	sll	a6,a6,0x2
    3c64:	4e888893          	add	a7,a7,1256 # 54e8 <errpat+0x6c>
    3c68:	01180833          	add	a6,a6,a7
    3c6c:	00082803          	lw	a6,0(a6)
    3c70:	00080067          	jr	a6
    3c74:	0017e793          	or	a5,a5,1
    3c78:	00058313          	mv	t1,a1
    3c7c:	f85ff06f          	j	3c00 <ee_printf+0xf4>
    3c80:	0107e793          	or	a5,a5,16
    3c84:	00058313          	mv	t1,a1
    3c88:	f79ff06f          	j	3c00 <ee_printf+0xf4>
    3c8c:	0047e793          	or	a5,a5,4
    3c90:	00058313          	mv	t1,a1
    3c94:	f6dff06f          	j	3c00 <ee_printf+0xf4>
    3c98:	0207e793          	or	a5,a5,32
    3c9c:	00058313          	mv	t1,a1
    3ca0:	f61ff06f          	j	3c00 <ee_printf+0xf4>
    3ca4:	0087e793          	or	a5,a5,8
    3ca8:	00058313          	mv	t1,a1
    3cac:	f55ff06f          	j	3c00 <ee_printf+0xf4>
    3cb0:	00058c13          	mv	s8,a1
    3cb4:	02500793          	li	a5,37
    3cb8:	00f60a63          	beq	a2,a5,3ccc <ee_printf+0x1c0>
    3cbc:	00f50023          	sb	a5,0(a0)
    3cc0:	000c4603          	lbu	a2,0(s8)
    3cc4:	00150513          	add	a0,a0,1
    3cc8:	ee0606e3          	beqz	a2,3bb4 <ee_printf+0xa8>
    3ccc:	00c50023          	sb	a2,0(a0)
    3cd0:	001c4783          	lbu	a5,1(s8)
    3cd4:	001c0313          	add	t1,s8,1
    3cd8:	00150513          	add	a0,a0,1
    3cdc:	ec0790e3          	bnez	a5,3b9c <ee_printf+0x90>
    3ce0:	ed5ff06f          	j	3bb4 <ee_printf+0xa8>
    3ce4:	00060313          	mv	t1,a2
    3ce8:	0015c603          	lbu	a2,1(a1)
    3cec:	03700893          	li	a7,55
    3cf0:	00158c13          	add	s8,a1,1
    3cf4:	fbf60813          	add	a6,a2,-65
    3cf8:	0ff87813          	zext.b	a6,a6
    3cfc:	fb08ece3          	bltu	a7,a6,3cb4 <ee_printf+0x1a8>
    3d00:	000058b7          	lui	a7,0x5
    3d04:	00281813          	sll	a6,a6,0x2
    3d08:	5c888893          	add	a7,a7,1480 # 55c8 <errpat+0x14c>
    3d0c:	01180833          	add	a6,a6,a7
    3d10:	00082803          	lw	a6,0(a6)
    3d14:	00080067          	jr	a6
    3d18:	40960633          	sub	a2,a2,s1
    3d1c:	00160513          	add	a0,a2,1
    3d20:	45c12083          	lw	ra,1116(sp)
    3d24:	45812403          	lw	s0,1112(sp)
    3d28:	45412483          	lw	s1,1108(sp)
    3d2c:	45012903          	lw	s2,1104(sp)
    3d30:	44c12983          	lw	s3,1100(sp)
    3d34:	44812a03          	lw	s4,1096(sp)
    3d38:	44412a83          	lw	s5,1092(sp)
    3d3c:	44012b03          	lw	s6,1088(sp)
    3d40:	43c12b83          	lw	s7,1084(sp)
    3d44:	43812c03          	lw	s8,1080(sp)
    3d48:	43412c83          	lw	s9,1076(sp)
    3d4c:	43012d03          	lw	s10,1072(sp)
    3d50:	42c12d83          	lw	s11,1068(sp)
    3d54:	48010113          	add	sp,sp,1152
    3d58:	00008067          	ret
    3d5c:	0015c603          	lbu	a2,1(a1)
    3d60:	00900893          	li	a7,9
    3d64:	00158813          	add	a6,a1,1
    3d68:	fd060713          	add	a4,a2,-48
    3d6c:	0ff77713          	zext.b	a4,a4
    3d70:	78e8f663          	bgeu	a7,a4,44fc <ee_printf+0x9f0>
    3d74:	02a00713          	li	a4,42
    3d78:	7ae60c63          	beq	a2,a4,4530 <ee_printf+0xa24>
    3d7c:	00080593          	mv	a1,a6
    3d80:	00000713          	li	a4,0
    3d84:	ec1ff06f          	j	3c44 <ee_printf+0x138>
    3d88:	00000693          	li	a3,0
    3d8c:	00900813          	li	a6,9
    3d90:	00269713          	sll	a4,a3,0x2
    3d94:	00d70733          	add	a4,a4,a3
    3d98:	00158593          	add	a1,a1,1
    3d9c:	00171713          	sll	a4,a4,0x1
    3da0:	00c70733          	add	a4,a4,a2
    3da4:	0005c603          	lbu	a2,0(a1)
    3da8:	fd070693          	add	a3,a4,-48
    3dac:	fd060713          	add	a4,a2,-48
    3db0:	0ff77713          	zext.b	a4,a4
    3db4:	fce87ee3          	bgeu	a6,a4,3d90 <ee_printf+0x284>
    3db8:	e85ff06f          	j	3c3c <ee_printf+0x130>
    3dbc:	00092683          	lw	a3,0(s2)
    3dc0:	00234603          	lbu	a2,2(t1)
    3dc4:	00230593          	add	a1,t1,2
    3dc8:	00490913          	add	s2,s2,4
    3dcc:	e606d8e3          	bgez	a3,3c3c <ee_printf+0x130>
    3dd0:	40d006b3          	neg	a3,a3
    3dd4:	0107e793          	or	a5,a5,16
    3dd8:	e65ff06f          	j	3c3c <ee_printf+0x130>
    3ddc:	0407e793          	or	a5,a5,64
    3de0:	06c00713          	li	a4,108
    3de4:	76e30663          	beq	t1,a4,4550 <ee_printf+0xa44>
    3de8:	00092803          	lw	a6,0(s2)
    3dec:	00490913          	add	s2,s2,4
    3df0:	00084703          	lbu	a4,0(a6)
    3df4:	260716e3          	bnez	a4,4860 <ee_printf+0xd54>
    3df8:	03000713          	li	a4,48
    3dfc:	00100593          	li	a1,1
    3e00:	00e10423          	sb	a4,8(sp)
    3e04:	42058613          	add	a2,a1,1056
    3e08:	00184703          	lbu	a4,1(a6)
    3e0c:	00260333          	add	t1,a2,sp
    3e10:	02e00613          	li	a2,46
    3e14:	bec30423          	sb	a2,-1048(t1)
    3e18:	00200893          	li	a7,2
    3e1c:	2c0700e3          	beqz	a4,48dc <ee_printf+0xdd0>
    3e20:	06300613          	li	a2,99
    3e24:	60e65ae3          	bge	a2,a4,4c38 <ee_printf+0x112c>
    3e28:	06400e13          	li	t3,100
    3e2c:	03c76f33          	rem	t5,a4,t3
    3e30:	00a00e93          	li	t4,10
    3e34:	42088893          	add	a7,a7,1056
    3e38:	00288fb3          	add	t6,a7,sp
    3e3c:	00358893          	add	a7,a1,3
    3e40:	00005637          	lui	a2,0x5
    3e44:	3f460613          	add	a2,a2,1012 # 53f4 <ee_printf+0x18e8>
    3e48:	03c74733          	div	a4,a4,t3
    3e4c:	03df45b3          	div	a1,t5,t4
    3e50:	00e60733          	add	a4,a2,a4
    3e54:	00074703          	lbu	a4,0(a4)
    3e58:	beef8423          	sb	a4,-1048(t6)
    3e5c:	00b60733          	add	a4,a2,a1
    3e60:	00074583          	lbu	a1,0(a4)
    3e64:	03df6733          	rem	a4,t5,t4
    3e68:	beb30523          	sb	a1,-1046(t1)
    3e6c:	00e60733          	add	a4,a2,a4
    3e70:	00074583          	lbu	a1,0(a4)
    3e74:	42088713          	add	a4,a7,1056
    3e78:	00270633          	add	a2,a4,sp
    3e7c:	beb60423          	sb	a1,-1048(a2)
    3e80:	00188713          	add	a4,a7,1
    3e84:	42070613          	add	a2,a4,1056
    3e88:	00284583          	lbu	a1,2(a6)
    3e8c:	00260333          	add	t1,a2,sp
    3e90:	02e00613          	li	a2,46
    3e94:	bec30423          	sb	a2,-1048(t1)
    3e98:	00170893          	add	a7,a4,1
    3e9c:	260588e3          	beqz	a1,490c <ee_printf+0xe00>
    3ea0:	06300613          	li	a2,99
    3ea4:	54b65ee3          	bge	a2,a1,4c00 <ee_printf+0x10f4>
    3ea8:	06400e13          	li	t3,100
    3eac:	42088893          	add	a7,a7,1056
    3eb0:	00288fb3          	add	t6,a7,sp
    3eb4:	00370893          	add	a7,a4,3
    3eb8:	00a00e93          	li	t4,10
    3ebc:	00005637          	lui	a2,0x5
    3ec0:	3f460613          	add	a2,a2,1012 # 53f4 <ee_printf+0x18e8>
    3ec4:	03c5ef33          	rem	t5,a1,t3
    3ec8:	03c5c733          	div	a4,a1,t3
    3ecc:	03df45b3          	div	a1,t5,t4
    3ed0:	00e60733          	add	a4,a2,a4
    3ed4:	00074703          	lbu	a4,0(a4)
    3ed8:	beef8423          	sb	a4,-1048(t6)
    3edc:	00b60733          	add	a4,a2,a1
    3ee0:	03df65b3          	rem	a1,t5,t4
    3ee4:	00074703          	lbu	a4,0(a4)
    3ee8:	bee30523          	sb	a4,-1046(t1)
    3eec:	00b605b3          	add	a1,a2,a1
    3ef0:	0005c583          	lbu	a1,0(a1)
    3ef4:	42088713          	add	a4,a7,1056
    3ef8:	00270633          	add	a2,a4,sp
    3efc:	beb60423          	sb	a1,-1048(a2)
    3f00:	00188713          	add	a4,a7,1
    3f04:	42070613          	add	a2,a4,1056
    3f08:	00384583          	lbu	a1,3(a6)
    3f0c:	002608b3          	add	a7,a2,sp
    3f10:	02e00613          	li	a2,46
    3f14:	bec88423          	sb	a2,-1048(a7)
    3f18:	00170813          	add	a6,a4,1
    3f1c:	220580e3          	beqz	a1,493c <ee_printf+0xe30>
    3f20:	06300613          	li	a2,99
    3f24:	58b658e3          	bge	a2,a1,4cb4 <ee_printf+0x11a8>
    3f28:	06400313          	li	t1,100
    3f2c:	42080813          	add	a6,a6,1056
    3f30:	00280f33          	add	t5,a6,sp
    3f34:	00370813          	add	a6,a4,3
    3f38:	00a00e13          	li	t3,10
    3f3c:	00005637          	lui	a2,0x5
    3f40:	3f460613          	add	a2,a2,1012 # 53f4 <ee_printf+0x18e8>
    3f44:	0265eeb3          	rem	t4,a1,t1
    3f48:	0265c733          	div	a4,a1,t1
    3f4c:	03cec5b3          	div	a1,t4,t3
    3f50:	00e60733          	add	a4,a2,a4
    3f54:	00074703          	lbu	a4,0(a4)
    3f58:	beef0423          	sb	a4,-1048(t5)
    3f5c:	00b60733          	add	a4,a2,a1
    3f60:	03cee5b3          	rem	a1,t4,t3
    3f64:	00074703          	lbu	a4,0(a4)
    3f68:	bee88523          	sb	a4,-1046(a7)
    3f6c:	00b605b3          	add	a1,a2,a1
    3f70:	0005c583          	lbu	a1,0(a1)
    3f74:	42080713          	add	a4,a6,1056
    3f78:	00270633          	add	a2,a4,sp
    3f7c:	beb60423          	sb	a1,-1048(a2)
    3f80:	00180713          	add	a4,a6,1
    3f84:	0107f793          	and	a5,a5,16
    3f88:	0c079c63          	bnez	a5,4060 <ee_printf+0x554>
    3f8c:	fff68813          	add	a6,a3,-1
    3f90:	74d754e3          	bge	a4,a3,4ed8 <ee_printf+0x13cc>
    3f94:	40e68333          	sub	t1,a3,a4
    3f98:	40a005b3          	neg	a1,a0
    3f9c:	fff30893          	add	a7,t1,-1
    3fa0:	00500613          	li	a2,5
    3fa4:	0035f793          	and	a5,a1,3
    3fa8:	731674e3          	bgeu	a2,a7,4ed0 <ee_printf+0x13c4>
    3fac:	00050613          	mv	a2,a0
    3fb0:	02078863          	beqz	a5,3fe0 <ee_printf+0x4d4>
    3fb4:	02000813          	li	a6,32
    3fb8:	01050023          	sb	a6,0(a0)
    3fbc:	0025f593          	and	a1,a1,2
    3fc0:	66058ce3          	beqz	a1,4e38 <ee_printf+0x132c>
    3fc4:	fff50613          	add	a2,a0,-1
    3fc8:	010500a3          	sb	a6,1(a0)
    3fcc:	00367613          	and	a2,a2,3
    3fd0:	5e0610e3          	bnez	a2,4db0 <ee_printf+0x12a4>
    3fd4:	01050123          	sb	a6,2(a0)
    3fd8:	00350613          	add	a2,a0,3
    3fdc:	ffc68813          	add	a6,a3,-4
    3fe0:	40f308b3          	sub	a7,t1,a5
    3fe4:	ffc8f593          	and	a1,a7,-4
    3fe8:	00f507b3          	add	a5,a0,a5
    3fec:	202026b7          	lui	a3,0x20202
    3ff0:	00f585b3          	add	a1,a1,a5
    3ff4:	02068693          	add	a3,a3,32 # 20202020 <start_time_val+0x201fc950>
    3ff8:	00d7a023          	sw	a3,0(a5)
    3ffc:	00478793          	add	a5,a5,4
    4000:	fef59ce3          	bne	a1,a5,3ff8 <ee_printf+0x4ec>
    4004:	0038f793          	and	a5,a7,3
    4008:	04078863          	beqz	a5,4058 <ee_printf+0x54c>
    400c:	ffc8f893          	and	a7,a7,-4
    4010:	011607b3          	add	a5,a2,a7
    4014:	41180833          	sub	a6,a6,a7
    4018:	02000693          	li	a3,32
    401c:	00d78023          	sb	a3,0(a5)
    4020:	fff80613          	add	a2,a6,-1
    4024:	03075a63          	bge	a4,a6,4058 <ee_printf+0x54c>
    4028:	00d780a3          	sb	a3,1(a5)
    402c:	ffe80593          	add	a1,a6,-2
    4030:	02c75463          	bge	a4,a2,4058 <ee_printf+0x54c>
    4034:	00d78123          	sb	a3,2(a5)
    4038:	ffd80613          	add	a2,a6,-3
    403c:	00b75e63          	bge	a4,a1,4058 <ee_printf+0x54c>
    4040:	00d781a3          	sb	a3,3(a5)
    4044:	ffc80813          	add	a6,a6,-4
    4048:	00c75863          	bge	a4,a2,4058 <ee_printf+0x54c>
    404c:	00d78223          	sb	a3,4(a5)
    4050:	01075463          	bge	a4,a6,4058 <ee_printf+0x54c>
    4054:	00d782a3          	sb	a3,5(a5)
    4058:	00650533          	add	a0,a0,t1
    405c:	fff70693          	add	a3,a4,-1
    4060:	00357793          	and	a5,a0,3
    4064:	30078ee3          	beqz	a5,4b80 <ee_printf+0x1074>
    4068:	00e14783          	lbu	a5,14(sp)
    406c:	00814e03          	lbu	t3,8(sp)
    4070:	00914303          	lbu	t1,9(sp)
    4074:	00a14883          	lbu	a7,10(sp)
    4078:	00b14803          	lbu	a6,11(sp)
    407c:	00c14583          	lbu	a1,12(sp)
    4080:	00d14603          	lbu	a2,13(sp)
    4084:	00f50323          	sb	a5,6(a0)
    4088:	01c50023          	sb	t3,0(a0)
    408c:	006500a3          	sb	t1,1(a0)
    4090:	01150123          	sb	a7,2(a0)
    4094:	010501a3          	sb	a6,3(a0)
    4098:	00b50223          	sb	a1,4(a0)
    409c:	00c502a3          	sb	a2,5(a0)
    40a0:	00700793          	li	a5,7
    40a4:	06f70e63          	beq	a4,a5,4120 <ee_printf+0x614>
    40a8:	00f14603          	lbu	a2,15(sp)
    40ac:	00800793          	li	a5,8
    40b0:	00c503a3          	sb	a2,7(a0)
    40b4:	06f70663          	beq	a4,a5,4120 <ee_printf+0x614>
    40b8:	01014603          	lbu	a2,16(sp)
    40bc:	00900793          	li	a5,9
    40c0:	00c50423          	sb	a2,8(a0)
    40c4:	04f70e63          	beq	a4,a5,4120 <ee_printf+0x614>
    40c8:	01114603          	lbu	a2,17(sp)
    40cc:	00a00793          	li	a5,10
    40d0:	00c504a3          	sb	a2,9(a0)
    40d4:	04f70663          	beq	a4,a5,4120 <ee_printf+0x614>
    40d8:	01214603          	lbu	a2,18(sp)
    40dc:	00b00793          	li	a5,11
    40e0:	00c50523          	sb	a2,10(a0)
    40e4:	02f70e63          	beq	a4,a5,4120 <ee_printf+0x614>
    40e8:	01314603          	lbu	a2,19(sp)
    40ec:	00c00793          	li	a5,12
    40f0:	00c505a3          	sb	a2,11(a0)
    40f4:	02f70663          	beq	a4,a5,4120 <ee_printf+0x614>
    40f8:	01414603          	lbu	a2,20(sp)
    40fc:	00d00793          	li	a5,13
    4100:	00c50623          	sb	a2,12(a0)
    4104:	00f70e63          	beq	a4,a5,4120 <ee_printf+0x614>
    4108:	01514603          	lbu	a2,21(sp)
    410c:	00f00793          	li	a5,15
    4110:	00c506a3          	sb	a2,13(a0)
    4114:	00f71663          	bne	a4,a5,4120 <ee_printf+0x614>
    4118:	01614783          	lbu	a5,22(sp)
    411c:	00f50723          	sb	a5,14(a0)
    4120:	00e508b3          	add	a7,a0,a4
    4124:	fff68313          	add	t1,a3,-1
    4128:	50d754e3          	bge	a4,a3,4e30 <ee_printf+0x1324>
    412c:	40e68833          	sub	a6,a3,a4
    4130:	41100633          	neg	a2,a7
    4134:	fff80e13          	add	t3,a6,-1
    4138:	00500593          	li	a1,5
    413c:	00367793          	and	a5,a2,3
    4140:	07c5f863          	bgeu	a1,t3,41b0 <ee_printf+0x6a4>
    4144:	02078863          	beqz	a5,4174 <ee_printf+0x668>
    4148:	02000593          	li	a1,32
    414c:	00b88023          	sb	a1,0(a7)
    4150:	00267613          	and	a2,a2,2
    4154:	38060ce3          	beqz	a2,4cec <ee_printf+0x11e0>
    4158:	fff88613          	add	a2,a7,-1
    415c:	00b880a3          	sb	a1,1(a7)
    4160:	00367613          	and	a2,a2,3
    4164:	4a0614e3          	bnez	a2,4e0c <ee_printf+0x1300>
    4168:	00b88123          	sb	a1,2(a7)
    416c:	ffc68313          	add	t1,a3,-4
    4170:	00388893          	add	a7,a7,3
    4174:	40f80833          	sub	a6,a6,a5
    4178:	00e787b3          	add	a5,a5,a4
    417c:	00f507b3          	add	a5,a0,a5
    4180:	ffc87593          	and	a1,a6,-4
    4184:	20202637          	lui	a2,0x20202
    4188:	00f585b3          	add	a1,a1,a5
    418c:	02060613          	add	a2,a2,32 # 20202020 <start_time_val+0x201fc950>
    4190:	00c7a023          	sw	a2,0(a5)
    4194:	00478793          	add	a5,a5,4
    4198:	feb79ce3          	bne	a5,a1,4190 <ee_printf+0x684>
    419c:	ffc87793          	and	a5,a6,-4
    41a0:	00387813          	and	a6,a6,3
    41a4:	00f888b3          	add	a7,a7,a5
    41a8:	40f30333          	sub	t1,t1,a5
    41ac:	04080263          	beqz	a6,41f0 <ee_printf+0x6e4>
    41b0:	02000613          	li	a2,32
    41b4:	00c88023          	sb	a2,0(a7)
    41b8:	fff30593          	add	a1,t1,-1
    41bc:	02675a63          	bge	a4,t1,41f0 <ee_printf+0x6e4>
    41c0:	00c880a3          	sb	a2,1(a7)
    41c4:	ffe30793          	add	a5,t1,-2
    41c8:	02b75463          	bge	a4,a1,41f0 <ee_printf+0x6e4>
    41cc:	00c88123          	sb	a2,2(a7)
    41d0:	ffd30593          	add	a1,t1,-3
    41d4:	00f75e63          	bge	a4,a5,41f0 <ee_printf+0x6e4>
    41d8:	00c881a3          	sb	a2,3(a7)
    41dc:	ffc30793          	add	a5,t1,-4
    41e0:	00b75863          	bge	a4,a1,41f0 <ee_printf+0x6e4>
    41e4:	00c88223          	sb	a2,4(a7)
    41e8:	00f75463          	bge	a4,a5,41f0 <ee_printf+0x6e4>
    41ec:	00c882a3          	sb	a2,5(a7)
    41f0:	00d50533          	add	a0,a0,a3
    41f4:	01c0006f          	j	4210 <ee_printf+0x704>
    41f8:	0407e793          	or	a5,a5,64
    41fc:	01000613          	li	a2,16
    4200:	00490813          	add	a6,s2,4
    4204:	00092583          	lw	a1,0(s2)
    4208:	00080913          	mv	s2,a6
    420c:	b70ff0ef          	jal	357c <number>
    4210:	001c4783          	lbu	a5,1(s8)
    4214:	001c0313          	add	t1,s8,1
    4218:	980792e3          	bnez	a5,3b9c <ee_printf+0x90>
    421c:	999ff06f          	j	3bb4 <ee_printf+0xa8>
    4220:	00058c13          	mv	s8,a1
    4224:	0107f793          	and	a5,a5,16
    4228:	00490813          	add	a6,s2,4
    422c:	001c0313          	add	t1,s8,1
    4230:	72078863          	beqz	a5,4960 <ee_printf+0xe54>
    4234:	00092783          	lw	a5,0(s2)
    4238:	fff68e13          	add	t3,a3,-1
    423c:	00150893          	add	a7,a0,1
    4240:	00f50023          	sb	a5,0(a0)
    4244:	4fc05ae3          	blez	t3,4f38 <ee_printf+0x142c>
    4248:	41100733          	neg	a4,a7
    424c:	ffe68613          	add	a2,a3,-2
    4250:	00500e93          	li	t4,5
    4254:	000e0593          	mv	a1,t3
    4258:	00377793          	and	a5,a4,3
    425c:	06ced663          	bge	t4,a2,42c8 <ee_printf+0x7bc>
    4260:	02078663          	beqz	a5,428c <ee_printf+0x780>
    4264:	02000e13          	li	t3,32
    4268:	01c500a3          	sb	t3,1(a0)
    426c:	00277713          	and	a4,a4,2
    4270:	380708e3          	beqz	a4,4e00 <ee_printf+0x12f4>
    4274:	01c50123          	sb	t3,2(a0)
    4278:	00357713          	and	a4,a0,3
    427c:	3a0714e3          	bnez	a4,4e24 <ee_printf+0x1318>
    4280:	01c501a3          	sb	t3,3(a0)
    4284:	00450893          	add	a7,a0,4
    4288:	ffc68e13          	add	t3,a3,-4
    428c:	40f585b3          	sub	a1,a1,a5
    4290:	00178793          	add	a5,a5,1
    4294:	00f507b3          	add	a5,a0,a5
    4298:	ffc5f613          	and	a2,a1,-4
    429c:	20202737          	lui	a4,0x20202
    42a0:	00f60633          	add	a2,a2,a5
    42a4:	02070713          	add	a4,a4,32 # 20202020 <start_time_val+0x201fc950>
    42a8:	00e7a023          	sw	a4,0(a5)
    42ac:	00478793          	add	a5,a5,4
    42b0:	fec79ce3          	bne	a5,a2,42a8 <ee_printf+0x79c>
    42b4:	ffc5f793          	and	a5,a1,-4
    42b8:	0035f593          	and	a1,a1,3
    42bc:	00f888b3          	add	a7,a7,a5
    42c0:	40fe0e33          	sub	t3,t3,a5
    42c4:	04058463          	beqz	a1,430c <ee_printf+0x800>
    42c8:	02000793          	li	a5,32
    42cc:	00f88023          	sb	a5,0(a7)
    42d0:	00100713          	li	a4,1
    42d4:	03c75c63          	bge	a4,t3,430c <ee_printf+0x800>
    42d8:	00f880a3          	sb	a5,1(a7)
    42dc:	00200713          	li	a4,2
    42e0:	02ee0663          	beq	t3,a4,430c <ee_printf+0x800>
    42e4:	00f88123          	sb	a5,2(a7)
    42e8:	00300713          	li	a4,3
    42ec:	02ee0063          	beq	t3,a4,430c <ee_printf+0x800>
    42f0:	00f881a3          	sb	a5,3(a7)
    42f4:	00400713          	li	a4,4
    42f8:	00ee0a63          	beq	t3,a4,430c <ee_printf+0x800>
    42fc:	00f88223          	sb	a5,4(a7)
    4300:	00500713          	li	a4,5
    4304:	00ee0463          	beq	t3,a4,430c <ee_printf+0x800>
    4308:	00f882a3          	sb	a5,5(a7)
    430c:	001c4783          	lbu	a5,1(s8)
    4310:	00d50533          	add	a0,a0,a3
    4314:	00080913          	mv	s2,a6
    4318:	880792e3          	bnez	a5,3b9c <ee_printf+0x90>
    431c:	899ff06f          	j	3bb4 <ee_printf+0xa8>
    4320:	00058c13          	mv	s8,a1
    4324:	00092803          	lw	a6,0(s2)
    4328:	00490913          	add	s2,s2,4
    432c:	72080463          	beqz	a6,4a54 <ee_printf+0xf48>
    4330:	00084603          	lbu	a2,0(a6)
    4334:	220606e3          	beqz	a2,4d60 <ee_printf+0x1254>
    4338:	220704e3          	beqz	a4,4d60 <ee_printf+0x1254>
    433c:	00080613          	mv	a2,a6
    4340:	00c0006f          	j	434c <ee_printf+0x840>
    4344:	40e605b3          	sub	a1,a2,a4
    4348:	01058863          	beq	a1,a6,4358 <ee_printf+0x84c>
    434c:	00164583          	lbu	a1,1(a2)
    4350:	00160613          	add	a2,a2,1
    4354:	fe0598e3          	bnez	a1,4344 <ee_printf+0x838>
    4358:	0107f793          	and	a5,a5,16
    435c:	41060633          	sub	a2,a2,a6
    4360:	70078063          	beqz	a5,4a60 <ee_printf+0xf54>
    4364:	08c05663          	blez	a2,43f0 <ee_printf+0x8e4>
    4368:	fff60793          	add	a5,a2,-1
    436c:	00600713          	li	a4,6
    4370:	7cf77a63          	bgeu	a4,a5,4b44 <ee_printf+0x1038>
    4374:	010567b3          	or	a5,a0,a6
    4378:	0037f793          	and	a5,a5,3
    437c:	7c079463          	bnez	a5,4b44 <ee_printf+0x1038>
    4380:	00180793          	add	a5,a6,1
    4384:	40f50733          	sub	a4,a0,a5
    4388:	00373713          	sltiu	a4,a4,3
    438c:	7a071e63          	bnez	a4,4b48 <ee_printf+0x103c>
    4390:	ffc67893          	and	a7,a2,-4
    4394:	00080793          	mv	a5,a6
    4398:	00050713          	mv	a4,a0
    439c:	010888b3          	add	a7,a7,a6
    43a0:	0007a583          	lw	a1,0(a5)
    43a4:	00478793          	add	a5,a5,4
    43a8:	00470713          	add	a4,a4,4
    43ac:	feb72e23          	sw	a1,-4(a4)
    43b0:	fef898e3          	bne	a7,a5,43a0 <ee_printf+0x894>
    43b4:	ffc67793          	and	a5,a2,-4
    43b8:	00f80833          	add	a6,a6,a5
    43bc:	00f50733          	add	a4,a0,a5
    43c0:	02f60663          	beq	a2,a5,43ec <ee_printf+0x8e0>
    43c4:	00084883          	lbu	a7,0(a6)
    43c8:	00178593          	add	a1,a5,1
    43cc:	01170023          	sb	a7,0(a4)
    43d0:	00c5de63          	bge	a1,a2,43ec <ee_printf+0x8e0>
    43d4:	00184583          	lbu	a1,1(a6)
    43d8:	00278793          	add	a5,a5,2
    43dc:	00b700a3          	sb	a1,1(a4)
    43e0:	00c7d663          	bge	a5,a2,43ec <ee_printf+0x8e0>
    43e4:	00284783          	lbu	a5,2(a6)
    43e8:	00f70123          	sb	a5,2(a4)
    43ec:	00c50533          	add	a0,a0,a2
    43f0:	fff68813          	add	a6,a3,-1
    43f4:	001c0313          	add	t1,s8,1
    43f8:	2ad654e3          	bge	a2,a3,4ea0 <ee_printf+0x1394>
    43fc:	40c68e33          	sub	t3,a3,a2
    4400:	40a00733          	neg	a4,a0
    4404:	fffe0893          	add	a7,t3,-1
    4408:	00500593          	li	a1,5
    440c:	00377793          	and	a5,a4,3
    4410:	2d15f8e3          	bgeu	a1,a7,4ee0 <ee_printf+0x13d4>
    4414:	00050593          	mv	a1,a0
    4418:	02078863          	beqz	a5,4448 <ee_printf+0x93c>
    441c:	02000813          	li	a6,32
    4420:	01050023          	sb	a6,0(a0)
    4424:	00277713          	and	a4,a4,2
    4428:	1c0706e3          	beqz	a4,4df4 <ee_printf+0x12e8>
    442c:	fff50713          	add	a4,a0,-1
    4430:	010500a3          	sb	a6,1(a0)
    4434:	00377713          	and	a4,a4,3
    4438:	200716e3          	bnez	a4,4e44 <ee_printf+0x1338>
    443c:	01050123          	sb	a6,2(a0)
    4440:	00350593          	add	a1,a0,3
    4444:	ffc68813          	add	a6,a3,-4
    4448:	40fe08b3          	sub	a7,t3,a5
    444c:	ffc8f693          	and	a3,a7,-4
    4450:	00f507b3          	add	a5,a0,a5
    4454:	20202737          	lui	a4,0x20202
    4458:	00f686b3          	add	a3,a3,a5
    445c:	02070713          	add	a4,a4,32 # 20202020 <start_time_val+0x201fc950>
    4460:	00e7a023          	sw	a4,0(a5)
    4464:	00478793          	add	a5,a5,4
    4468:	fed79ce3          	bne	a5,a3,4460 <ee_printf+0x954>
    446c:	0038f793          	and	a5,a7,3
    4470:	04078863          	beqz	a5,44c0 <ee_printf+0x9b4>
    4474:	ffc8f893          	and	a7,a7,-4
    4478:	011587b3          	add	a5,a1,a7
    447c:	41180833          	sub	a6,a6,a7
    4480:	02000693          	li	a3,32
    4484:	00d78023          	sb	a3,0(a5)
    4488:	fff80593          	add	a1,a6,-1
    448c:	03065a63          	bge	a2,a6,44c0 <ee_printf+0x9b4>
    4490:	00d780a3          	sb	a3,1(a5)
    4494:	ffe80713          	add	a4,a6,-2
    4498:	02b65463          	bge	a2,a1,44c0 <ee_printf+0x9b4>
    449c:	00d78123          	sb	a3,2(a5)
    44a0:	ffd80593          	add	a1,a6,-3
    44a4:	00e65e63          	bge	a2,a4,44c0 <ee_printf+0x9b4>
    44a8:	00d781a3          	sb	a3,3(a5)
    44ac:	ffc80713          	add	a4,a6,-4
    44b0:	00b65863          	bge	a2,a1,44c0 <ee_printf+0x9b4>
    44b4:	00d78223          	sb	a3,4(a5)
    44b8:	00e65463          	bge	a2,a4,44c0 <ee_printf+0x9b4>
    44bc:	00d782a3          	sb	a3,5(a5)
    44c0:	001c4783          	lbu	a5,1(s8)
    44c4:	01c50533          	add	a0,a0,t3
    44c8:	ec079a63          	bnez	a5,3b9c <ee_printf+0x90>
    44cc:	ee8ff06f          	j	3bb4 <ee_printf+0xa8>
    44d0:	00058c13          	mv	s8,a1
    44d4:	fff00613          	li	a2,-1
    44d8:	46c68e63          	beq	a3,a2,4954 <ee_printf+0xe48>
    44dc:	00092583          	lw	a1,0(s2)
    44e0:	01000613          	li	a2,16
    44e4:	00490913          	add	s2,s2,4
    44e8:	894ff0ef          	jal	357c <number>
    44ec:	001c4783          	lbu	a5,1(s8)
    44f0:	001c0313          	add	t1,s8,1
    44f4:	ea079463          	bnez	a5,3b9c <ee_printf+0x90>
    44f8:	ebcff06f          	j	3bb4 <ee_printf+0xa8>
    44fc:	00000713          	li	a4,0
    4500:	00271593          	sll	a1,a4,0x2
    4504:	00e58733          	add	a4,a1,a4
    4508:	00180813          	add	a6,a6,1
    450c:	00171713          	sll	a4,a4,0x1
    4510:	00c70733          	add	a4,a4,a2
    4514:	00084603          	lbu	a2,0(a6)
    4518:	fd070713          	add	a4,a4,-48
    451c:	fd060593          	add	a1,a2,-48
    4520:	0ff5f593          	zext.b	a1,a1
    4524:	fcb8fee3          	bgeu	a7,a1,4500 <ee_printf+0x9f4>
    4528:	00080593          	mv	a1,a6
    452c:	f18ff06f          	j	3c44 <ee_printf+0x138>
    4530:	00092703          	lw	a4,0(s2)
    4534:	0025c603          	lbu	a2,2(a1)
    4538:	00490913          	add	s2,s2,4
    453c:	fff74813          	not	a6,a4
    4540:	41f85813          	sra	a6,a6,0x1f
    4544:	01077733          	and	a4,a4,a6
    4548:	00258593          	add	a1,a1,2
    454c:	ef8ff06f          	j	3c44 <ee_printf+0x138>
    4550:	0407f713          	and	a4,a5,64
    4554:	74070a63          	beqz	a4,4ca8 <ee_printf+0x119c>
    4558:	00005637          	lui	a2,0x5
    455c:	41c60613          	add	a2,a2,1052 # 541c <ee_printf+0x1910>
    4560:	00092703          	lw	a4,0(s2)
    4564:	03a00c13          	li	s8,58
    4568:	01810523          	sb	s8,10(sp)
    456c:	00074803          	lbu	a6,0(a4)
    4570:	00474383          	lbu	t2,4(a4)
    4574:	00174f03          	lbu	t5,1(a4)
    4578:	00274e03          	lbu	t3,2(a4)
    457c:	00374883          	lbu	a7,3(a4)
    4580:	00574c83          	lbu	s9,5(a4)
    4584:	00f87713          	and	a4,a6,15
    4588:	00e60733          	add	a4,a2,a4
    458c:	00485813          	srl	a6,a6,0x4
    4590:	00074d83          	lbu	s11,0(a4)
    4594:	01060833          	add	a6,a2,a6
    4598:	004f5293          	srl	t0,t5,0x4
    459c:	004e5f93          	srl	t6,t3,0x4
    45a0:	0048de93          	srl	t4,a7,0x4
    45a4:	0043d313          	srl	t1,t2,0x4
    45a8:	00f3f713          	and	a4,t2,15
    45ac:	00ff7f13          	and	t5,t5,15
    45b0:	00fe7e13          	and	t3,t3,15
    45b4:	00f8f893          	and	a7,a7,15
    45b8:	00084d03          	lbu	s10,0(a6)
    45bc:	005602b3          	add	t0,a2,t0
    45c0:	01e60f33          	add	t5,a2,t5
    45c4:	01c60e33          	add	t3,a2,t3
    45c8:	011608b3          	add	a7,a2,a7
    45cc:	00e60733          	add	a4,a2,a4
    45d0:	01f60fb3          	add	t6,a2,t6
    45d4:	01d60eb3          	add	t4,a2,t4
    45d8:	00660333          	add	t1,a2,t1
    45dc:	004cd813          	srl	a6,s9,0x4
    45e0:	0002c383          	lbu	t2,0(t0)
    45e4:	000fcf83          	lbu	t6,0(t6)
    45e8:	000f4283          	lbu	t0,0(t5)
    45ec:	000ece83          	lbu	t4,0(t4)
    45f0:	000e4f03          	lbu	t5,0(t3)
    45f4:	00034303          	lbu	t1,0(t1)
    45f8:	0008ce03          	lbu	t3,0(a7)
    45fc:	01060833          	add	a6,a2,a6
    4600:	00074883          	lbu	a7,0(a4)
    4604:	00084803          	lbu	a6,0(a6)
    4608:	008d9d93          	sll	s11,s11,0x8
    460c:	01bd6d33          	or	s10,s10,s11
    4610:	00fcfc93          	and	s9,s9,15
    4614:	01a11423          	sh	s10,8(sp)
    4618:	007105a3          	sb	t2,11(sp)
    461c:	00510623          	sb	t0,12(sp)
    4620:	018106a3          	sb	s8,13(sp)
    4624:	01f10723          	sb	t6,14(sp)
    4628:	01e107a3          	sb	t5,15(sp)
    462c:	01810823          	sb	s8,16(sp)
    4630:	01d108a3          	sb	t4,17(sp)
    4634:	01c10923          	sb	t3,18(sp)
    4638:	018109a3          	sb	s8,19(sp)
    463c:	00610a23          	sb	t1,20(sp)
    4640:	01110aa3          	sb	a7,21(sp)
    4644:	01810b23          	sb	s8,22(sp)
    4648:	01960733          	add	a4,a2,s9
    464c:	0107f793          	and	a5,a5,16
    4650:	01010ba3          	sb	a6,23(sp)
    4654:	00074603          	lbu	a2,0(a4)
    4658:	0e079063          	bnez	a5,4738 <ee_printf+0xc2c>
    465c:	01100793          	li	a5,17
    4660:	fff68c13          	add	s8,a3,-1
    4664:	0cd7d0e3          	bge	a5,a3,4f24 <ee_printf+0x1418>
    4668:	40a00d33          	neg	s10,a0
    466c:	fee68713          	add	a4,a3,-18
    4670:	00500d93          	li	s11,5
    4674:	fef68c93          	add	s9,a3,-17
    4678:	003d7793          	and	a5,s10,3
    467c:	06edfce3          	bgeu	s11,a4,4ef4 <ee_printf+0x13e8>
    4680:	00050713          	mv	a4,a0
    4684:	02078863          	beqz	a5,46b4 <ee_printf+0xba8>
    4688:	02000c13          	li	s8,32
    468c:	01850023          	sb	s8,0(a0)
    4690:	002d7713          	and	a4,s10,2
    4694:	04070ae3          	beqz	a4,4ee8 <ee_printf+0x13dc>
    4698:	fff50713          	add	a4,a0,-1
    469c:	018500a3          	sb	s8,1(a0)
    46a0:	00377713          	and	a4,a4,3
    46a4:	04071ce3          	bnez	a4,4efc <ee_printf+0x13f0>
    46a8:	01850123          	sb	s8,2(a0)
    46ac:	00350713          	add	a4,a0,3
    46b0:	ffc68c13          	add	s8,a3,-4
    46b4:	40fc86b3          	sub	a3,s9,a5
    46b8:	ffc6fd93          	and	s11,a3,-4
    46bc:	00f507b3          	add	a5,a0,a5
    46c0:	20202d37          	lui	s10,0x20202
    46c4:	00fd8db3          	add	s11,s11,a5
    46c8:	020d0d13          	add	s10,s10,32 # 20202020 <start_time_val+0x201fc950>
    46cc:	01a7a023          	sw	s10,0(a5)
    46d0:	00478793          	add	a5,a5,4
    46d4:	fefd9ce3          	bne	s11,a5,46cc <ee_printf+0xbc0>
    46d8:	0036f793          	and	a5,a3,3
    46dc:	04078a63          	beqz	a5,4730 <ee_printf+0xc24>
    46e0:	ffc6f693          	and	a3,a3,-4
    46e4:	00d707b3          	add	a5,a4,a3
    46e8:	40dc0c33          	sub	s8,s8,a3
    46ec:	02000713          	li	a4,32
    46f0:	00e78023          	sb	a4,0(a5)
    46f4:	01100693          	li	a3,17
    46f8:	0386dc63          	bge	a3,s8,4730 <ee_printf+0xc24>
    46fc:	00e780a3          	sb	a4,1(a5)
    4700:	01200693          	li	a3,18
    4704:	02dc0663          	beq	s8,a3,4730 <ee_printf+0xc24>
    4708:	00e78123          	sb	a4,2(a5)
    470c:	01300693          	li	a3,19
    4710:	02dc0063          	beq	s8,a3,4730 <ee_printf+0xc24>
    4714:	00e781a3          	sb	a4,3(a5)
    4718:	01400693          	li	a3,20
    471c:	00dc0a63          	beq	s8,a3,4730 <ee_printf+0xc24>
    4720:	00e78223          	sb	a4,4(a5)
    4724:	01500693          	li	a3,21
    4728:	00dc0463          	beq	s8,a3,4730 <ee_printf+0xc24>
    472c:	00e782a3          	sb	a4,5(a5)
    4730:	01950533          	add	a0,a0,s9
    4734:	01000693          	li	a3,16
    4738:	00357793          	and	a5,a0,3
    473c:	70079a63          	bnez	a5,4e50 <ee_printf+0x1344>
    4740:	00c12783          	lw	a5,12(sp)
    4744:	00f52223          	sw	a5,4(a0)
    4748:	01012783          	lw	a5,16(sp)
    474c:	00f52423          	sw	a5,8(a0)
    4750:	00812783          	lw	a5,8(sp)
    4754:	00f52023          	sw	a5,0(a0)
    4758:	01412783          	lw	a5,20(sp)
    475c:	00f52623          	sw	a5,12(a0)
    4760:	00c50823          	sb	a2,16(a0)
    4764:	01100793          	li	a5,17
    4768:	01150813          	add	a6,a0,17
    476c:	fff68893          	add	a7,a3,-1
    4770:	74d7dc63          	bge	a5,a3,4ec8 <ee_printf+0x13bc>
    4774:	41000733          	neg	a4,a6
    4778:	fee68613          	add	a2,a3,-18
    477c:	00500e13          	li	t3,5
    4780:	fef68313          	add	t1,a3,-17
    4784:	00377793          	and	a5,a4,3
    4788:	06ce7e63          	bgeu	t3,a2,4804 <ee_printf+0xcf8>
    478c:	02078e63          	beqz	a5,47c8 <ee_printf+0xcbc>
    4790:	02000613          	li	a2,32
    4794:	00c508a3          	sb	a2,17(a0)
    4798:	00277713          	and	a4,a4,2
    479c:	01250813          	add	a6,a0,18
    47a0:	ffe68893          	add	a7,a3,-2
    47a4:	02070263          	beqz	a4,47c8 <ee_printf+0xcbc>
    47a8:	00c50923          	sb	a2,18(a0)
    47ac:	00357713          	and	a4,a0,3
    47b0:	01350813          	add	a6,a0,19
    47b4:	ffd68893          	add	a7,a3,-3
    47b8:	00071863          	bnez	a4,47c8 <ee_printf+0xcbc>
    47bc:	01450813          	add	a6,a0,20
    47c0:	00c509a3          	sb	a2,19(a0)
    47c4:	ffc68893          	add	a7,a3,-4
    47c8:	40f30333          	sub	t1,t1,a5
    47cc:	01178793          	add	a5,a5,17
    47d0:	00f507b3          	add	a5,a0,a5
    47d4:	ffc37613          	and	a2,t1,-4
    47d8:	20202737          	lui	a4,0x20202
    47dc:	00f60633          	add	a2,a2,a5
    47e0:	02070713          	add	a4,a4,32 # 20202020 <start_time_val+0x201fc950>
    47e4:	00e7a023          	sw	a4,0(a5)
    47e8:	00478793          	add	a5,a5,4
    47ec:	fec79ce3          	bne	a5,a2,47e4 <ee_printf+0xcd8>
    47f0:	ffc37793          	and	a5,t1,-4
    47f4:	00337313          	and	t1,t1,3
    47f8:	00f80833          	add	a6,a6,a5
    47fc:	40f888b3          	sub	a7,a7,a5
    4800:	04030463          	beqz	t1,4848 <ee_printf+0xd3c>
    4804:	02000793          	li	a5,32
    4808:	00f80023          	sb	a5,0(a6)
    480c:	01100713          	li	a4,17
    4810:	03175c63          	bge	a4,a7,4848 <ee_printf+0xd3c>
    4814:	00f800a3          	sb	a5,1(a6)
    4818:	01200713          	li	a4,18
    481c:	02e88663          	beq	a7,a4,4848 <ee_printf+0xd3c>
    4820:	00f80123          	sb	a5,2(a6)
    4824:	01300713          	li	a4,19
    4828:	02e88063          	beq	a7,a4,4848 <ee_printf+0xd3c>
    482c:	00f801a3          	sb	a5,3(a6)
    4830:	01400713          	li	a4,20
    4834:	00e88a63          	beq	a7,a4,4848 <ee_printf+0xd3c>
    4838:	00f80223          	sb	a5,4(a6)
    483c:	01500713          	li	a4,21
    4840:	00e88463          	beq	a7,a4,4848 <ee_printf+0xd3c>
    4844:	00f802a3          	sb	a5,5(a6)
    4848:	00d50533          	add	a0,a0,a3
    484c:	0025c783          	lbu	a5,2(a1)
    4850:	00490913          	add	s2,s2,4
    4854:	00258313          	add	t1,a1,2
    4858:	b4079263          	bnez	a5,3b9c <ee_printf+0x90>
    485c:	b58ff06f          	j	3bb4 <ee_printf+0xa8>
    4860:	06300613          	li	a2,99
    4864:	40e65663          	bge	a2,a4,4c70 <ee_printf+0x1164>
    4868:	06400313          	li	t1,100
    486c:	02676fb3          	rem	t6,a4,t1
    4870:	00a00f13          	li	t5,10
    4874:	00005637          	lui	a2,0x5
    4878:	3f460613          	add	a2,a2,1012 # 53f4 <ee_printf+0x18e8>
    487c:	00400893          	li	a7,4
    4880:	00300593          	li	a1,3
    4884:	00200e13          	li	t3,2
    4888:	03efceb3          	div	t4,t6,t5
    488c:	02674733          	div	a4,a4,t1
    4890:	01d60333          	add	t1,a2,t4
    4894:	00034e83          	lbu	t4,0(t1)
    4898:	008e9e93          	sll	t4,t4,0x8
    489c:	00e60733          	add	a4,a2,a4
    48a0:	00074303          	lbu	t1,0(a4)
    48a4:	03efe733          	rem	a4,t6,t5
    48a8:	01d36333          	or	t1,t1,t4
    48ac:	00611423          	sh	t1,8(sp)
    48b0:	00e60733          	add	a4,a2,a4
    48b4:	00074703          	lbu	a4,0(a4)
    48b8:	420e0613          	add	a2,t3,1056
    48bc:	00260e33          	add	t3,a2,sp
    48c0:	beee0423          	sb	a4,-1048(t3)
    48c4:	42058613          	add	a2,a1,1056
    48c8:	00184703          	lbu	a4,1(a6)
    48cc:	00260333          	add	t1,a2,sp
    48d0:	02e00613          	li	a2,46
    48d4:	bec30423          	sb	a2,-1048(t1)
    48d8:	d4071463          	bnez	a4,3e20 <ee_printf+0x314>
    48dc:	42088713          	add	a4,a7,1056
    48e0:	00270633          	add	a2,a4,sp
    48e4:	00258713          	add	a4,a1,2
    48e8:	03000593          	li	a1,48
    48ec:	beb60423          	sb	a1,-1048(a2)
    48f0:	00284583          	lbu	a1,2(a6)
    48f4:	42070613          	add	a2,a4,1056
    48f8:	00260333          	add	t1,a2,sp
    48fc:	02e00613          	li	a2,46
    4900:	bec30423          	sb	a2,-1048(t1)
    4904:	00170893          	add	a7,a4,1
    4908:	d8059c63          	bnez	a1,3ea0 <ee_printf+0x394>
    490c:	42088613          	add	a2,a7,1056
    4910:	00260633          	add	a2,a2,sp
    4914:	03000593          	li	a1,48
    4918:	beb60423          	sb	a1,-1048(a2)
    491c:	00270713          	add	a4,a4,2
    4920:	42070613          	add	a2,a4,1056
    4924:	00384583          	lbu	a1,3(a6)
    4928:	002608b3          	add	a7,a2,sp
    492c:	02e00613          	li	a2,46
    4930:	bec88423          	sb	a2,-1048(a7)
    4934:	00170813          	add	a6,a4,1
    4938:	de059463          	bnez	a1,3f20 <ee_printf+0x414>
    493c:	42080613          	add	a2,a6,1056
    4940:	00260633          	add	a2,a2,sp
    4944:	03000593          	li	a1,48
    4948:	00270713          	add	a4,a4,2
    494c:	beb60423          	sb	a1,-1048(a2)
    4950:	e34ff06f          	j	3f84 <ee_printf+0x478>
    4954:	0017e793          	or	a5,a5,1
    4958:	00800693          	li	a3,8
    495c:	b81ff06f          	j	44dc <ee_printf+0x9d0>
    4960:	00100793          	li	a5,1
    4964:	46d7d863          	bge	a5,a3,4dd4 <ee_printf+0x12c8>
    4968:	fff68613          	add	a2,a3,-1
    496c:	40a005b3          	neg	a1,a0
    4970:	ffe68893          	add	a7,a3,-2
    4974:	00500713          	li	a4,5
    4978:	00060e93          	mv	t4,a2
    497c:	0035f793          	and	a5,a1,3
    4980:	59175a63          	bge	a4,a7,4f14 <ee_printf+0x1408>
    4984:	00050713          	mv	a4,a0
    4988:	02078863          	beqz	a5,49b8 <ee_printf+0xeac>
    498c:	02000613          	li	a2,32
    4990:	00c50023          	sb	a2,0(a0)
    4994:	0025f593          	and	a1,a1,2
    4998:	52058263          	beqz	a1,4ebc <ee_printf+0x13b0>
    499c:	fff50713          	add	a4,a0,-1
    49a0:	00c500a3          	sb	a2,1(a0)
    49a4:	00377713          	and	a4,a4,3
    49a8:	56071063          	bnez	a4,4f08 <ee_printf+0x13fc>
    49ac:	00c50123          	sb	a2,2(a0)
    49b0:	00350713          	add	a4,a0,3
    49b4:	ffc68613          	add	a2,a3,-4
    49b8:	40fe85b3          	sub	a1,t4,a5
    49bc:	ffc5fe13          	and	t3,a1,-4
    49c0:	00f507b3          	add	a5,a0,a5
    49c4:	202028b7          	lui	a7,0x20202
    49c8:	00fe0e33          	add	t3,t3,a5
    49cc:	02088893          	add	a7,a7,32 # 20202020 <start_time_val+0x201fc950>
    49d0:	0117a023          	sw	a7,0(a5)
    49d4:	00478793          	add	a5,a5,4
    49d8:	fefe1ce3          	bne	t3,a5,49d0 <ee_printf+0xec4>
    49dc:	ffc5f893          	and	a7,a1,-4
    49e0:	0035f593          	and	a1,a1,3
    49e4:	011707b3          	add	a5,a4,a7
    49e8:	41160633          	sub	a2,a2,a7
    49ec:	04058463          	beqz	a1,4a34 <ee_printf+0xf28>
    49f0:	02000713          	li	a4,32
    49f4:	00e78023          	sb	a4,0(a5)
    49f8:	00100593          	li	a1,1
    49fc:	02c5dc63          	bge	a1,a2,4a34 <ee_printf+0xf28>
    4a00:	00e780a3          	sb	a4,1(a5)
    4a04:	00200593          	li	a1,2
    4a08:	02b60663          	beq	a2,a1,4a34 <ee_printf+0xf28>
    4a0c:	00e78123          	sb	a4,2(a5)
    4a10:	00300593          	li	a1,3
    4a14:	02b60063          	beq	a2,a1,4a34 <ee_printf+0xf28>
    4a18:	00e781a3          	sb	a4,3(a5)
    4a1c:	00400593          	li	a1,4
    4a20:	00b60a63          	beq	a2,a1,4a34 <ee_printf+0xf28>
    4a24:	00e78223          	sb	a4,4(a5)
    4a28:	00500593          	li	a1,5
    4a2c:	00b60463          	beq	a2,a1,4a34 <ee_printf+0xf28>
    4a30:	00e782a3          	sb	a4,5(a5)
    4a34:	00092783          	lw	a5,0(s2)
    4a38:	01d50eb3          	add	t4,a0,t4
    4a3c:	00d50533          	add	a0,a0,a3
    4a40:	00fe8023          	sb	a5,0(t4)
    4a44:	001c4783          	lbu	a5,1(s8)
    4a48:	00080913          	mv	s2,a6
    4a4c:	94079863          	bnez	a5,3b9c <ee_printf+0x90>
    4a50:	964ff06f          	j	3bb4 <ee_printf+0xa8>
    4a54:	00005837          	lui	a6,0x5
    4a58:	44480813          	add	a6,a6,1092 # 5444 <ee_printf+0x1938>
    4a5c:	8ddff06f          	j	4338 <ee_printf+0x82c>
    4a60:	fff68593          	add	a1,a3,-1
    4a64:	36d65463          	bge	a2,a3,4dcc <ee_printf+0x12c0>
    4a68:	40c68e33          	sub	t3,a3,a2
    4a6c:	40a008b3          	neg	a7,a0
    4a70:	fffe0313          	add	t1,t3,-1
    4a74:	00500713          	li	a4,5
    4a78:	0038f793          	and	a5,a7,3
    4a7c:	4a677063          	bgeu	a4,t1,4f1c <ee_printf+0x1410>
    4a80:	00050713          	mv	a4,a0
    4a84:	02078863          	beqz	a5,4ab4 <ee_printf+0xfa8>
    4a88:	02000593          	li	a1,32
    4a8c:	00b50023          	sb	a1,0(a0)
    4a90:	0028f893          	and	a7,a7,2
    4a94:	40088e63          	beqz	a7,4eb0 <ee_printf+0x13a4>
    4a98:	fff50713          	add	a4,a0,-1
    4a9c:	00b500a3          	sb	a1,1(a0)
    4aa0:	00377713          	and	a4,a4,3
    4aa4:	48071463          	bnez	a4,4f2c <ee_printf+0x1420>
    4aa8:	00b50123          	sb	a1,2(a0)
    4aac:	00350713          	add	a4,a0,3
    4ab0:	ffc68593          	add	a1,a3,-4
    4ab4:	40fe06b3          	sub	a3,t3,a5
    4ab8:	ffc6f313          	and	t1,a3,-4
    4abc:	00f507b3          	add	a5,a0,a5
    4ac0:	202028b7          	lui	a7,0x20202
    4ac4:	00f30333          	add	t1,t1,a5
    4ac8:	02088893          	add	a7,a7,32 # 20202020 <start_time_val+0x201fc950>
    4acc:	0117a023          	sw	a7,0(a5)
    4ad0:	00478793          	add	a5,a5,4
    4ad4:	fef31ce3          	bne	t1,a5,4acc <ee_printf+0xfc0>
    4ad8:	ffc6f893          	and	a7,a3,-4
    4adc:	0036f693          	and	a3,a3,3
    4ae0:	011707b3          	add	a5,a4,a7
    4ae4:	411585b3          	sub	a1,a1,a7
    4ae8:	04068263          	beqz	a3,4b2c <ee_printf+0x1020>
    4aec:	02000713          	li	a4,32
    4af0:	00e78023          	sb	a4,0(a5)
    4af4:	fff58693          	add	a3,a1,-1
    4af8:	02b65a63          	bge	a2,a1,4b2c <ee_printf+0x1020>
    4afc:	00e780a3          	sb	a4,1(a5)
    4b00:	ffe58893          	add	a7,a1,-2
    4b04:	02d65463          	bge	a2,a3,4b2c <ee_printf+0x1020>
    4b08:	00e78123          	sb	a4,2(a5)
    4b0c:	ffd58693          	add	a3,a1,-3
    4b10:	01165e63          	bge	a2,a7,4b2c <ee_printf+0x1020>
    4b14:	00e781a3          	sb	a4,3(a5)
    4b18:	ffc58593          	add	a1,a1,-4
    4b1c:	00d65863          	bge	a2,a3,4b2c <ee_printf+0x1020>
    4b20:	00e78223          	sb	a4,4(a5)
    4b24:	00b65463          	bge	a2,a1,4b2c <ee_printf+0x1020>
    4b28:	00e782a3          	sb	a4,5(a5)
    4b2c:	01c50533          	add	a0,a0,t3
    4b30:	fff60693          	add	a3,a2,-1
    4b34:	831ff06f          	j	4364 <ee_printf+0x858>
    4b38:	0027e793          	or	a5,a5,2
    4b3c:	00a00613          	li	a2,10
    4b40:	ec0ff06f          	j	4200 <ee_printf+0x6f4>
    4b44:	00180793          	add	a5,a6,1
    4b48:	00c80833          	add	a6,a6,a2
    4b4c:	00050713          	mv	a4,a0
    4b50:	0080006f          	j	4b58 <ee_printf+0x104c>
    4b54:	00178793          	add	a5,a5,1
    4b58:	fff7c583          	lbu	a1,-1(a5)
    4b5c:	00170713          	add	a4,a4,1
    4b60:	feb70fa3          	sb	a1,-1(a4)
    4b64:	ff0798e3          	bne	a5,a6,4b54 <ee_printf+0x1048>
    4b68:	885ff06f          	j	43ec <ee_printf+0x8e0>
    4b6c:	00000513          	li	a0,0
    4b70:	9b0ff06f          	j	3d20 <ee_printf+0x214>
    4b74:	02010493          	add	s1,sp,32
    4b78:	00048513          	mv	a0,s1
    4b7c:	838ff06f          	j	3bb4 <ee_printf+0xa8>
    4b80:	00812583          	lw	a1,8(sp)
    4b84:	00275793          	srl	a5,a4,0x2
    4b88:	00100613          	li	a2,1
    4b8c:	00b52023          	sw	a1,0(a0)
    4b90:	28c78463          	beq	a5,a2,4e18 <ee_printf+0x130c>
    4b94:	00c12583          	lw	a1,12(sp)
    4b98:	00300613          	li	a2,3
    4b9c:	00b52223          	sw	a1,4(a0)
    4ba0:	00c79663          	bne	a5,a2,4bac <ee_printf+0x10a0>
    4ba4:	01012783          	lw	a5,16(sp)
    4ba8:	00f52423          	sw	a5,8(a0)
    4bac:	00377793          	and	a5,a4,3
    4bb0:	d6078863          	beqz	a5,4120 <ee_printf+0x614>
    4bb4:	ffc77793          	and	a5,a4,-4
    4bb8:	00f50633          	add	a2,a0,a5
    4bbc:	42078593          	add	a1,a5,1056
    4bc0:	002585b3          	add	a1,a1,sp
    4bc4:	be85c803          	lbu	a6,-1048(a1)
    4bc8:	00178593          	add	a1,a5,1
    4bcc:	01060023          	sb	a6,0(a2)
    4bd0:	d4e5d863          	bge	a1,a4,4120 <ee_printf+0x614>
    4bd4:	42178593          	add	a1,a5,1057
    4bd8:	002585b3          	add	a1,a1,sp
    4bdc:	be85c583          	lbu	a1,-1048(a1)
    4be0:	00278793          	add	a5,a5,2
    4be4:	00b600a3          	sb	a1,1(a2)
    4be8:	d2e7dc63          	bge	a5,a4,4120 <ee_printf+0x614>
    4bec:	42078793          	add	a5,a5,1056
    4bf0:	002787b3          	add	a5,a5,sp
    4bf4:	be87c783          	lbu	a5,-1048(a5)
    4bf8:	00f60123          	sb	a5,2(a2)
    4bfc:	d24ff06f          	j	4120 <ee_printf+0x614>
    4c00:	00900613          	li	a2,9
    4c04:	12b65c63          	bge	a2,a1,4d3c <ee_printf+0x1230>
    4c08:	00a00e13          	li	t3,10
    4c0c:	03c5c333          	div	t1,a1,t3
    4c10:	00005637          	lui	a2,0x5
    4c14:	42088893          	add	a7,a7,1056
    4c18:	3f460613          	add	a2,a2,1012 # 53f4 <ee_printf+0x18e8>
    4c1c:	00288eb3          	add	t4,a7,sp
    4c20:	00270893          	add	a7,a4,2
    4c24:	00660733          	add	a4,a2,t1
    4c28:	00074703          	lbu	a4,0(a4)
    4c2c:	03c5e5b3          	rem	a1,a1,t3
    4c30:	beee8423          	sb	a4,-1048(t4)
    4c34:	ab8ff06f          	j	3eec <ee_printf+0x3e0>
    4c38:	00900613          	li	a2,9
    4c3c:	0ee65a63          	bge	a2,a4,4d30 <ee_printf+0x1224>
    4c40:	00a00e13          	li	t3,10
    4c44:	03c74333          	div	t1,a4,t3
    4c48:	00005637          	lui	a2,0x5
    4c4c:	42088893          	add	a7,a7,1056
    4c50:	3f460613          	add	a2,a2,1012 # 53f4 <ee_printf+0x18e8>
    4c54:	00288eb3          	add	t4,a7,sp
    4c58:	00258893          	add	a7,a1,2
    4c5c:	006605b3          	add	a1,a2,t1
    4c60:	0005c583          	lbu	a1,0(a1)
    4c64:	03c76733          	rem	a4,a4,t3
    4c68:	bebe8423          	sb	a1,-1048(t4)
    4c6c:	a00ff06f          	j	3e6c <ee_printf+0x360>
    4c70:	00900613          	li	a2,9
    4c74:	0ae65263          	bge	a2,a4,4d18 <ee_printf+0x120c>
    4c78:	00a00e93          	li	t4,10
    4c7c:	03d74333          	div	t1,a4,t4
    4c80:	00005637          	lui	a2,0x5
    4c84:	3f460613          	add	a2,a2,1012 # 53f4 <ee_printf+0x18e8>
    4c88:	00300893          	li	a7,3
    4c8c:	00200593          	li	a1,2
    4c90:	00100e13          	li	t3,1
    4c94:	00660333          	add	t1,a2,t1
    4c98:	00034303          	lbu	t1,0(t1)
    4c9c:	03d76733          	rem	a4,a4,t4
    4ca0:	00610423          	sb	t1,8(sp)
    4ca4:	c0dff06f          	j	48b0 <ee_printf+0xda4>
    4ca8:	00005637          	lui	a2,0x5
    4cac:	3f460613          	add	a2,a2,1012 # 53f4 <ee_printf+0x18e8>
    4cb0:	8b1ff06f          	j	4560 <ee_printf+0xa54>
    4cb4:	00900613          	li	a2,9
    4cb8:	04b65063          	bge	a2,a1,4cf8 <ee_printf+0x11ec>
    4cbc:	00a00313          	li	t1,10
    4cc0:	0265c8b3          	div	a7,a1,t1
    4cc4:	00005637          	lui	a2,0x5
    4cc8:	42080813          	add	a6,a6,1056
    4ccc:	3f460613          	add	a2,a2,1012 # 53f4 <ee_printf+0x18e8>
    4cd0:	00280e33          	add	t3,a6,sp
    4cd4:	00270813          	add	a6,a4,2
    4cd8:	01160733          	add	a4,a2,a7
    4cdc:	00074703          	lbu	a4,0(a4)
    4ce0:	0265e5b3          	rem	a1,a1,t1
    4ce4:	beee0423          	sb	a4,-1048(t3)
    4ce8:	a84ff06f          	j	3f6c <ee_printf+0x460>
    4cec:	00188893          	add	a7,a7,1
    4cf0:	ffe68313          	add	t1,a3,-2
    4cf4:	c80ff06f          	j	4174 <ee_printf+0x668>
    4cf8:	00005637          	lui	a2,0x5
    4cfc:	3f460613          	add	a2,a2,1012 # 53f4 <ee_printf+0x18e8>
    4d00:	a6cff06f          	j	3f6c <ee_printf+0x460>
    4d04:	0027e793          	or	a5,a5,2
    4d08:	00490813          	add	a6,s2,4
    4d0c:	00058c13          	mv	s8,a1
    4d10:	00a00613          	li	a2,10
    4d14:	cf0ff06f          	j	4204 <ee_printf+0x6f8>
    4d18:	00005637          	lui	a2,0x5
    4d1c:	00200893          	li	a7,2
    4d20:	00100593          	li	a1,1
    4d24:	00000e13          	li	t3,0
    4d28:	3f460613          	add	a2,a2,1012 # 53f4 <ee_printf+0x18e8>
    4d2c:	b85ff06f          	j	48b0 <ee_printf+0xda4>
    4d30:	00005637          	lui	a2,0x5
    4d34:	3f460613          	add	a2,a2,1012 # 53f4 <ee_printf+0x18e8>
    4d38:	934ff06f          	j	3e6c <ee_printf+0x360>
    4d3c:	00005637          	lui	a2,0x5
    4d40:	3f460613          	add	a2,a2,1012 # 53f4 <ee_printf+0x18e8>
    4d44:	9a8ff06f          	j	3eec <ee_printf+0x3e0>
    4d48:	00800613          	li	a2,8
    4d4c:	cb4ff06f          	j	4200 <ee_printf+0x6f4>
    4d50:	00a00613          	li	a2,10
    4d54:	cacff06f          	j	4200 <ee_printf+0x6f4>
    4d58:	00058c13          	mv	s8,a1
    4d5c:	88cff06f          	j	3de8 <ee_printf+0x2dc>
    4d60:	0107f613          	and	a2,a5,16
    4d64:	ce060ee3          	beqz	a2,4a60 <ee_printf+0xf54>
    4d68:	00000613          	li	a2,0
    4d6c:	e84ff06f          	j	43f0 <ee_printf+0x8e4>
    4d70:	00490813          	add	a6,s2,4
    4d74:	00058c13          	mv	s8,a1
    4d78:	00800613          	li	a2,8
    4d7c:	c88ff06f          	j	4204 <ee_printf+0x6f8>
    4d80:	0407e793          	or	a5,a5,64
    4d84:	00490813          	add	a6,s2,4
    4d88:	00058c13          	mv	s8,a1
    4d8c:	01000613          	li	a2,16
    4d90:	c74ff06f          	j	4204 <ee_printf+0x6f8>
    4d94:	00490813          	add	a6,s2,4
    4d98:	00058c13          	mv	s8,a1
    4d9c:	01000613          	li	a2,16
    4da0:	c64ff06f          	j	4204 <ee_printf+0x6f8>
    4da4:	0407e793          	or	a5,a5,64
    4da8:	00058c13          	mv	s8,a1
    4dac:	83cff06f          	j	3de8 <ee_printf+0x2dc>
    4db0:	00250613          	add	a2,a0,2
    4db4:	ffd68813          	add	a6,a3,-3
    4db8:	a28ff06f          	j	3fe0 <ee_printf+0x4d4>
    4dbc:	00490813          	add	a6,s2,4
    4dc0:	00058c13          	mv	s8,a1
    4dc4:	00a00613          	li	a2,10
    4dc8:	c3cff06f          	j	4204 <ee_printf+0x6f8>
    4dcc:	00058693          	mv	a3,a1
    4dd0:	d94ff06f          	j	4364 <ee_printf+0x858>
    4dd4:	00092783          	lw	a5,0(s2)
    4dd8:	00150513          	add	a0,a0,1
    4ddc:	00080913          	mv	s2,a6
    4de0:	fef50fa3          	sb	a5,-1(a0)
    4de4:	001c4783          	lbu	a5,1(s8)
    4de8:	00078463          	beqz	a5,4df0 <ee_printf+0x12e4>
    4dec:	db1fe06f          	j	3b9c <ee_printf+0x90>
    4df0:	dc5fe06f          	j	3bb4 <ee_printf+0xa8>
    4df4:	00150593          	add	a1,a0,1
    4df8:	ffe68813          	add	a6,a3,-2
    4dfc:	e4cff06f          	j	4448 <ee_printf+0x93c>
    4e00:	00250893          	add	a7,a0,2
    4e04:	00060e13          	mv	t3,a2
    4e08:	c84ff06f          	j	428c <ee_printf+0x780>
    4e0c:	00288893          	add	a7,a7,2
    4e10:	ffd68313          	add	t1,a3,-3
    4e14:	b60ff06f          	j	4174 <ee_printf+0x668>
    4e18:	00450613          	add	a2,a0,4
    4e1c:	00400793          	li	a5,4
    4e20:	d9dff06f          	j	4bbc <ee_printf+0x10b0>
    4e24:	00350893          	add	a7,a0,3
    4e28:	ffd68e13          	add	t3,a3,-3
    4e2c:	c60ff06f          	j	428c <ee_printf+0x780>
    4e30:	00088513          	mv	a0,a7
    4e34:	bdcff06f          	j	4210 <ee_printf+0x704>
    4e38:	00150613          	add	a2,a0,1
    4e3c:	ffe68813          	add	a6,a3,-2
    4e40:	9a0ff06f          	j	3fe0 <ee_printf+0x4d4>
    4e44:	00250593          	add	a1,a0,2
    4e48:	ffd68813          	add	a6,a3,-3
    4e4c:	dfcff06f          	j	4448 <ee_printf+0x93c>
    4e50:	00814c03          	lbu	s8,8(sp)
    4e54:	00914703          	lbu	a4,9(sp)
    4e58:	03a00793          	li	a5,58
    4e5c:	01850023          	sb	s8,0(a0)
    4e60:	00e500a3          	sb	a4,1(a0)
    4e64:	00f50123          	sb	a5,2(a0)
    4e68:	007501a3          	sb	t2,3(a0)
    4e6c:	00550223          	sb	t0,4(a0)
    4e70:	00f502a3          	sb	a5,5(a0)
    4e74:	01f50323          	sb	t6,6(a0)
    4e78:	01e503a3          	sb	t5,7(a0)
    4e7c:	00f50423          	sb	a5,8(a0)
    4e80:	01d504a3          	sb	t4,9(a0)
    4e84:	01c50523          	sb	t3,10(a0)
    4e88:	00f505a3          	sb	a5,11(a0)
    4e8c:	00650623          	sb	t1,12(a0)
    4e90:	011506a3          	sb	a7,13(a0)
    4e94:	00f50723          	sb	a5,14(a0)
    4e98:	010507a3          	sb	a6,15(a0)
    4e9c:	8c5ff06f          	j	4760 <ee_printf+0xc54>
    4ea0:	001c4783          	lbu	a5,1(s8)
    4ea4:	00078463          	beqz	a5,4eac <ee_printf+0x13a0>
    4ea8:	cf5fe06f          	j	3b9c <ee_printf+0x90>
    4eac:	d09fe06f          	j	3bb4 <ee_printf+0xa8>
    4eb0:	00150713          	add	a4,a0,1
    4eb4:	ffe68593          	add	a1,a3,-2
    4eb8:	bfdff06f          	j	4ab4 <ee_printf+0xfa8>
    4ebc:	00150713          	add	a4,a0,1
    4ec0:	00088613          	mv	a2,a7
    4ec4:	af5ff06f          	j	49b8 <ee_printf+0xeac>
    4ec8:	00080513          	mv	a0,a6
    4ecc:	981ff06f          	j	484c <ee_printf+0xd40>
    4ed0:	00050793          	mv	a5,a0
    4ed4:	944ff06f          	j	4018 <ee_printf+0x50c>
    4ed8:	00080693          	mv	a3,a6
    4edc:	984ff06f          	j	4060 <ee_printf+0x554>
    4ee0:	00050793          	mv	a5,a0
    4ee4:	d9cff06f          	j	4480 <ee_printf+0x974>
    4ee8:	00150713          	add	a4,a0,1
    4eec:	ffe68c13          	add	s8,a3,-2
    4ef0:	fc4ff06f          	j	46b4 <ee_printf+0xba8>
    4ef4:	00050793          	mv	a5,a0
    4ef8:	ff4ff06f          	j	46ec <ee_printf+0xbe0>
    4efc:	00250713          	add	a4,a0,2
    4f00:	ffd68c13          	add	s8,a3,-3
    4f04:	fb0ff06f          	j	46b4 <ee_printf+0xba8>
    4f08:	00250713          	add	a4,a0,2
    4f0c:	ffd68613          	add	a2,a3,-3
    4f10:	aa9ff06f          	j	49b8 <ee_printf+0xeac>
    4f14:	00050793          	mv	a5,a0
    4f18:	ad9ff06f          	j	49f0 <ee_printf+0xee4>
    4f1c:	00050793          	mv	a5,a0
    4f20:	bcdff06f          	j	4aec <ee_printf+0xfe0>
    4f24:	000c0693          	mv	a3,s8
    4f28:	811ff06f          	j	4738 <ee_printf+0xc2c>
    4f2c:	00250713          	add	a4,a0,2
    4f30:	ffd68593          	add	a1,a3,-3
    4f34:	b81ff06f          	j	4ab4 <ee_printf+0xfa8>
    4f38:	00088513          	mv	a0,a7
    4f3c:	b09ff06f          	j	4a44 <ee_printf+0xf38>
