
rv32um-p-mulh:     file format elf32-littleriscv


Disassembly of section .text.init:

00000000 <_start>:
   0:	0500006f          	j	50 <reset_vector>

00000004 <trap_vector>:
   4:	34202f73          	csrr	t5,mcause
   8:	00800f93          	li	t6,8
   c:	03ff0863          	beq	t5,t6,3c <write_tohost>
  10:	00900f93          	li	t6,9
  14:	03ff0463          	beq	t5,t6,3c <write_tohost>
  18:	00b00f93          	li	t6,11
  1c:	03ff0063          	beq	t5,t6,3c <write_tohost>
  20:	00000f13          	li	t5,0
  24:	000f0463          	beqz	t5,2c <trap_vector+0x28>
  28:	000f0067          	jr	t5
  2c:	34202f73          	csrr	t5,mcause
  30:	000f5463          	bgez	t5,38 <handle_exception>
  34:	0040006f          	j	38 <handle_exception>

00000038 <handle_exception>:
  38:	5391e193          	or	gp,gp,1337

0000003c <write_tohost>:
  3c:	00001f17          	auipc	t5,0x1
  40:	fc3f2223          	sw	gp,-60(t5) # 1000 <tohost>
  44:	00001f17          	auipc	t5,0x1
  48:	fc0f2023          	sw	zero,-64(t5) # 1004 <tohost+0x4>
  4c:	ff1ff06f          	j	3c <write_tohost>

00000050 <reset_vector>:
  50:	00000093          	li	ra,0
  54:	00000113          	li	sp,0
  58:	00000193          	li	gp,0
  5c:	00000213          	li	tp,0
  60:	00000293          	li	t0,0
  64:	00000313          	li	t1,0
  68:	00000393          	li	t2,0
  6c:	00000413          	li	s0,0
  70:	00000493          	li	s1,0
  74:	00000513          	li	a0,0
  78:	00000593          	li	a1,0
  7c:	00000613          	li	a2,0
  80:	00000693          	li	a3,0
  84:	00000713          	li	a4,0
  88:	00000793          	li	a5,0
  8c:	00000813          	li	a6,0
  90:	00000893          	li	a7,0
  94:	00000913          	li	s2,0
  98:	00000993          	li	s3,0
  9c:	00000a13          	li	s4,0
  a0:	00000a93          	li	s5,0
  a4:	00000b13          	li	s6,0
  a8:	00000b93          	li	s7,0
  ac:	00000c13          	li	s8,0
  b0:	00000c93          	li	s9,0
  b4:	00000d13          	li	s10,0
  b8:	00000d93          	li	s11,0
  bc:	00000e13          	li	t3,0
  c0:	00000e93          	li	t4,0
  c4:	00000f13          	li	t5,0
  c8:	00000f93          	li	t6,0
  cc:	f1402573          	csrr	a0,mhartid
  d0:	00051063          	bnez	a0,d0 <reset_vector+0x80>
  d4:	00000297          	auipc	t0,0x0
  d8:	01028293          	add	t0,t0,16 # e4 <reset_vector+0x94>
  dc:	30529073          	csrw	mtvec,t0
  e0:	74445073          	csrw	0x744,8
  e4:	00000297          	auipc	t0,0x0
  e8:	01028293          	add	t0,t0,16 # f4 <reset_vector+0xa4>
  ec:	30529073          	csrw	mtvec,t0
  f0:	18005073          	csrw	satp,0
  f4:	00000297          	auipc	t0,0x0
  f8:	02028293          	add	t0,t0,32 # 114 <reset_vector+0xc4>
  fc:	30529073          	csrw	mtvec,t0
 100:	800002b7          	lui	t0,0x80000
 104:	fff28293          	add	t0,t0,-1 # 7fffffff <_end+0x7fffdfff>
 108:	3b029073          	csrw	pmpaddr0,t0
 10c:	01f00293          	li	t0,31
 110:	3a029073          	csrw	pmpcfg0,t0
 114:	30405073          	csrw	mie,0
 118:	00000297          	auipc	t0,0x0
 11c:	01428293          	add	t0,t0,20 # 12c <reset_vector+0xdc>
 120:	30529073          	csrw	mtvec,t0
 124:	30205073          	csrw	medeleg,0
 128:	30305073          	csrw	mideleg,0
 12c:	00000193          	li	gp,0
 130:	00000297          	auipc	t0,0x0
 134:	ed428293          	add	t0,t0,-300 # 4 <trap_vector>
 138:	30529073          	csrw	mtvec,t0
 13c:	00100513          	li	a0,1
 140:	01f51513          	sll	a0,a0,0x1f
 144:	00054c63          	bltz	a0,15c <reset_vector+0x10c>
 148:	0ff0000f          	fence
 14c:	00100193          	li	gp,1
 150:	05d00893          	li	a7,93
 154:	00000513          	li	a0,0
 158:	00000073          	ecall
 15c:	00000293          	li	t0,0
 160:	00028a63          	beqz	t0,174 <reset_vector+0x124>
 164:	10529073          	csrw	stvec,t0
 168:	0000b2b7          	lui	t0,0xb
 16c:	10928293          	add	t0,t0,265 # b109 <_end+0x9109>
 170:	30229073          	csrw	medeleg,t0
 174:	30005073          	csrw	mstatus,0
 178:	00000297          	auipc	t0,0x0
 17c:	01428293          	add	t0,t0,20 # 18c <test_2>
 180:	34129073          	csrw	mepc,t0
 184:	f1402573          	csrr	a0,mhartid
 188:	30200073          	mret

0000018c <test_2>:
 18c:	00200193          	li	gp,2
 190:	00000093          	li	ra,0
 194:	00000113          	li	sp,0
 198:	02209733          	mulh	a4,ra,sp
 19c:	00000393          	li	t2,0
 1a0:	4a771a63          	bne	a4,t2,654 <fail>

000001a4 <test_3>:
 1a4:	00300193          	li	gp,3
 1a8:	00100093          	li	ra,1
 1ac:	00100113          	li	sp,1
 1b0:	02209733          	mulh	a4,ra,sp
 1b4:	00000393          	li	t2,0
 1b8:	48771e63          	bne	a4,t2,654 <fail>

000001bc <test_4>:
 1bc:	00400193          	li	gp,4
 1c0:	00300093          	li	ra,3
 1c4:	00700113          	li	sp,7
 1c8:	02209733          	mulh	a4,ra,sp
 1cc:	00000393          	li	t2,0
 1d0:	48771263          	bne	a4,t2,654 <fail>

000001d4 <test_5>:
 1d4:	00500193          	li	gp,5
 1d8:	00000093          	li	ra,0
 1dc:	ffff8137          	lui	sp,0xffff8
 1e0:	02209733          	mulh	a4,ra,sp
 1e4:	00000393          	li	t2,0
 1e8:	46771663          	bne	a4,t2,654 <fail>

000001ec <test_6>:
 1ec:	00600193          	li	gp,6
 1f0:	800000b7          	lui	ra,0x80000
 1f4:	00000113          	li	sp,0
 1f8:	02209733          	mulh	a4,ra,sp
 1fc:	00000393          	li	t2,0
 200:	44771a63          	bne	a4,t2,654 <fail>

00000204 <test_7>:
 204:	00700193          	li	gp,7
 208:	800000b7          	lui	ra,0x80000
 20c:	00000113          	li	sp,0
 210:	02209733          	mulh	a4,ra,sp
 214:	00000393          	li	t2,0
 218:	42771e63          	bne	a4,t2,654 <fail>

0000021c <test_30>:
 21c:	01e00193          	li	gp,30
 220:	aaaab0b7          	lui	ra,0xaaaab
 224:	aab08093          	add	ra,ra,-1365 # aaaaaaab <_end+0xaaaa8aab>
 228:	00030137          	lui	sp,0x30
 22c:	e7d10113          	add	sp,sp,-387 # 2fe7d <_end+0x2de7d>
 230:	02209733          	mulh	a4,ra,sp
 234:	ffff03b7          	lui	t2,0xffff0
 238:	08138393          	add	t2,t2,129 # ffff0081 <_end+0xfffee081>
 23c:	40771c63          	bne	a4,t2,654 <fail>

00000240 <test_31>:
 240:	01f00193          	li	gp,31
 244:	000300b7          	lui	ra,0x30
 248:	e7d08093          	add	ra,ra,-387 # 2fe7d <_end+0x2de7d>
 24c:	aaaab137          	lui	sp,0xaaaab
 250:	aab10113          	add	sp,sp,-1365 # aaaaaaab <_end+0xaaaa8aab>
 254:	02209733          	mulh	a4,ra,sp
 258:	ffff03b7          	lui	t2,0xffff0
 25c:	08138393          	add	t2,t2,129 # ffff0081 <_end+0xfffee081>
 260:	3e771a63          	bne	a4,t2,654 <fail>

00000264 <test_32>:
 264:	02000193          	li	gp,32
 268:	ff0000b7          	lui	ra,0xff000
 26c:	ff000137          	lui	sp,0xff000
 270:	02209733          	mulh	a4,ra,sp
 274:	000103b7          	lui	t2,0x10
 278:	3c771e63          	bne	a4,t2,654 <fail>

0000027c <test_33>:
 27c:	02100193          	li	gp,33
 280:	fff00093          	li	ra,-1
 284:	fff00113          	li	sp,-1
 288:	02209733          	mulh	a4,ra,sp
 28c:	00000393          	li	t2,0
 290:	3c771263          	bne	a4,t2,654 <fail>

00000294 <test_34>:
 294:	02200193          	li	gp,34
 298:	fff00093          	li	ra,-1
 29c:	00100113          	li	sp,1
 2a0:	02209733          	mulh	a4,ra,sp
 2a4:	fff00393          	li	t2,-1
 2a8:	3a771663          	bne	a4,t2,654 <fail>

000002ac <test_35>:
 2ac:	02300193          	li	gp,35
 2b0:	00100093          	li	ra,1
 2b4:	fff00113          	li	sp,-1
 2b8:	02209733          	mulh	a4,ra,sp
 2bc:	fff00393          	li	t2,-1
 2c0:	38771a63          	bne	a4,t2,654 <fail>

000002c4 <test_8>:
 2c4:	00800193          	li	gp,8
 2c8:	00d000b7          	lui	ra,0xd00
 2cc:	00b00137          	lui	sp,0xb00
 2d0:	022090b3          	mulh	ra,ra,sp
 2d4:	000093b7          	lui	t2,0x9
 2d8:	f0038393          	add	t2,t2,-256 # 8f00 <_end+0x6f00>
 2dc:	36709c63          	bne	ra,t2,654 <fail>

000002e0 <test_9>:
 2e0:	00900193          	li	gp,9
 2e4:	00e000b7          	lui	ra,0xe00
 2e8:	00b00137          	lui	sp,0xb00
 2ec:	02209133          	mulh	sp,ra,sp
 2f0:	0000a3b7          	lui	t2,0xa
 2f4:	a0038393          	add	t2,t2,-1536 # 9a00 <_end+0x7a00>
 2f8:	34711e63          	bne	sp,t2,654 <fail>

000002fc <test_10>:
 2fc:	00a00193          	li	gp,10
 300:	00d000b7          	lui	ra,0xd00
 304:	021090b3          	mulh	ra,ra,ra
 308:	0000b3b7          	lui	t2,0xb
 30c:	90038393          	add	t2,t2,-1792 # a900 <_end+0x8900>
 310:	34709263          	bne	ra,t2,654 <fail>

00000314 <test_11>:
 314:	00b00193          	li	gp,11
 318:	00000213          	li	tp,0
 31c:	00d000b7          	lui	ra,0xd00
 320:	00b00137          	lui	sp,0xb00
 324:	02209733          	mulh	a4,ra,sp
 328:	00070313          	mv	t1,a4
 32c:	00120213          	add	tp,tp,1 # 1 <_start+0x1>
 330:	00200293          	li	t0,2
 334:	fe5214e3          	bne	tp,t0,31c <test_11+0x8>
 338:	000093b7          	lui	t2,0x9
 33c:	f0038393          	add	t2,t2,-256 # 8f00 <_end+0x6f00>
 340:	30731a63          	bne	t1,t2,654 <fail>

00000344 <test_12>:
 344:	00c00193          	li	gp,12
 348:	00000213          	li	tp,0
 34c:	00e000b7          	lui	ra,0xe00
 350:	00b00137          	lui	sp,0xb00
 354:	02209733          	mulh	a4,ra,sp
 358:	00000013          	nop
 35c:	00070313          	mv	t1,a4
 360:	00120213          	add	tp,tp,1 # 1 <_start+0x1>
 364:	00200293          	li	t0,2
 368:	fe5212e3          	bne	tp,t0,34c <test_12+0x8>
 36c:	0000a3b7          	lui	t2,0xa
 370:	a0038393          	add	t2,t2,-1536 # 9a00 <_end+0x7a00>
 374:	2e731063          	bne	t1,t2,654 <fail>

00000378 <test_13>:
 378:	00d00193          	li	gp,13
 37c:	00000213          	li	tp,0
 380:	00f000b7          	lui	ra,0xf00
 384:	00b00137          	lui	sp,0xb00
 388:	02209733          	mulh	a4,ra,sp
 38c:	00000013          	nop
 390:	00000013          	nop
 394:	00070313          	mv	t1,a4
 398:	00120213          	add	tp,tp,1 # 1 <_start+0x1>
 39c:	00200293          	li	t0,2
 3a0:	fe5210e3          	bne	tp,t0,380 <test_13+0x8>
 3a4:	0000a3b7          	lui	t2,0xa
 3a8:	50038393          	add	t2,t2,1280 # a500 <_end+0x8500>
 3ac:	2a731463          	bne	t1,t2,654 <fail>

000003b0 <test_14>:
 3b0:	00e00193          	li	gp,14
 3b4:	00000213          	li	tp,0
 3b8:	00d000b7          	lui	ra,0xd00
 3bc:	00b00137          	lui	sp,0xb00
 3c0:	02209733          	mulh	a4,ra,sp
 3c4:	00120213          	add	tp,tp,1 # 1 <_start+0x1>
 3c8:	00200293          	li	t0,2
 3cc:	fe5216e3          	bne	tp,t0,3b8 <test_14+0x8>
 3d0:	000093b7          	lui	t2,0x9
 3d4:	f0038393          	add	t2,t2,-256 # 8f00 <_end+0x6f00>
 3d8:	26771e63          	bne	a4,t2,654 <fail>

000003dc <test_15>:
 3dc:	00f00193          	li	gp,15
 3e0:	00000213          	li	tp,0
 3e4:	00e000b7          	lui	ra,0xe00
 3e8:	00b00137          	lui	sp,0xb00
 3ec:	00000013          	nop
 3f0:	02209733          	mulh	a4,ra,sp
 3f4:	00120213          	add	tp,tp,1 # 1 <_start+0x1>
 3f8:	00200293          	li	t0,2
 3fc:	fe5214e3          	bne	tp,t0,3e4 <test_15+0x8>
 400:	0000a3b7          	lui	t2,0xa
 404:	a0038393          	add	t2,t2,-1536 # 9a00 <_end+0x7a00>
 408:	24771663          	bne	a4,t2,654 <fail>

0000040c <test_16>:
 40c:	01000193          	li	gp,16
 410:	00000213          	li	tp,0
 414:	00f000b7          	lui	ra,0xf00
 418:	00b00137          	lui	sp,0xb00
 41c:	00000013          	nop
 420:	00000013          	nop
 424:	02209733          	mulh	a4,ra,sp
 428:	00120213          	add	tp,tp,1 # 1 <_start+0x1>
 42c:	00200293          	li	t0,2
 430:	fe5212e3          	bne	tp,t0,414 <test_16+0x8>
 434:	0000a3b7          	lui	t2,0xa
 438:	50038393          	add	t2,t2,1280 # a500 <_end+0x8500>
 43c:	20771c63          	bne	a4,t2,654 <fail>

00000440 <test_17>:
 440:	01100193          	li	gp,17
 444:	00000213          	li	tp,0
 448:	00d000b7          	lui	ra,0xd00
 44c:	00000013          	nop
 450:	00b00137          	lui	sp,0xb00
 454:	02209733          	mulh	a4,ra,sp
 458:	00120213          	add	tp,tp,1 # 1 <_start+0x1>
 45c:	00200293          	li	t0,2
 460:	fe5214e3          	bne	tp,t0,448 <test_17+0x8>
 464:	000093b7          	lui	t2,0x9
 468:	f0038393          	add	t2,t2,-256 # 8f00 <_end+0x6f00>
 46c:	1e771463          	bne	a4,t2,654 <fail>

00000470 <test_18>:
 470:	01200193          	li	gp,18
 474:	00000213          	li	tp,0
 478:	00e000b7          	lui	ra,0xe00
 47c:	00000013          	nop
 480:	00b00137          	lui	sp,0xb00
 484:	00000013          	nop
 488:	02209733          	mulh	a4,ra,sp
 48c:	00120213          	add	tp,tp,1 # 1 <_start+0x1>
 490:	00200293          	li	t0,2
 494:	fe5212e3          	bne	tp,t0,478 <test_18+0x8>
 498:	0000a3b7          	lui	t2,0xa
 49c:	a0038393          	add	t2,t2,-1536 # 9a00 <_end+0x7a00>
 4a0:	1a771a63          	bne	a4,t2,654 <fail>

000004a4 <test_19>:
 4a4:	01300193          	li	gp,19
 4a8:	00000213          	li	tp,0
 4ac:	00f000b7          	lui	ra,0xf00
 4b0:	00000013          	nop
 4b4:	00000013          	nop
 4b8:	00b00137          	lui	sp,0xb00
 4bc:	02209733          	mulh	a4,ra,sp
 4c0:	00120213          	add	tp,tp,1 # 1 <_start+0x1>
 4c4:	00200293          	li	t0,2
 4c8:	fe5212e3          	bne	tp,t0,4ac <test_19+0x8>
 4cc:	0000a3b7          	lui	t2,0xa
 4d0:	50038393          	add	t2,t2,1280 # a500 <_end+0x8500>
 4d4:	18771063          	bne	a4,t2,654 <fail>

000004d8 <test_20>:
 4d8:	01400193          	li	gp,20
 4dc:	00000213          	li	tp,0
 4e0:	00b00137          	lui	sp,0xb00
 4e4:	00d000b7          	lui	ra,0xd00
 4e8:	02209733          	mulh	a4,ra,sp
 4ec:	00120213          	add	tp,tp,1 # 1 <_start+0x1>
 4f0:	00200293          	li	t0,2
 4f4:	fe5216e3          	bne	tp,t0,4e0 <test_20+0x8>
 4f8:	000093b7          	lui	t2,0x9
 4fc:	f0038393          	add	t2,t2,-256 # 8f00 <_end+0x6f00>
 500:	14771a63          	bne	a4,t2,654 <fail>

00000504 <test_21>:
 504:	01500193          	li	gp,21
 508:	00000213          	li	tp,0
 50c:	00b00137          	lui	sp,0xb00
 510:	00e000b7          	lui	ra,0xe00
 514:	00000013          	nop
 518:	02209733          	mulh	a4,ra,sp
 51c:	00120213          	add	tp,tp,1 # 1 <_start+0x1>
 520:	00200293          	li	t0,2
 524:	fe5214e3          	bne	tp,t0,50c <test_21+0x8>
 528:	0000a3b7          	lui	t2,0xa
 52c:	a0038393          	add	t2,t2,-1536 # 9a00 <_end+0x7a00>
 530:	12771263          	bne	a4,t2,654 <fail>

00000534 <test_22>:
 534:	01600193          	li	gp,22
 538:	00000213          	li	tp,0
 53c:	00b00137          	lui	sp,0xb00
 540:	00f000b7          	lui	ra,0xf00
 544:	00000013          	nop
 548:	00000013          	nop
 54c:	02209733          	mulh	a4,ra,sp
 550:	00120213          	add	tp,tp,1 # 1 <_start+0x1>
 554:	00200293          	li	t0,2
 558:	fe5212e3          	bne	tp,t0,53c <test_22+0x8>
 55c:	0000a3b7          	lui	t2,0xa
 560:	50038393          	add	t2,t2,1280 # a500 <_end+0x8500>
 564:	0e771863          	bne	a4,t2,654 <fail>

00000568 <test_23>:
 568:	01700193          	li	gp,23
 56c:	00000213          	li	tp,0
 570:	00b00137          	lui	sp,0xb00
 574:	00000013          	nop
 578:	00d000b7          	lui	ra,0xd00
 57c:	02209733          	mulh	a4,ra,sp
 580:	00120213          	add	tp,tp,1 # 1 <_start+0x1>
 584:	00200293          	li	t0,2
 588:	fe5214e3          	bne	tp,t0,570 <test_23+0x8>
 58c:	000093b7          	lui	t2,0x9
 590:	f0038393          	add	t2,t2,-256 # 8f00 <_end+0x6f00>
 594:	0c771063          	bne	a4,t2,654 <fail>

00000598 <test_24>:
 598:	01800193          	li	gp,24
 59c:	00000213          	li	tp,0
 5a0:	00b00137          	lui	sp,0xb00
 5a4:	00000013          	nop
 5a8:	00e000b7          	lui	ra,0xe00
 5ac:	00000013          	nop
 5b0:	02209733          	mulh	a4,ra,sp
 5b4:	00120213          	add	tp,tp,1 # 1 <_start+0x1>
 5b8:	00200293          	li	t0,2
 5bc:	fe5212e3          	bne	tp,t0,5a0 <test_24+0x8>
 5c0:	0000a3b7          	lui	t2,0xa
 5c4:	a0038393          	add	t2,t2,-1536 # 9a00 <_end+0x7a00>
 5c8:	08771663          	bne	a4,t2,654 <fail>

000005cc <test_25>:
 5cc:	01900193          	li	gp,25
 5d0:	00000213          	li	tp,0
 5d4:	00b00137          	lui	sp,0xb00
 5d8:	00000013          	nop
 5dc:	00000013          	nop
 5e0:	00f000b7          	lui	ra,0xf00
 5e4:	02209733          	mulh	a4,ra,sp
 5e8:	00120213          	add	tp,tp,1 # 1 <_start+0x1>
 5ec:	00200293          	li	t0,2
 5f0:	fe5212e3          	bne	tp,t0,5d4 <test_25+0x8>
 5f4:	0000a3b7          	lui	t2,0xa
 5f8:	50038393          	add	t2,t2,1280 # a500 <_end+0x8500>
 5fc:	04771c63          	bne	a4,t2,654 <fail>

00000600 <test_26>:
 600:	01a00193          	li	gp,26
 604:	7c0000b7          	lui	ra,0x7c000
 608:	02101133          	mulh	sp,zero,ra
 60c:	00000393          	li	t2,0
 610:	04711263          	bne	sp,t2,654 <fail>

00000614 <test_27>:
 614:	01b00193          	li	gp,27
 618:	800000b7          	lui	ra,0x80000
 61c:	02009133          	mulh	sp,ra,zero
 620:	00000393          	li	t2,0
 624:	02711863          	bne	sp,t2,654 <fail>

00000628 <test_28>:
 628:	01c00193          	li	gp,28
 62c:	020010b3          	mulh	ra,zero,zero
 630:	00000393          	li	t2,0
 634:	02709063          	bne	ra,t2,654 <fail>

00000638 <test_29>:
 638:	01d00193          	li	gp,29
 63c:	021000b7          	lui	ra,0x2100
 640:	02200137          	lui	sp,0x2200
 644:	02209033          	mulh	zero,ra,sp
 648:	00000393          	li	t2,0
 64c:	00701463          	bne	zero,t2,654 <fail>
 650:	02301063          	bne	zero,gp,670 <pass>

00000654 <fail>:
 654:	0ff0000f          	fence
 658:	00018063          	beqz	gp,658 <fail+0x4>
 65c:	00119193          	sll	gp,gp,0x1
 660:	0011e193          	or	gp,gp,1
 664:	05d00893          	li	a7,93
 668:	00018513          	mv	a0,gp
 66c:	00000073          	ecall

00000670 <pass>:
 670:	0ff0000f          	fence
 674:	00100193          	li	gp,1
 678:	05d00893          	li	a7,93
 67c:	00000513          	li	a0,0
 680:	00000073          	ecall
 684:	c0001073          	unimp
 688:	0000                	.2byte	0x0
 68a:	0000                	.2byte	0x0
 68c:	0000                	.2byte	0x0
 68e:	0000                	.2byte	0x0
 690:	0000                	.2byte	0x0
 692:	0000                	.2byte	0x0
 694:	0000                	.2byte	0x0
 696:	0000                	.2byte	0x0
 698:	0000                	.2byte	0x0
 69a:	0000                	.2byte	0x0
 69c:	0000                	.2byte	0x0
 69e:	0000                	.2byte	0x0
 6a0:	0000                	.2byte	0x0
 6a2:	0000                	.2byte	0x0
 6a4:	0000                	.2byte	0x0
 6a6:	0000                	.2byte	0x0
 6a8:	0000                	.2byte	0x0
 6aa:	0000                	.2byte	0x0
 6ac:	0000                	.2byte	0x0
 6ae:	0000                	.2byte	0x0
 6b0:	0000                	.2byte	0x0
 6b2:	0000                	.2byte	0x0
 6b4:	0000                	.2byte	0x0
 6b6:	0000                	.2byte	0x0
 6b8:	0000                	.2byte	0x0
 6ba:	0000                	.2byte	0x0
