
rv32um-p-div:     file format elf32-littleriscv


Disassembly of section .text.init:

00000000 <_start>:
   0:	0500006f          	j	50 <reset_vector>

00000004 <trap_vector>:
   4:	34202f73          	csrr	t5,mcause
   8:	00800f93          	li	t6,8
   c:	03ff0863          	beq	t5,t6,3c <write_tohost>
  10:	00900f93          	li	t6,9
  14:	03ff0463          	beq	t5,t6,3c <write_tohost>
  18:	00b00f93          	li	t6,11
  1c:	03ff0063          	beq	t5,t6,3c <write_tohost>
  20:	00000f13          	li	t5,0
  24:	000f0463          	beqz	t5,2c <trap_vector+0x28>
  28:	000f0067          	jr	t5
  2c:	34202f73          	csrr	t5,mcause
  30:	000f5463          	bgez	t5,38 <handle_exception>
  34:	0040006f          	j	38 <handle_exception>

00000038 <handle_exception>:
  38:	5391e193          	or	gp,gp,1337

0000003c <write_tohost>:
  3c:	00001f17          	auipc	t5,0x1
  40:	fc3f2223          	sw	gp,-60(t5) # 1000 <tohost>
  44:	00001f17          	auipc	t5,0x1
  48:	fc0f2023          	sw	zero,-64(t5) # 1004 <tohost+0x4>
  4c:	ff1ff06f          	j	3c <write_tohost>

00000050 <reset_vector>:
  50:	00000093          	li	ra,0
  54:	00000113          	li	sp,0
  58:	00000193          	li	gp,0
  5c:	00000213          	li	tp,0
  60:	00000293          	li	t0,0
  64:	00000313          	li	t1,0
  68:	00000393          	li	t2,0
  6c:	00000413          	li	s0,0
  70:	00000493          	li	s1,0
  74:	00000513          	li	a0,0
  78:	00000593          	li	a1,0
  7c:	00000613          	li	a2,0
  80:	00000693          	li	a3,0
  84:	00000713          	li	a4,0
  88:	00000793          	li	a5,0
  8c:	00000813          	li	a6,0
  90:	00000893          	li	a7,0
  94:	00000913          	li	s2,0
  98:	00000993          	li	s3,0
  9c:	00000a13          	li	s4,0
  a0:	00000a93          	li	s5,0
  a4:	00000b13          	li	s6,0
  a8:	00000b93          	li	s7,0
  ac:	00000c13          	li	s8,0
  b0:	00000c93          	li	s9,0
  b4:	00000d13          	li	s10,0
  b8:	00000d93          	li	s11,0
  bc:	00000e13          	li	t3,0
  c0:	00000e93          	li	t4,0
  c4:	00000f13          	li	t5,0
  c8:	00000f93          	li	t6,0
  cc:	f1402573          	csrr	a0,mhartid
  d0:	00051063          	bnez	a0,d0 <reset_vector+0x80>
  d4:	00000297          	auipc	t0,0x0
  d8:	01028293          	add	t0,t0,16 # e4 <reset_vector+0x94>
  dc:	30529073          	csrw	mtvec,t0
  e0:	74445073          	csrw	0x744,8
  e4:	00000297          	auipc	t0,0x0
  e8:	01028293          	add	t0,t0,16 # f4 <reset_vector+0xa4>
  ec:	30529073          	csrw	mtvec,t0
  f0:	18005073          	csrw	satp,0
  f4:	00000297          	auipc	t0,0x0
  f8:	02028293          	add	t0,t0,32 # 114 <reset_vector+0xc4>
  fc:	30529073          	csrw	mtvec,t0
 100:	800002b7          	lui	t0,0x80000
 104:	fff28293          	add	t0,t0,-1 # 7fffffff <_end+0x7fffdfff>
 108:	3b029073          	csrw	pmpaddr0,t0
 10c:	01f00293          	li	t0,31
 110:	3a029073          	csrw	pmpcfg0,t0
 114:	30405073          	csrw	mie,0
 118:	00000297          	auipc	t0,0x0
 11c:	01428293          	add	t0,t0,20 # 12c <reset_vector+0xdc>
 120:	30529073          	csrw	mtvec,t0
 124:	30205073          	csrw	medeleg,0
 128:	30305073          	csrw	mideleg,0
 12c:	00000193          	li	gp,0
 130:	00000297          	auipc	t0,0x0
 134:	ed428293          	add	t0,t0,-300 # 4 <trap_vector>
 138:	30529073          	csrw	mtvec,t0
 13c:	00100513          	li	a0,1
 140:	01f51513          	sll	a0,a0,0x1f
 144:	00054c63          	bltz	a0,15c <reset_vector+0x10c>
 148:	0ff0000f          	fence
 14c:	00100193          	li	gp,1
 150:	05d00893          	li	a7,93
 154:	00000513          	li	a0,0
 158:	00000073          	ecall
 15c:	00000293          	li	t0,0
 160:	00028a63          	beqz	t0,174 <reset_vector+0x124>
 164:	10529073          	csrw	stvec,t0
 168:	0000b2b7          	lui	t0,0xb
 16c:	10928293          	add	t0,t0,265 # b109 <_end+0x9109>
 170:	30229073          	csrw	medeleg,t0
 174:	30005073          	csrw	mstatus,0
 178:	00000297          	auipc	t0,0x0
 17c:	01428293          	add	t0,t0,20 # 18c <test_2>
 180:	34129073          	csrw	mepc,t0
 184:	f1402573          	csrr	a0,mhartid
 188:	30200073          	mret

0000018c <test_2>:
 18c:	00200193          	li	gp,2
 190:	01400093          	li	ra,20
 194:	00600113          	li	sp,6
 198:	0220c733          	div	a4,ra,sp
 19c:	00300393          	li	t2,3
 1a0:	0c771463          	bne	a4,t2,268 <fail>

000001a4 <test_3>:
 1a4:	00300193          	li	gp,3
 1a8:	fec00093          	li	ra,-20
 1ac:	00600113          	li	sp,6
 1b0:	0220c733          	div	a4,ra,sp
 1b4:	ffd00393          	li	t2,-3
 1b8:	0a771863          	bne	a4,t2,268 <fail>

000001bc <test_4>:
 1bc:	00400193          	li	gp,4
 1c0:	01400093          	li	ra,20
 1c4:	ffa00113          	li	sp,-6
 1c8:	0220c733          	div	a4,ra,sp
 1cc:	ffd00393          	li	t2,-3
 1d0:	08771c63          	bne	a4,t2,268 <fail>

000001d4 <test_5>:
 1d4:	00500193          	li	gp,5
 1d8:	fec00093          	li	ra,-20
 1dc:	ffa00113          	li	sp,-6
 1e0:	0220c733          	div	a4,ra,sp
 1e4:	00300393          	li	t2,3
 1e8:	08771063          	bne	a4,t2,268 <fail>

000001ec <test_6>:
 1ec:	00600193          	li	gp,6
 1f0:	800000b7          	lui	ra,0x80000
 1f4:	00100113          	li	sp,1
 1f8:	0220c733          	div	a4,ra,sp
 1fc:	800003b7          	lui	t2,0x80000
 200:	06771463          	bne	a4,t2,268 <fail>

00000204 <test_7>:
 204:	00700193          	li	gp,7
 208:	800000b7          	lui	ra,0x80000
 20c:	fff00113          	li	sp,-1
 210:	0220c733          	div	a4,ra,sp
 214:	800003b7          	lui	t2,0x80000
 218:	04771863          	bne	a4,t2,268 <fail>

0000021c <test_8>:
 21c:	00800193          	li	gp,8
 220:	800000b7          	lui	ra,0x80000
 224:	00000113          	li	sp,0
 228:	0220c733          	div	a4,ra,sp
 22c:	fff00393          	li	t2,-1
 230:	02771c63          	bne	a4,t2,268 <fail>

00000234 <test_9>:
 234:	00900193          	li	gp,9
 238:	00100093          	li	ra,1
 23c:	00000113          	li	sp,0
 240:	0220c733          	div	a4,ra,sp
 244:	fff00393          	li	t2,-1
 248:	02771063          	bne	a4,t2,268 <fail>

0000024c <test_10>:
 24c:	00a00193          	li	gp,10
 250:	00000093          	li	ra,0
 254:	00000113          	li	sp,0
 258:	0220c733          	div	a4,ra,sp
 25c:	fff00393          	li	t2,-1
 260:	00771463          	bne	a4,t2,268 <fail>
 264:	02301063          	bne	zero,gp,284 <pass>

00000268 <fail>:
 268:	0ff0000f          	fence
 26c:	00018063          	beqz	gp,26c <fail+0x4>
 270:	00119193          	sll	gp,gp,0x1
 274:	0011e193          	or	gp,gp,1
 278:	05d00893          	li	a7,93
 27c:	00018513          	mv	a0,gp
 280:	00000073          	ecall

00000284 <pass>:
 284:	0ff0000f          	fence
 288:	00100193          	li	gp,1
 28c:	05d00893          	li	a7,93
 290:	00000513          	li	a0,0
 294:	00000073          	ecall
 298:	c0001073          	unimp
 29c:	0000                	.2byte	0x0
 29e:	0000                	.2byte	0x0
 2a0:	0000                	.2byte	0x0
 2a2:	0000                	.2byte	0x0
 2a4:	0000                	.2byte	0x0
 2a6:	0000                	.2byte	0x0
 2a8:	0000                	.2byte	0x0
 2aa:	0000                	.2byte	0x0
 2ac:	0000                	.2byte	0x0
 2ae:	0000                	.2byte	0x0
 2b0:	0000                	.2byte	0x0
 2b2:	0000                	.2byte	0x0
 2b4:	0000                	.2byte	0x0
 2b6:	0000                	.2byte	0x0
 2b8:	0000                	.2byte	0x0
 2ba:	0000                	.2byte	0x0
