
rv32si-p-ma_fetch:     file format elf32-littleriscv


Disassembly of section .text.init:

00000000 <_start>:
   0:	0500006f          	j	50 <reset_vector>

00000004 <trap_vector>:
   4:	34202f73          	csrr	t5,mcause
   8:	00800f93          	li	t6,8
   c:	03ff0863          	beq	t5,t6,3c <write_tohost>
  10:	00900f93          	li	t6,9
  14:	03ff0463          	beq	t5,t6,3c <write_tohost>
  18:	00b00f93          	li	t6,11
  1c:	03ff0063          	beq	t5,t6,3c <write_tohost>
  20:	00000f13          	li	t5,0
  24:	000f0463          	beqz	t5,2c <trap_vector+0x28>
  28:	000f0067          	jr	t5
  2c:	34202f73          	csrr	t5,mcause
  30:	000f5463          	bgez	t5,38 <handle_exception>
  34:	0040006f          	j	38 <handle_exception>

00000038 <handle_exception>:
  38:	5391e193          	or	gp,gp,1337

0000003c <write_tohost>:
  3c:	00001f17          	auipc	t5,0x1
  40:	fc3f2223          	sw	gp,-60(t5) # 1000 <tohost>
  44:	00001f17          	auipc	t5,0x1
  48:	fc0f2023          	sw	zero,-64(t5) # 1004 <tohost+0x4>
  4c:	ff1ff06f          	j	3c <write_tohost>

00000050 <reset_vector>:
  50:	00000093          	li	ra,0
  54:	00000113          	li	sp,0
  58:	00000193          	li	gp,0
  5c:	00000213          	li	tp,0
  60:	00000293          	li	t0,0
  64:	00000313          	li	t1,0
  68:	00000393          	li	t2,0
  6c:	00000413          	li	s0,0
  70:	00000493          	li	s1,0
  74:	00000513          	li	a0,0
  78:	00000593          	li	a1,0
  7c:	00000613          	li	a2,0
  80:	00000693          	li	a3,0
  84:	00000713          	li	a4,0
  88:	00000793          	li	a5,0
  8c:	00000813          	li	a6,0
  90:	00000893          	li	a7,0
  94:	00000913          	li	s2,0
  98:	00000993          	li	s3,0
  9c:	00000a13          	li	s4,0
  a0:	00000a93          	li	s5,0
  a4:	00000b13          	li	s6,0
  a8:	00000b93          	li	s7,0
  ac:	00000c13          	li	s8,0
  b0:	00000c93          	li	s9,0
  b4:	00000d13          	li	s10,0
  b8:	00000d93          	li	s11,0
  bc:	00000e13          	li	t3,0
  c0:	00000e93          	li	t4,0
  c4:	00000f13          	li	t5,0
  c8:	00000f93          	li	t6,0
  cc:	f1402573          	csrr	a0,mhartid
  d0:	00051063          	bnez	a0,d0 <reset_vector+0x80>
  d4:	00000297          	auipc	t0,0x0
  d8:	01028293          	add	t0,t0,16 # e4 <reset_vector+0x94>
  dc:	30529073          	csrw	mtvec,t0
  e0:	74445073          	csrw	0x744,8
  e4:	00000297          	auipc	t0,0x0
  e8:	01028293          	add	t0,t0,16 # f4 <reset_vector+0xa4>
  ec:	30529073          	csrw	mtvec,t0
  f0:	18005073          	csrw	satp,0
  f4:	00000297          	auipc	t0,0x0
  f8:	02028293          	add	t0,t0,32 # 114 <reset_vector+0xc4>
  fc:	30529073          	csrw	mtvec,t0
 100:	800002b7          	lui	t0,0x80000
 104:	fff28293          	add	t0,t0,-1 # 7fffffff <_end+0x7fffdfff>
 108:	3b029073          	csrw	pmpaddr0,t0
 10c:	01f00293          	li	t0,31
 110:	3a029073          	csrw	pmpcfg0,t0
 114:	30405073          	csrw	mie,0
 118:	00000297          	auipc	t0,0x0
 11c:	01428293          	add	t0,t0,20 # 12c <reset_vector+0xdc>
 120:	30529073          	csrw	mtvec,t0
 124:	30205073          	csrw	medeleg,0
 128:	30305073          	csrw	mideleg,0
 12c:	00000193          	li	gp,0
 130:	00000297          	auipc	t0,0x0
 134:	ed428293          	add	t0,t0,-300 # 4 <trap_vector>
 138:	30529073          	csrw	mtvec,t0
 13c:	00100513          	li	a0,1
 140:	01f51513          	sll	a0,a0,0x1f
 144:	00054c63          	bltz	a0,15c <reset_vector+0x10c>
 148:	0ff0000f          	fence
 14c:	00100193          	li	gp,1
 150:	05d00893          	li	a7,93
 154:	00000513          	li	a0,0
 158:	00000073          	ecall
 15c:	00000297          	auipc	t0,0x0
 160:	11c28293          	add	t0,t0,284 # 278 <stvec_handler>
 164:	00028a63          	beqz	t0,178 <reset_vector+0x128>
 168:	10529073          	csrw	stvec,t0
 16c:	0000b2b7          	lui	t0,0xb
 170:	10928293          	add	t0,t0,265 # b109 <_end+0x9109>
 174:	30229073          	csrw	medeleg,t0
 178:	30005073          	csrw	mstatus,0
 17c:	00001537          	lui	a0,0x1
 180:	80050513          	add	a0,a0,-2048 # 800 <stvec_handler+0x588>
 184:	30052073          	csrs	mstatus,a0
 188:	02200513          	li	a0,34
 18c:	30352073          	csrs	mideleg,a0
 190:	00000297          	auipc	t0,0x0
 194:	01428293          	add	t0,t0,20 # 1a4 <reset_vector+0x154>
 198:	34129073          	csrw	mepc,t0
 19c:	f1402573          	csrr	a0,mhartid
 1a0:	30200073          	mret
 1a4:	00200193          	li	gp,2
 1a8:	00000313          	li	t1,0
 1ac:	00000297          	auipc	t0,0x0
 1b0:	00c28293          	add	t0,t0,12 # 1b8 <reset_vector+0x168>
 1b4:	00228367          	jalr	t1,2(t0)
 1b8:	a011                	j	1bc <reset_vector+0x16c>
 1ba:	a019                	j	1c0 <reset_vector+0x170>
 1bc:	08c0006f          	j	248 <fail>
 1c0:	00300193          	li	gp,3
 1c4:	00000297          	auipc	t0,0x0
 1c8:	00c28293          	add	t0,t0,12 # 1d0 <reset_vector+0x180>
 1cc:	00128367          	jalr	t1,1(t0)
 1d0:	0080006f          	j	1d8 <reset_vector+0x188>
 1d4:	0740006f          	j	248 <fail>
 1d8:	00400193          	li	gp,4
 1dc:	00000313          	li	t1,0
 1e0:	00000297          	auipc	t0,0x0
 1e4:	00c28293          	add	t0,t0,12 # 1ec <reset_vector+0x19c>
 1e8:	00328367          	jalr	t1,3(t0)
 1ec:	a011                	j	1f0 <reset_vector+0x1a0>
 1ee:	a019                	j	1f4 <reset_vector+0x1a4>
 1f0:	0580006f          	j	248 <fail>
 1f4:	00500193          	li	gp,5
 1f8:	00000313          	li	t1,0
 1fc:	00000297          	auipc	t0,0x0
 200:	00c28293          	add	t0,t0,12 # 208 <reset_vector+0x1b8>
 204:	0060036f          	jal	t1,20a <reset_vector+0x1ba>
 208:	a011                	j	20c <reset_vector+0x1bc>
 20a:	a019                	j	210 <reset_vector+0x1c0>
 20c:	03c0006f          	j	248 <fail>
 210:	00600193          	li	gp,6
 214:	00000313          	li	t1,0
 218:	00000297          	auipc	t0,0x0
 21c:	00c28293          	add	t0,t0,12 # 224 <reset_vector+0x1d4>
 220:	00000363          	beqz	zero,226 <reset_vector+0x1d6>
 224:	a011                	j	228 <reset_vector+0x1d8>
 226:	a019                	j	22c <reset_vector+0x1dc>
 228:	0200006f          	j	248 <fail>
 22c:	00700193          	li	gp,7
 230:	00001563          	bnez	zero,23a <reset_vector+0x1ea>
 234:	00c0006f          	j	240 <reset_vector+0x1f0>
 238:	a009                	j	23a <reset_vector+0x1ea>
 23a:	a009                	j	23c <reset_vector+0x1ec>
 23c:	00c0006f          	j	248 <fail>
 240:	0240006f          	j	264 <pass>
 244:	02301063          	bne	zero,gp,264 <pass>

00000248 <fail>:
 248:	0ff0000f          	fence
 24c:	00018063          	beqz	gp,24c <fail+0x4>
 250:	00119193          	sll	gp,gp,0x1
 254:	0011e193          	or	gp,gp,1
 258:	05d00893          	li	a7,93
 25c:	00018513          	mv	a0,gp
 260:	00000073          	ecall

00000264 <pass>:
 264:	0ff0000f          	fence
 268:	00100193          	li	gp,1
 26c:	05d00893          	li	a7,93
 270:	00000513          	li	a0,0
 274:	00000073          	ecall

00000278 <stvec_handler>:
 278:	00200513          	li	a0,2
 27c:	02a18063          	beq	gp,a0,29c <stvec_handler+0x24>
 280:	00400513          	li	a0,4
 284:	00a18c63          	beq	gp,a0,29c <stvec_handler+0x24>
 288:	00500513          	li	a0,5
 28c:	00a18863          	beq	gp,a0,29c <stvec_handler+0x24>
 290:	00600513          	li	a0,6
 294:	00a18463          	beq	gp,a0,29c <stvec_handler+0x24>
 298:	fb1ff06f          	j	248 <fail>
 29c:	fa0316e3          	bnez	t1,248 <fail>
 2a0:	00000593          	li	a1,0
 2a4:	14202573          	csrr	a0,scause
 2a8:	fab510e3          	bne	a0,a1,248 <fail>
 2ac:	141025f3          	csrr	a1,sepc
 2b0:	00458593          	add	a1,a1,4
 2b4:	f8b29ae3          	bne	t0,a1,248 <fail>
 2b8:	14302573          	csrr	a0,stval
 2bc:	00050663          	beqz	a0,2c8 <stvec_handler+0x50>
 2c0:	ffe50513          	add	a0,a0,-2
 2c4:	f85512e3          	bne	a0,t0,248 <fail>
 2c8:	00858593          	add	a1,a1,8
 2cc:	14159073          	csrw	sepc,a1
 2d0:	10200073          	sret
 2d4:	c0001073          	unimp
 2d8:	0000                	.2byte	0x0
 2da:	0000                	.2byte	0x0
 2dc:	0000                	.2byte	0x0
 2de:	0000                	.2byte	0x0
 2e0:	0000                	.2byte	0x0
 2e2:	0000                	.2byte	0x0
 2e4:	0000                	.2byte	0x0
 2e6:	0000                	.2byte	0x0
 2e8:	0000                	.2byte	0x0
 2ea:	0000                	.2byte	0x0
 2ec:	0000                	.2byte	0x0
 2ee:	0000                	.2byte	0x0
 2f0:	0000                	.2byte	0x0
 2f2:	0000                	.2byte	0x0
 2f4:	0000                	.2byte	0x0
 2f6:	0000                	.2byte	0x0
 2f8:	0000                	.2byte	0x0
 2fa:	0000                	.2byte	0x0
 2fc:	0000                	.2byte	0x0
 2fe:	0000                	.2byte	0x0
