
rv32mi-p-csr:     file format elf32-littleriscv


Disassembly of section .text.init:

00000000 <_start>:
   0:	0540006f          	j	54 <reset_vector>

00000004 <trap_vector>:
   4:	34202f73          	csrr	t5,mcause
   8:	00800f93          	li	t6,8
   c:	03ff0a63          	beq	t5,t6,40 <write_tohost>
  10:	00900f93          	li	t6,9
  14:	03ff0663          	beq	t5,t6,40 <write_tohost>
  18:	00b00f93          	li	t6,11
  1c:	03ff0263          	beq	t5,t6,40 <write_tohost>
  20:	00000f17          	auipc	t5,0x0
  24:	398f0f13          	add	t5,t5,920 # 3b8 <mtvec_handler>
  28:	000f0463          	beqz	t5,30 <trap_vector+0x2c>
  2c:	000f0067          	jr	t5
  30:	34202f73          	csrr	t5,mcause
  34:	000f5463          	bgez	t5,3c <handle_exception>
  38:	0040006f          	j	3c <handle_exception>

0000003c <handle_exception>:
  3c:	5391e193          	or	gp,gp,1337

00000040 <write_tohost>:
  40:	00001f17          	auipc	t5,0x1
  44:	fc3f2023          	sw	gp,-64(t5) # 1000 <tohost>
  48:	00001f17          	auipc	t5,0x1
  4c:	fa0f2e23          	sw	zero,-68(t5) # 1004 <tohost+0x4>
  50:	ff1ff06f          	j	40 <write_tohost>

00000054 <reset_vector>:
  54:	00000093          	li	ra,0
  58:	00000113          	li	sp,0
  5c:	00000193          	li	gp,0
  60:	00000213          	li	tp,0
  64:	00000293          	li	t0,0
  68:	00000313          	li	t1,0
  6c:	00000393          	li	t2,0
  70:	00000413          	li	s0,0
  74:	00000493          	li	s1,0
  78:	00000513          	li	a0,0
  7c:	00000593          	li	a1,0
  80:	00000613          	li	a2,0
  84:	00000693          	li	a3,0
  88:	00000713          	li	a4,0
  8c:	00000793          	li	a5,0
  90:	00000813          	li	a6,0
  94:	00000893          	li	a7,0
  98:	00000913          	li	s2,0
  9c:	00000993          	li	s3,0
  a0:	00000a13          	li	s4,0
  a4:	00000a93          	li	s5,0
  a8:	00000b13          	li	s6,0
  ac:	00000b93          	li	s7,0
  b0:	00000c13          	li	s8,0
  b4:	00000c93          	li	s9,0
  b8:	00000d13          	li	s10,0
  bc:	00000d93          	li	s11,0
  c0:	00000e13          	li	t3,0
  c4:	00000e93          	li	t4,0
  c8:	00000f13          	li	t5,0
  cc:	00000f93          	li	t6,0
  d0:	f1402573          	csrr	a0,mhartid
  d4:	00051063          	bnez	a0,d4 <reset_vector+0x80>
  d8:	00000297          	auipc	t0,0x0
  dc:	01028293          	add	t0,t0,16 # e8 <reset_vector+0x94>
  e0:	30529073          	csrw	mtvec,t0
  e4:	74445073          	csrw	0x744,8
  e8:	00000297          	auipc	t0,0x0
  ec:	01028293          	add	t0,t0,16 # f8 <reset_vector+0xa4>
  f0:	30529073          	csrw	mtvec,t0
  f4:	18005073          	csrw	satp,0
  f8:	00000297          	auipc	t0,0x0
  fc:	02028293          	add	t0,t0,32 # 118 <reset_vector+0xc4>
 100:	30529073          	csrw	mtvec,t0
 104:	800002b7          	lui	t0,0x80000
 108:	fff28293          	add	t0,t0,-1 # 7fffffff <_end+0x7fffdfef>
 10c:	3b029073          	csrw	pmpaddr0,t0
 110:	01f00293          	li	t0,31
 114:	3a029073          	csrw	pmpcfg0,t0
 118:	30405073          	csrw	mie,0
 11c:	00000297          	auipc	t0,0x0
 120:	01428293          	add	t0,t0,20 # 130 <reset_vector+0xdc>
 124:	30529073          	csrw	mtvec,t0
 128:	30205073          	csrw	medeleg,0
 12c:	30305073          	csrw	mideleg,0
 130:	00000193          	li	gp,0
 134:	00000297          	auipc	t0,0x0
 138:	ed028293          	add	t0,t0,-304 # 4 <trap_vector>
 13c:	30529073          	csrw	mtvec,t0
 140:	00100513          	li	a0,1
 144:	01f51513          	sll	a0,a0,0x1f
 148:	00054c63          	bltz	a0,160 <reset_vector+0x10c>
 14c:	0ff0000f          	fence
 150:	00100193          	li	gp,1
 154:	05d00893          	li	a7,93
 158:	00000513          	li	a0,0
 15c:	00000073          	ecall
 160:	00000293          	li	t0,0
 164:	00028a63          	beqz	t0,178 <reset_vector+0x124>
 168:	10529073          	csrw	stvec,t0
 16c:	0000b2b7          	lui	t0,0xb
 170:	10928293          	add	t0,t0,265 # b109 <_end+0x90f9>
 174:	30229073          	csrw	medeleg,t0
 178:	30005073          	csrw	mstatus,0
 17c:	00002537          	lui	a0,0x2
 180:	80050513          	add	a0,a0,-2048 # 1800 <fromhost+0x7c0>
 184:	30052073          	csrs	mstatus,a0
 188:	00000297          	auipc	t0,0x0
 18c:	01428293          	add	t0,t0,20 # 19c <test_20>
 190:	34129073          	csrw	mepc,t0
 194:	f1402573          	csrr	a0,mhartid
 198:	30200073          	mret

0000019c <test_20>:
 19c:	01400193          	li	gp,20
 1a0:	34001073          	csrw	mscratch,zero
 1a4:	34002573          	csrr	a0,mscratch
 1a8:	00000393          	li	t2,0
 1ac:	1c751e63          	bne	a0,t2,388 <fail>

000001b0 <test_21>:
 1b0:	01500193          	li	gp,21
 1b4:	34005573          	csrrw	a0,mscratch,0
 1b8:	3407d573          	csrrw	a0,mscratch,15
 1bc:	00000393          	li	t2,0
 1c0:	1c751463          	bne	a0,t2,388 <fail>

000001c4 <test_22>:
 1c4:	01600193          	li	gp,22
 1c8:	34086073          	csrs	mscratch,16
 1cc:	34002573          	csrr	a0,mscratch
 1d0:	01f00393          	li	t2,31
 1d4:	1a751a63          	bne	a0,t2,388 <fail>
 1d8:	3401d073          	csrw	mscratch,3

000001dc <test_2>:
 1dc:	00200193          	li	gp,2
 1e0:	34002573          	csrr	a0,mscratch
 1e4:	00300393          	li	t2,3
 1e8:	1a751063          	bne	a0,t2,388 <fail>

000001ec <test_3>:
 1ec:	00300193          	li	gp,3
 1f0:	3400f5f3          	csrrc	a1,mscratch,1
 1f4:	00300393          	li	t2,3
 1f8:	18759863          	bne	a1,t2,388 <fail>

000001fc <test_4>:
 1fc:	00400193          	li	gp,4
 200:	34026673          	csrrs	a2,mscratch,4
 204:	00200393          	li	t2,2
 208:	18761063          	bne	a2,t2,388 <fail>

0000020c <test_5>:
 20c:	00500193          	li	gp,5
 210:	340156f3          	csrrw	a3,mscratch,2
 214:	00600393          	li	t2,6
 218:	16769863          	bne	a3,t2,388 <fail>

0000021c <test_6>:
 21c:	00600193          	li	gp,6
 220:	0bad2537          	lui	a0,0xbad2
 224:	dea50513          	add	a0,a0,-534 # bad1dea <_end+0xbacfdda>
 228:	340515f3          	csrrw	a1,mscratch,a0
 22c:	00200393          	li	t2,2
 230:	14759c63          	bne	a1,t2,388 <fail>

00000234 <test_7>:
 234:	00700193          	li	gp,7
 238:	00002537          	lui	a0,0x2
 23c:	dea50513          	add	a0,a0,-534 # 1dea <fromhost+0xdaa>
 240:	340535f3          	csrrc	a1,mscratch,a0
 244:	0bad23b7          	lui	t2,0xbad2
 248:	dea38393          	add	t2,t2,-534 # bad1dea <_end+0xbacfdda>
 24c:	12759e63          	bne	a1,t2,388 <fail>

00000250 <test_8>:
 250:	00800193          	li	gp,8
 254:	0000c537          	lui	a0,0xc
 258:	eef50513          	add	a0,a0,-273 # beef <_end+0x9edf>
 25c:	340525f3          	csrrs	a1,mscratch,a0
 260:	0bad03b7          	lui	t2,0xbad0
 264:	12759263          	bne	a1,t2,388 <fail>

00000268 <test_9>:
 268:	00900193          	li	gp,9
 26c:	0bad2537          	lui	a0,0xbad2
 270:	dea50513          	add	a0,a0,-534 # bad1dea <_end+0xbacfdda>
 274:	34051573          	csrrw	a0,mscratch,a0
 278:	0badc3b7          	lui	t2,0xbadc
 27c:	eef38393          	add	t2,t2,-273 # badbeef <_end+0xbad9edf>
 280:	10751463          	bne	a0,t2,388 <fail>

00000284 <test_10>:
 284:	00a00193          	li	gp,10
 288:	00002537          	lui	a0,0x2
 28c:	dea50513          	add	a0,a0,-534 # 1dea <fromhost+0xdaa>
 290:	34053573          	csrrc	a0,mscratch,a0
 294:	0bad23b7          	lui	t2,0xbad2
 298:	dea38393          	add	t2,t2,-534 # bad1dea <_end+0xbacfdda>
 29c:	0e751663          	bne	a0,t2,388 <fail>

000002a0 <test_11>:
 2a0:	00b00193          	li	gp,11
 2a4:	0000c537          	lui	a0,0xc
 2a8:	eef50513          	add	a0,a0,-273 # beef <_end+0x9edf>
 2ac:	34052573          	csrrs	a0,mscratch,a0
 2b0:	0bad03b7          	lui	t2,0xbad0
 2b4:	0c751a63          	bne	a0,t2,388 <fail>

000002b8 <test_12>:
 2b8:	00c00193          	li	gp,12
 2bc:	34002573          	csrr	a0,mscratch
 2c0:	0badc3b7          	lui	t2,0xbadc
 2c4:	eef38393          	add	t2,t2,-273 # badbeef <_end+0xbad9edf>
 2c8:	0c751063          	bne	a0,t2,388 <fail>
 2cc:	30102573          	csrr	a0,misa
 2d0:	02057513          	and	a0,a0,32
 2d4:	02050863          	beqz	a0,304 <test_13+0x14>
 2d8:	000065b7          	lui	a1,0x6
 2dc:	3005a073          	csrs	mstatus,a1
 2e0:	f0000053          	fmv.w.x	ft0,zero
 2e4:	3005b073          	csrc	mstatus,a1
 2e8:	00002597          	auipc	a1,0x2
 2ec:	d1858593          	add	a1,a1,-744 # 2000 <begin_signature>

000002f0 <test_13>:
 2f0:	00d00193          	li	gp,13
 2f4:	0005a027          	fsw	ft0,0(a1)
 2f8:	0005a503          	lw	a0,0(a1)
 2fc:	00100393          	li	t2,1
 300:	08751463          	bne	a0,t2,388 <fail>
 304:	30102573          	csrr	a0,misa
 308:	01455513          	srl	a0,a0,0x14
 30c:	00157513          	and	a0,a0,1
 310:	06050063          	beqz	a0,370 <finish>
 314:	3060d073          	csrw	mcounteren,1
 318:	30102573          	csrr	a0,misa
 31c:	01255513          	srl	a0,a0,0x12
 320:	00157513          	and	a0,a0,1
 324:	00050463          	beqz	a0,32c <test_13+0x3c>
 328:	1060d073          	csrw	scounteren,1
 32c:	000022b7          	lui	t0,0x2
 330:	80028293          	add	t0,t0,-2048 # 1800 <fromhost+0x7c0>
 334:	3002b073          	csrc	mstatus,t0
 338:	00000297          	auipc	t0,0x0
 33c:	01028293          	add	t0,t0,16 # 348 <test_14>
 340:	34129073          	csrw	mepc,t0
 344:	30200073          	mret

00000348 <test_14>:
 348:	00e00193          	li	gp,14
 34c:	0ff00513          	li	a0,255
 350:	c0001573          	csrrw	a0,cycle,zero
 354:	0ff00393          	li	t2,255
 358:	02751863          	bne	a0,t2,388 <fail>

0000035c <test_15>:
 35c:	00f00193          	li	gp,15
 360:	0ff00513          	li	a0,255
 364:	30002573          	csrr	a0,mstatus
 368:	0ff00393          	li	t2,255
 36c:	00751e63          	bne	a0,t2,388 <fail>

00000370 <finish>:
 370:	0ff0000f          	fence
 374:	00100193          	li	gp,1
 378:	05d00893          	li	a7,93
 37c:	00000513          	li	a0,0
 380:	00000073          	ecall
 384:	02301063          	bne	zero,gp,3a4 <pass>

00000388 <fail>:
 388:	0ff0000f          	fence
 38c:	00018063          	beqz	gp,38c <fail+0x4>
 390:	00119193          	sll	gp,gp,0x1
 394:	0011e193          	or	gp,gp,1
 398:	05d00893          	li	a7,93
 39c:	00018513          	mv	a0,gp
 3a0:	00000073          	ecall

000003a4 <pass>:
 3a4:	0ff0000f          	fence
 3a8:	00100193          	li	gp,1
 3ac:	05d00893          	li	a7,93
 3b0:	00000513          	li	a0,0
 3b4:	00000073          	ecall

000003b8 <mtvec_handler>:
 3b8:	00d00293          	li	t0,13
 3bc:	0051e663          	bltu	gp,t0,3c8 <mtvec_handler+0x10>
 3c0:	00f00293          	li	t0,15
 3c4:	0232f263          	bgeu	t0,gp,3e8 <privileged>
 3c8:	342022f3          	csrr	t0,mcause
 3cc:	00800313          	li	t1,8
 3d0:	fa629ce3          	bne	t0,t1,388 <fail>
 3d4:	0ff0000f          	fence
 3d8:	00100193          	li	gp,1
 3dc:	05d00893          	li	a7,93
 3e0:	00000513          	li	a0,0
 3e4:	00000073          	ecall

000003e8 <privileged>:
 3e8:	342022f3          	csrr	t0,mcause
 3ec:	00200313          	li	t1,2
 3f0:	f8629ce3          	bne	t0,t1,388 <fail>
 3f4:	341022f3          	csrr	t0,mepc
 3f8:	00428293          	add	t0,t0,4
 3fc:	34129073          	csrw	mepc,t0
 400:	30200073          	mret
 404:	c0001073          	unimp
 408:	0000                	.2byte	0x0
 40a:	0000                	.2byte	0x0
 40c:	0000                	.2byte	0x0
 40e:	0000                	.2byte	0x0
 410:	0000                	.2byte	0x0
 412:	0000                	.2byte	0x0
 414:	0000                	.2byte	0x0
 416:	0000                	.2byte	0x0
 418:	0000                	.2byte	0x0
 41a:	0000                	.2byte	0x0
 41c:	0000                	.2byte	0x0
 41e:	0000                	.2byte	0x0
 420:	0000                	.2byte	0x0
 422:	0000                	.2byte	0x0
 424:	0000                	.2byte	0x0
 426:	0000                	.2byte	0x0
 428:	0000                	.2byte	0x0
 42a:	0000                	.2byte	0x0
 42c:	0000                	.2byte	0x0
 42e:	0000                	.2byte	0x0
 430:	0000                	.2byte	0x0
 432:	0000                	.2byte	0x0
 434:	0000                	.2byte	0x0
 436:	0000                	.2byte	0x0
 438:	0000                	.2byte	0x0
 43a:	0000                	.2byte	0x0
 43c:	0000                	.2byte	0x0
 43e:	0000                	.2byte	0x0
