
rv32si-p-csr:     file format elf32-littleriscv


Disassembly of section .text.init:

00000000 <_start>:
   0:	0500006f          	j	50 <reset_vector>

00000004 <trap_vector>:
   4:	34202f73          	csrr	t5,mcause
   8:	00800f93          	li	t6,8
   c:	03ff0863          	beq	t5,t6,3c <write_tohost>
  10:	00900f93          	li	t6,9
  14:	03ff0463          	beq	t5,t6,3c <write_tohost>
  18:	00b00f93          	li	t6,11
  1c:	03ff0063          	beq	t5,t6,3c <write_tohost>
  20:	00000f13          	li	t5,0
  24:	000f0463          	beqz	t5,2c <trap_vector+0x28>
  28:	000f0067          	jr	t5
  2c:	34202f73          	csrr	t5,mcause
  30:	000f5463          	bgez	t5,38 <handle_exception>
  34:	0040006f          	j	38 <handle_exception>

00000038 <handle_exception>:
  38:	5391e193          	or	gp,gp,1337

0000003c <write_tohost>:
  3c:	00001f17          	auipc	t5,0x1
  40:	fc3f2223          	sw	gp,-60(t5) # 1000 <tohost>
  44:	00001f17          	auipc	t5,0x1
  48:	fc0f2023          	sw	zero,-64(t5) # 1004 <tohost+0x4>
  4c:	ff1ff06f          	j	3c <write_tohost>

00000050 <reset_vector>:
  50:	00000093          	li	ra,0
  54:	00000113          	li	sp,0
  58:	00000193          	li	gp,0
  5c:	00000213          	li	tp,0
  60:	00000293          	li	t0,0
  64:	00000313          	li	t1,0
  68:	00000393          	li	t2,0
  6c:	00000413          	li	s0,0
  70:	00000493          	li	s1,0
  74:	00000513          	li	a0,0
  78:	00000593          	li	a1,0
  7c:	00000613          	li	a2,0
  80:	00000693          	li	a3,0
  84:	00000713          	li	a4,0
  88:	00000793          	li	a5,0
  8c:	00000813          	li	a6,0
  90:	00000893          	li	a7,0
  94:	00000913          	li	s2,0
  98:	00000993          	li	s3,0
  9c:	00000a13          	li	s4,0
  a0:	00000a93          	li	s5,0
  a4:	00000b13          	li	s6,0
  a8:	00000b93          	li	s7,0
  ac:	00000c13          	li	s8,0
  b0:	00000c93          	li	s9,0
  b4:	00000d13          	li	s10,0
  b8:	00000d93          	li	s11,0
  bc:	00000e13          	li	t3,0
  c0:	00000e93          	li	t4,0
  c4:	00000f13          	li	t5,0
  c8:	00000f93          	li	t6,0
  cc:	f1402573          	csrr	a0,mhartid
  d0:	00051063          	bnez	a0,d0 <reset_vector+0x80>
  d4:	00000297          	auipc	t0,0x0
  d8:	01028293          	add	t0,t0,16 # e4 <reset_vector+0x94>
  dc:	30529073          	csrw	mtvec,t0
  e0:	74445073          	csrw	0x744,8
  e4:	00000297          	auipc	t0,0x0
  e8:	01028293          	add	t0,t0,16 # f4 <reset_vector+0xa4>
  ec:	30529073          	csrw	mtvec,t0
  f0:	18005073          	csrw	satp,0
  f4:	00000297          	auipc	t0,0x0
  f8:	02028293          	add	t0,t0,32 # 114 <reset_vector+0xc4>
  fc:	30529073          	csrw	mtvec,t0
 100:	800002b7          	lui	t0,0x80000
 104:	fff28293          	add	t0,t0,-1 # 7fffffff <_end+0x7fffdfef>
 108:	3b029073          	csrw	pmpaddr0,t0
 10c:	01f00293          	li	t0,31
 110:	3a029073          	csrw	pmpcfg0,t0
 114:	30405073          	csrw	mie,0
 118:	00000297          	auipc	t0,0x0
 11c:	01428293          	add	t0,t0,20 # 12c <reset_vector+0xdc>
 120:	30529073          	csrw	mtvec,t0
 124:	30205073          	csrw	medeleg,0
 128:	30305073          	csrw	mideleg,0
 12c:	00000193          	li	gp,0
 130:	00000297          	auipc	t0,0x0
 134:	ed428293          	add	t0,t0,-300 # 4 <trap_vector>
 138:	30529073          	csrw	mtvec,t0
 13c:	00100513          	li	a0,1
 140:	01f51513          	sll	a0,a0,0x1f
 144:	00054c63          	bltz	a0,15c <reset_vector+0x10c>
 148:	0ff0000f          	fence
 14c:	00100193          	li	gp,1
 150:	05d00893          	li	a7,93
 154:	00000513          	li	a0,0
 158:	00000073          	ecall
 15c:	00000297          	auipc	t0,0x0
 160:	1e828293          	add	t0,t0,488 # 344 <stvec_handler>
 164:	00028a63          	beqz	t0,178 <reset_vector+0x128>
 168:	10529073          	csrw	stvec,t0
 16c:	0000b2b7          	lui	t0,0xb
 170:	10928293          	add	t0,t0,265 # b109 <_end+0x90f9>
 174:	30229073          	csrw	medeleg,t0
 178:	30005073          	csrw	mstatus,0
 17c:	00001537          	lui	a0,0x1
 180:	80050513          	add	a0,a0,-2048 # 800 <privileged+0x48c>
 184:	30052073          	csrs	mstatus,a0
 188:	02200513          	li	a0,34
 18c:	30352073          	csrs	mideleg,a0
 190:	00000297          	auipc	t0,0x0
 194:	01428293          	add	t0,t0,20 # 1a4 <test_20>
 198:	34129073          	csrw	mepc,t0
 19c:	f1402573          	csrr	a0,mhartid
 1a0:	30200073          	mret

000001a4 <test_20>:
 1a4:	01400193          	li	gp,20
 1a8:	14001073          	csrw	sscratch,zero
 1ac:	14002573          	csrr	a0,sscratch
 1b0:	00000393          	li	t2,0
 1b4:	16751063          	bne	a0,t2,314 <fail>

000001b8 <test_21>:
 1b8:	01500193          	li	gp,21
 1bc:	14005573          	csrrw	a0,sscratch,0
 1c0:	1407d573          	csrrw	a0,sscratch,15
 1c4:	00000393          	li	t2,0
 1c8:	14751663          	bne	a0,t2,314 <fail>

000001cc <test_22>:
 1cc:	01600193          	li	gp,22
 1d0:	14086073          	csrs	sscratch,16
 1d4:	14002573          	csrr	a0,sscratch
 1d8:	01f00393          	li	t2,31
 1dc:	12751c63          	bne	a0,t2,314 <fail>
 1e0:	1401d073          	csrw	sscratch,3

000001e4 <test_2>:
 1e4:	00200193          	li	gp,2
 1e8:	14002573          	csrr	a0,sscratch
 1ec:	00300393          	li	t2,3
 1f0:	12751263          	bne	a0,t2,314 <fail>

000001f4 <test_3>:
 1f4:	00300193          	li	gp,3
 1f8:	1400f5f3          	csrrc	a1,sscratch,1
 1fc:	00300393          	li	t2,3
 200:	10759a63          	bne	a1,t2,314 <fail>

00000204 <test_4>:
 204:	00400193          	li	gp,4
 208:	14026673          	csrrs	a2,sscratch,4
 20c:	00200393          	li	t2,2
 210:	10761263          	bne	a2,t2,314 <fail>

00000214 <test_5>:
 214:	00500193          	li	gp,5
 218:	140156f3          	csrrw	a3,sscratch,2
 21c:	00600393          	li	t2,6
 220:	0e769a63          	bne	a3,t2,314 <fail>

00000224 <test_6>:
 224:	00600193          	li	gp,6
 228:	0bad2537          	lui	a0,0xbad2
 22c:	dea50513          	add	a0,a0,-534 # bad1dea <_end+0xbacfdda>
 230:	140515f3          	csrrw	a1,sscratch,a0
 234:	00200393          	li	t2,2
 238:	0c759e63          	bne	a1,t2,314 <fail>

0000023c <test_7>:
 23c:	00700193          	li	gp,7
 240:	00002537          	lui	a0,0x2
 244:	dea50513          	add	a0,a0,-534 # 1dea <fromhost+0xdaa>
 248:	140535f3          	csrrc	a1,sscratch,a0
 24c:	0bad23b7          	lui	t2,0xbad2
 250:	dea38393          	add	t2,t2,-534 # bad1dea <_end+0xbacfdda>
 254:	0c759063          	bne	a1,t2,314 <fail>

00000258 <test_8>:
 258:	00800193          	li	gp,8
 25c:	0000c537          	lui	a0,0xc
 260:	eef50513          	add	a0,a0,-273 # beef <_end+0x9edf>
 264:	140525f3          	csrrs	a1,sscratch,a0
 268:	0bad03b7          	lui	t2,0xbad0
 26c:	0a759463          	bne	a1,t2,314 <fail>

00000270 <test_9>:
 270:	00900193          	li	gp,9
 274:	0bad2537          	lui	a0,0xbad2
 278:	dea50513          	add	a0,a0,-534 # bad1dea <_end+0xbacfdda>
 27c:	14051573          	csrrw	a0,sscratch,a0
 280:	0badc3b7          	lui	t2,0xbadc
 284:	eef38393          	add	t2,t2,-273 # badbeef <_end+0xbad9edf>
 288:	08751663          	bne	a0,t2,314 <fail>

0000028c <test_10>:
 28c:	00a00193          	li	gp,10
 290:	00002537          	lui	a0,0x2
 294:	dea50513          	add	a0,a0,-534 # 1dea <fromhost+0xdaa>
 298:	14053573          	csrrc	a0,sscratch,a0
 29c:	0bad23b7          	lui	t2,0xbad2
 2a0:	dea38393          	add	t2,t2,-534 # bad1dea <_end+0xbacfdda>
 2a4:	06751863          	bne	a0,t2,314 <fail>

000002a8 <test_11>:
 2a8:	00b00193          	li	gp,11
 2ac:	0000c537          	lui	a0,0xc
 2b0:	eef50513          	add	a0,a0,-273 # beef <_end+0x9edf>
 2b4:	14052573          	csrrs	a0,sscratch,a0
 2b8:	0bad03b7          	lui	t2,0xbad0
 2bc:	04751c63          	bne	a0,t2,314 <fail>

000002c0 <test_12>:
 2c0:	00c00193          	li	gp,12
 2c4:	14002573          	csrr	a0,sscratch
 2c8:	0badc3b7          	lui	t2,0xbadc
 2cc:	eef38393          	add	t2,t2,-273 # badbeef <_end+0xbad9edf>
 2d0:	04751263          	bne	a0,t2,314 <fail>
 2d4:	10000293          	li	t0,256
 2d8:	1002b073          	csrc	sstatus,t0
 2dc:	00000297          	auipc	t0,0x0
 2e0:	01028293          	add	t0,t0,16 # 2ec <test_15>
 2e4:	14129073          	csrw	sepc,t0
 2e8:	10200073          	sret

000002ec <test_15>:
 2ec:	00f00193          	li	gp,15
 2f0:	00000013          	nop
 2f4:	00000393          	li	t2,0
 2f8:	00701e63          	bne	zero,t2,314 <fail>

000002fc <finish>:
 2fc:	0ff0000f          	fence
 300:	00100193          	li	gp,1
 304:	05d00893          	li	a7,93
 308:	00000513          	li	a0,0
 30c:	00000073          	ecall
 310:	02301063          	bne	zero,gp,330 <pass>

00000314 <fail>:
 314:	0ff0000f          	fence
 318:	00018063          	beqz	gp,318 <fail+0x4>
 31c:	00119193          	sll	gp,gp,0x1
 320:	0011e193          	or	gp,gp,1
 324:	05d00893          	li	a7,93
 328:	00018513          	mv	a0,gp
 32c:	00000073          	ecall

00000330 <pass>:
 330:	0ff0000f          	fence
 334:	00100193          	li	gp,1
 338:	05d00893          	li	a7,93
 33c:	00000513          	li	a0,0
 340:	00000073          	ecall

00000344 <stvec_handler>:
 344:	00d00293          	li	t0,13
 348:	0051e663          	bltu	gp,t0,354 <stvec_handler+0x10>
 34c:	00f00293          	li	t0,15
 350:	0232f263          	bgeu	t0,gp,374 <privileged>
 354:	142022f3          	csrr	t0,scause
 358:	00800313          	li	t1,8
 35c:	fa629ce3          	bne	t0,t1,314 <fail>
 360:	0ff0000f          	fence
 364:	00100193          	li	gp,1
 368:	05d00893          	li	a7,93
 36c:	00000513          	li	a0,0
 370:	00000073          	ecall

00000374 <privileged>:
 374:	142022f3          	csrr	t0,scause
 378:	00200313          	li	t1,2
 37c:	f8629ce3          	bne	t0,t1,314 <fail>
 380:	141022f3          	csrr	t0,sepc
 384:	00428293          	add	t0,t0,4
 388:	14129073          	csrw	sepc,t0
 38c:	10200073          	sret
 390:	c0001073          	unimp
 394:	0000                	.2byte	0x0
 396:	0000                	.2byte	0x0
 398:	0000                	.2byte	0x0
 39a:	0000                	.2byte	0x0
 39c:	0000                	.2byte	0x0
 39e:	0000                	.2byte	0x0
 3a0:	0000                	.2byte	0x0
 3a2:	0000                	.2byte	0x0
 3a4:	0000                	.2byte	0x0
 3a6:	0000                	.2byte	0x0
 3a8:	0000                	.2byte	0x0
 3aa:	0000                	.2byte	0x0
 3ac:	0000                	.2byte	0x0
 3ae:	0000                	.2byte	0x0
 3b0:	0000                	.2byte	0x0
 3b2:	0000                	.2byte	0x0
 3b4:	0000                	.2byte	0x0
 3b6:	0000                	.2byte	0x0
 3b8:	0000                	.2byte	0x0
 3ba:	0000                	.2byte	0x0
 3bc:	0000                	.2byte	0x0
 3be:	0000                	.2byte	0x0
